ARM GAS  /tmp/ccRHtd69.s 			page 1


   1              		.cpu cortex-m3
   2              		.eabi_attribute 20, 1
   3              		.eabi_attribute 21, 1
   4              		.eabi_attribute 23, 3
   5              		.eabi_attribute 24, 1
   6              		.eabi_attribute 25, 1
   7              		.eabi_attribute 26, 1
   8              		.eabi_attribute 30, 6
   9              		.eabi_attribute 34, 1
  10              		.eabi_attribute 18, 4
  11              		.file	"lcd.c"
  12              		.text
  13              	.Ltext0:
  14              		.cfi_sections	.debug_frame
  15              		.global	asc2_1206
  16              		.section	.rodata.asc2_1206,"a"
  17              		.align	2
  20              	asc2_1206:
  21 0000 00000000 		.ascii	"\000\000\000\000\000\000\000\000\000\000\000\000"
  21      00000000 
  21      00000000 
  22 000c 00000000 		.ascii	"\000\000\000\000?@\000\000\000\000\000\000"
  22      3F400000 
  22      00000000 
  23 0018 00003000 		.ascii	"\000\0000\000@\0000\000@\000\000\000"
  23      40003000 
  23      40000000 
  24 0024 09000BC0 		.ascii	"\011\000\013\300=\000\013\300=\000\011\000"
  24      3D000BC0 
  24      3D000900 
  25 0030 18C02440 		.ascii	"\030\300$@\177\340\"@1\200\000\000"
  25      7FE02240 
  25      31800000 
  26 003c 180024C0 		.ascii	"\030\000$\300\033\000\015\2002@\001\200"
  26      1B000D80 
  26      32400180 
  27 0048 03801C40 		.ascii	"\003\200\034@'@\034\200\007@\000@"
  27      27401C80 
  27      07400040 
  28 0054 10006000 		.ascii	"\020\000`\000\000\000\000\000\000\000\000\000"
  28      00000000 
  28      00000000 
  29 0060 00000000 		.ascii	"\000\000\000\000\000\000\037\200 @@ "
  29      00001F80 
  29      20404020 
  30 006c 00004020 		.ascii	"\000\000@  @\037\200\000\000\000\000"
  30      20401F80 
  30      00000000 
  31 0078 09000600 		.ascii	"\011\000\006\000\037\200\006\000\011\000\000\000"
  31      1F800600 
  31      09000000 
  32 0084 04000400 		.ascii	"\004\000\004\000?\200\004\000\004\000\000\000"
  32      3F800400 
  32      04000000 
  33 0090 00100060 		.ascii	"\000\020\000`\000\000\000\000\000\000\000\000"
  33      00000000 
  33      00000000 
ARM GAS  /tmp/ccRHtd69.s 			page 2


  34 009c 04000400 		.ascii	"\004\000\004\000\004\000\004\000\004\000\000\000"
  34      04000400 
  34      04000000 
  35 00a8 00000040 		.ascii	"\000\000\000@\000\000\000\000\000\000\000\000"
  35      00000000 
  35      00000000 
  36 00b4 002001C0 		.ascii	"\000 \001\300\006\0008\000@\000\000\000"
  36      06003800 
  36      40000000 
  37 00c0 1F802040 		.ascii	"\037\200 @ @ @\037\200\000\000"
  37      20402040 
  37      1F800000 
  38 00cc 00001040 		.ascii	"\000\000\020@?\300\000@\000\000\000\000"
  38      3FC00040 
  38      00000000 
  39 00d8 18C02140 		.ascii	"\030\300!@\"@$@\030@\000\000"
  39      22402440 
  39      18400000 
  40 00e4 10802040 		.ascii	"\020\200 @$@$@\033\200\000\000"
  40      24402440 
  40      1B800000 
  41 00f0 02000D00 		.ascii	"\002\000\015\000\021\000?\300\001@\000\000"
  41      11003FC0 
  41      01400000 
  42 00fc 3C802440 		.ascii	"<\200$@$@$@#\200\000\000"
  42      24402440 
  42      23800000 
  43 0108 1F802440 		.ascii	"\037\200$@$@4@\003\200\000\000"
  43      24403440 
  43      03800000 
  44 0114 30002000 		.ascii	"0\000 \000'\3008\000 \000\000\000"
  44      27C03800 
  44      20000000 
  45 0120 1B802440 		.ascii	"\033\200$@$@$@\033\200\000\000"
  45      24402440 
  45      1B800000 
  46 012c 1C0022C0 		.ascii	"\034\000\"\300\"@\"@\037\200\000\000"
  46      22402240 
  46      1F800000 
  47 0138 00000000 		.ascii	"\000\000\000\000\010@\000\000\000\000\000\000"
  47      08400000 
  47      00000000 
  48 0144 00000000 		.ascii	"\000\000\000\000\004`\000\000\000\000\000\000"
  48      04600000 
  48      00000000 
  49 0150 00000400 		.ascii	"\000\000\004\000\012\000\021\000 \200@@"
  49      0A001100 
  49      20804040 
  50 015c 09000900 		.ascii	"\011\000\011\000\011\000\011\000\011\000\000\000"
  50      09000900 
  50      09000000 
  51 0168 00004040 		.ascii	"\000\000@@ \200\021\000\012\000\004\000"
  51      20801100 
  51      0A000400 
  52 0174 18002000 		.ascii	"\030\000 \000#@$\000\030\000\000\000"
  52      23402400 
  52      18000000 
ARM GAS  /tmp/ccRHtd69.s 			page 3


  53 0180 1F802040 		.ascii	"\037\200 @'@)@\037@\000\000"
  53      27402940 
  53      1F400000 
  54 018c 004007C0 		.ascii	"\000@\007\3009\000\017\000\001\300\000@"
  54      39000F00 
  54      01C00040 
  55 0198 20403FC0 		.ascii	" @?\300$@$@\033\200\000\000"
  55      24402440 
  55      1B800000 
  56 01a4 1F802040 		.ascii	"\037\200 @ @ @0\200\000\000"
  56      20402040 
  56      30800000 
  57 01b0 20403FC0 		.ascii	" @?\300 @ @\037\200\000\000"
  57      20402040 
  57      1F800000 
  58 01bc 20403FC0 		.ascii	" @?\300$@.@0\300\000\000"
  58      24402E40 
  58      30C00000 
  59 01c8 20403FC0 		.ascii	" @?\300$@.\0000\000\000\000"
  59      24402E00 
  59      30000000 
  60 01d4 0F001080 		.ascii	"\017\000\020\200 @\"@3\200\002\000"
  60      20402240 
  60      33800200 
  61 01e0 20403FC0 		.ascii	" @?\300\004\000\004\000?\300 @"
  61      04000400 
  61      3FC02040 
  62 01ec 20402040 		.ascii	" @ @?\300 @ @\000\000"
  62      3FC02040 
  62      20400000 
  63 01f8 00602020 		.ascii	"\000`    ?\300 \000 \000"
  63      20203FC0 
  63      20002000 
  64 0204 20403FC0 		.ascii	" @?\300$@\013\0000\300 @"
  64      24400B00 
  64      30C02040 
  65 0210 20403FC0 		.ascii	" @?\300 @\000@\000@\000\300"
  65      20400040 
  65      004000C0 
  66 021c 3FC03C00 		.ascii	"?\300<\000\003\300<\000?\300\000\000"
  66      03C03C00 
  66      3FC00000 
  67 0228 20403FC0 		.ascii	" @?\300\014@#\000?\300 \000"
  67      0C402300 
  67      3FC02000 
  68 0234 1F802040 		.ascii	"\037\200 @ @ @\037\200\000\000"
  68      20402040 
  68      1F800000 
  69 0240 20403FC0 		.ascii	" @?\300$@$\000\030\000\000\000"
  69      24402400 
  69      18000000 
  70 024c 1F802140 		.ascii	"\037\200!@!@ \340\037\240\000\000"
  70      214020E0 
  70      1FA00000 
  71 0258 20403FC0 		.ascii	" @?\300$@&\000\031\300\000@"
  71      24402600 
  71      19C00040 
ARM GAS  /tmp/ccRHtd69.s 			page 4


  72 0264 18C02440 		.ascii	"\030\300$@$@\"@1\200\000\000"
  72      24402240 
  72      31800000 
  73 0270 30002040 		.ascii	"0\000 @?\300 @0\000\000\000"
  73      3FC02040 
  73      30000000 
  74 027c 20003F80 		.ascii	" \000?\200\000@\000@?\200 \000"
  74      00400040 
  74      3F802000 
  75 0288 20003E00 		.ascii	" \000>\000\001\300\007\0008\000 \000"
  75      01C00700 
  75      38002000 
  76 0294 380007C0 		.ascii	"8\000\007\300<\000\007\3008\000\000\000"
  76      3C0007C0 
  76      38000000 
  77 02a0 204039C0 		.ascii	" @9\300\006\0009\300 @\000\000"
  77      060039C0 
  77      20400000 
  78 02ac 20003840 		.ascii	" \0008@\007\3008@ \000\000\000"
  78      07C03840 
  78      20000000 
  79 02b8 304021C0 		.ascii	"0@!\300&@8@ \300\000\000"
  79      26403840 
  79      20C00000 
  80 02c4 00000000 		.ascii	"\000\000\000\000\177\340@ @ \000\000"
  80      7FE04020 
  80      40200000 
  81 02d0 00007000 		.ascii	"\000\000p\000\014\000\003\200\000@\000\000"
  81      0C000380 
  81      00400000 
  82 02dc 00004020 		.ascii	"\000\000@ @ \177\340\000\000\000\000"
  82      40207FE0 
  82      00000000 
  83 02e8 00002000 		.ascii	"\000\000 \000@\000 \000\000\000\000\000"
  83      40002000 
  83      00000000 
  84 02f4 00100010 		.ascii	"\000\020\000\020\000\020\000\020\000\020\000\020"
  84      00100010 
  84      00100010 
  85 0300 00000000 		.ascii	"\000\000\000\000@\000\000\000\000\000\000\000"
  85      40000000 
  85      00000000 
  86 030c 00000280 		.ascii	"\000\000\002\200\005@\005@\003\300\000@"
  86      05400540 
  86      03C00040 
  87 0318 20003FC0 		.ascii	" \000?\300\004@\004@\003\200\000\000"
  87      04400440 
  87      03800000 
  88 0324 00000380 		.ascii	"\000\000\003\200\004@\004@\006@\000\000"
  88      04400440 
  88      06400000 
  89 0330 00000380 		.ascii	"\000\000\003\200\004@$@?\300\000@"
  89      04402440 
  89      3FC00040 
  90 033c 00000380 		.ascii	"\000\000\003\200\005@\005@\003@\000\000"
  90      05400540 
  90      03400000 
ARM GAS  /tmp/ccRHtd69.s 			page 5


  91 0348 00000440 		.ascii	"\000\000\004@\037\300$@$@ \000"
  91      1FC02440 
  91      24402000 
  92 0354 000002E0 		.ascii	"\000\000\002\340\005P\005P\006P\004 "
  92      05500550 
  92      06500420 
  93 0360 20403FC0 		.ascii	" @?\300\004@\004\000\003\300\000@"
  93      04400400 
  93      03C00040 
  94 036c 00000440 		.ascii	"\000\000\004@'\300\000@\000\000\000\000"
  94      27C00040 
  94      00000000 
  95 0378 00100010 		.ascii	"\000\020\000\020\004\020'\340\000\000\000\000"
  95      041027E0 
  95      00000000 
  96 0384 20403FC0 		.ascii	" @?\300\001@\007\000\004\300\004@"
  96      01400700 
  96      04C00440 
  97 0390 20402040 		.ascii	" @ @?\300\000@\000@\000\000"
  97      3FC00040 
  97      00400000 
  98 039c 07C00400 		.ascii	"\007\300\004\000\007\300\004\000\003\300\000\000"
  98      07C00400 
  98      03C00000 
  99 03a8 044007C0 		.ascii	"\004@\007\300\004@\004\000\003\300\000@"
  99      04400400 
  99      03C00040 
 100 03b4 00000380 		.ascii	"\000\000\003\200\004@\004@\003\200\000\000"
 100      04400440 
 100      03800000 
 101 03c0 041007F0 		.ascii	"\004\020\007\360\004P\004@\003\200\000\000"
 101      04500440 
 101      03800000 
 102 03cc 00000380 		.ascii	"\000\000\003\200\004@\004P\007\360\000\020"
 102      04400450 
 102      07F00010 
 103 03d8 044007C0 		.ascii	"\004@\007\300\002@\004\000\004\000\000\000"
 103      02400400 
 103      04000000 
 104 03e4 00000640 		.ascii	"\000\000\006@\005@\005@\004\300\000\000"
 104      05400540 
 104      04C00000 
 105 03f0 00000400 		.ascii	"\000\000\004\000\037\200\004@\000@\000\000"
 105      1F800440 
 105      00400000 
 106 03fc 04000780 		.ascii	"\004\000\007\200\000@\004@\007\300\000@"
 106      00400440 
 106      07C00040 
 107 0408 04000700 		.ascii	"\004\000\007\000\004\300\001\200\006\000\004\000"
 107      04C00180 
 107      06000400 
 108 0414 060001C0 		.ascii	"\006\000\001\300\007\000\001\300\006\000\000\000"
 108      070001C0 
 108      06000000 
 109 0420 044006C0 		.ascii	"\004@\006\300\001\000\006\300\004@\000\000"
 109      010006C0 
 109      04400000 
ARM GAS  /tmp/ccRHtd69.s 			page 6


 110 042c 04100710 		.ascii	"\004\020\007\020\004\340\001\200\006\000\004\000"
 110      04E00180 
 110      06000400 
 111 0438 00000440 		.ascii	"\000\000\004@\005\300\006@\004@\000\000"
 111      05C00640 
 111      04400000 
 112 0444 00000000 		.ascii	"\000\000\000\000\004\000{\340@ \000\000"
 112      04007BE0 
 112      40200000 
 113 0450 00000000 		.ascii	"\000\000\000\000\000\000\377\360\000\000\000\000"
 113      0000FFF0 
 113      00000000 
 114 045c 00004020 		.ascii	"\000\000@ {\340\004\000\000\000\000\000"
 114      7BE00400 
 114      00000000 
 115 0468 40008000 		.ascii	"@\000\200\000@\000 \000 \000@\000"
 115      40002000 
 115      20004000 
 116              		.global	asc2_1608
 117              		.section	.rodata.asc2_1608,"a"
 118              		.align	2
 121              	asc2_1608:
 122 0000 00000000 		.ascii	"\000\000\000\000\000\000\000\000\000\000\000\000\000"
 122      00000000 
 122      00000000 
 122      00
 123 000d 000000   		.ascii	"\000\000\000"
 124 0010 00000000 		.ascii	"\000\000\000\000\000\000\037\314\000\014\000\000\000"
 124      00001FCC 
 124      000C0000 
 124      00
 125 001d 000000   		.ascii	"\000\000\000"
 126 0020 00000800 		.ascii	"\000\000\010\0000\000`\000\010\0000\000`\000\000\000"
 126      30006000 
 126      08003000 
 126      60000000 
 127 0030 022003FC 		.ascii	"\002 \003\374\036 \002 \003\374\036 \002 \000\000"
 127      1E200220 
 127      03FC1E20 
 127      02200000 
 128 0040 00000E18 		.ascii	"\000\000\016\030\021\004?\377\020\204\014x\000\000\000"
 128      11043FFF 
 128      10840C78 
 128      000000
 129 004f 00       		.ascii	"\000"
 130 0050 0F001084 		.ascii	"\017\000\020\204\0178\000\300\007x\030\204\000x\000"
 130      0F3800C0 
 130      07781884 
 130      007800
 131 005f 00       		.ascii	"\000"
 132 0060 00780F84 		.ascii	"\000x\017\204\020\304\021$\016\230\000\344\000\204\000"
 132      10C41124 
 132      0E9800E4 
 132      008400
 133 006f 08       		.ascii	"\010"
 134 0070 08006800 		.ascii	"\010\000h\000p\000\000\000\000\000\000\000\000\000\000"
 134      70000000 
ARM GAS  /tmp/ccRHtd69.s 			page 7


 134      00000000 
 134      000000
 135 007f 00       		.ascii	"\000"
 136 0080 00000000 		.ascii	"\000\000\000\000\000\000\007\340\030\030 \004@\002\000"
 136      000007E0 
 136      18182004 
 136      400200
 137 008f 00       		.ascii	"\000"
 138 0090 00004002 		.ascii	"\000\000@\002 \004\030\030\007\340\000\000\000\000\000"
 138      20041818 
 138      07E00000 
 138      000000
 139 009f 00       		.ascii	"\000"
 140 00a0 02400240 		.ascii	"\002@\002@\001\200\017\360\001\200\002@\002@\000\000"
 140      01800FF0 
 140      01800240 
 140      02400000 
 141 00b0 00800080 		.ascii	"\000\200\000\200\000\200\017\370\000\200\000\200\000"
 141      00800FF8 
 141      00800080 
 141      00
 142 00bd 800000   		.ascii	"\200\000\000"
 143 00c0 0001000D 		.ascii	"\000\001\000\015\000\016\000\000\000\000\000\000\000"
 143      000E0000 
 143      00000000 
 143      00
 144 00cd 000000   		.ascii	"\000\000\000"
 145 00d0 00000080 		.ascii	"\000\000\000\200\000\200\000\200\000\200\000\200\000"
 145      00800080 
 145      00800080 
 145      00
 146 00dd 800080   		.ascii	"\200\000\200"
 147 00e0 0000000C 		.ascii	"\000\000\000\014\000\014\000\000\000\000\000\000\000"
 147      000C0000 
 147      00000000 
 147      00
 148 00ed 000000   		.ascii	"\000\000\000"
 149 00f0 00000006 		.ascii	"\000\000\000\006\000\030\000`\001\200\006\000\030\000"
 149      00180060 
 149      01800600 
 149      1800
 150 00fe 2000     		.ascii	" \000"
 151 0100 000007F0 		.ascii	"\000\000\007\360\010\010\020\004\020\004\010\010\007"
 151      08081004 
 151      10040808 
 151      07
 152 010d F00000   		.ascii	"\360\000\000"
 153 0110 00000804 		.ascii	"\000\000\010\004\010\004\037\374\000\004\000\004\000"
 153      08041FFC 
 153      00040004 
 153      00
 154 011d 000000   		.ascii	"\000\000\000"
 155 0120 00000E0C 		.ascii	"\000\000\016\014\020\024\020$\020D\021\204\016\014\000"
 155      10141024 
 155      10441184 
 155      0E0C00
 156 012f 00       		.ascii	"\000"
ARM GAS  /tmp/ccRHtd69.s 			page 8


 157 0130 00000C18 		.ascii	"\000\000\014\030\020\004\021\004\021\004\022\210\014"
 157      10041104 
 157      11041288 
 157      0C
 158 013d 700000   		.ascii	"p\000\000"
 159 0140 000000E0 		.ascii	"\000\000\000\340\003 \004$\010$\037\374\000$\000\000"
 159      03200424 
 159      08241FFC 
 159      00240000 
 160 0150 00001F98 		.ascii	"\000\000\037\230\020\204\021\004\021\004\020\210\020"
 160      10841104 
 160      11041088 
 160      10
 161 015d 700000   		.ascii	"p\000\000"
 162 0160 000007F0 		.ascii	"\000\000\007\360\010\210\021\004\021\004\030\210\000"
 162      08881104 
 162      11041888 
 162      00
 163 016d 700000   		.ascii	"p\000\000"
 164 0170 00001C00 		.ascii	"\000\000\034\000\020\000\020\374\023\000\034\000\020"
 164      100010FC 
 164      13001C00 
 164      10
 165 017d 000000   		.ascii	"\000\000\000"
 166 0180 00000E38 		.ascii	"\000\000\0168\021D\020\204\020\204\021D\0168\000\000"
 166      11441084 
 166      10841144 
 166      0E380000 
 167 0190 00000700 		.ascii	"\000\000\007\000\010\214\020D\020D\010\210\007\360\000"
 167      088C1044 
 167      10440888 
 167      07F000
 168 019f 00       		.ascii	"\000"
 169 01a0 00000000 		.ascii	"\000\000\000\000\000\000\003\014\003\014\000\000\000"
 169      0000030C 
 169      030C0000 
 169      00
 170 01ad 000000   		.ascii	"\000\000\000"
 171 01b0 00000000 		.ascii	"\000\000\000\000\000\001\001\006\000\000\000\000\000"
 171      00010106 
 171      00000000 
 171      00
 172 01bd 000000   		.ascii	"\000\000\000"
 173 01c0 00000080 		.ascii	"\000\000\000\200\001@\002 \004\020\010\010\020\004\000"
 173      01400220 
 173      04100808 
 173      100400
 174 01cf 00       		.ascii	"\000"
 175 01d0 02200220 		.ascii	"\002 \002 \002 \002 \002 \002 \002 \000\000"
 175      02200220 
 175      02200220 
 175      02200000 
 176 01e0 00001004 		.ascii	"\000\000\020\004\010\010\004\020\002 \001@\000\200\000"
 176      08080410 
 176      02200140 
 176      008000
 177 01ef 00       		.ascii	"\000"
ARM GAS  /tmp/ccRHtd69.s 			page 9


 178 01f0 00000E00 		.ascii	"\000\000\016\000\022\000\020\014\020l\020\200\017\000"
 178      1200100C 
 178      106C1080 
 178      0F00
 179 01fe 0000     		.ascii	"\000\000"
 180 0200 03E00C18 		.ascii	"\003\340\014\030\023\344\024$\027\304\010(\007\320\000"
 180      13E41424 
 180      17C40828 
 180      07D000
 181 020f 00       		.ascii	"\000"
 182 0210 0004003C 		.ascii	"\000\004\000<\003\304\034@\007@\000\344\000\034\000"
 182      03C41C40 
 182      074000E4 
 182      001C00
 183 021f 04       		.ascii	"\004"
 184 0220 10041FFC 		.ascii	"\020\004\037\374\021\004\021\004\021\004\016\210\000"
 184      11041104 
 184      11040E88 
 184      00
 185 022d 700000   		.ascii	"p\000\000"
 186 0230 03E00C18 		.ascii	"\003\340\014\030\020\004\020\004\020\004\020\010\034"
 186      10041004 
 186      10041008 
 186      1C
 187 023d 100000   		.ascii	"\020\000\000"
 188 0240 10041FFC 		.ascii	"\020\004\037\374\020\004\020\004\020\004\010\010\007"
 188      10041004 
 188      10040808 
 188      07
 189 024d F00000   		.ascii	"\360\000\000"
 190 0250 10041FFC 		.ascii	"\020\004\037\374\021\004\021\004\027\304\020\004\010"
 190      11041104 
 190      17C41004 
 190      08
 191 025d 180000   		.ascii	"\030\000\000"
 192 0260 10041FFC 		.ascii	"\020\004\037\374\021\004\021\000\027\300\020\000\010"
 192      11041100 
 192      17C01000 
 192      08
 193 026d 000000   		.ascii	"\000\000\000"
 194 0270 03E00C18 		.ascii	"\003\340\014\030\020\004\020\004\020D\034x\000@\000"
 194      10041004 
 194      10441C78 
 194      004000
 195 027f 00       		.ascii	"\000"
 196 0280 10041FFC 		.ascii	"\020\004\037\374\020\204\000\200\000\200\020\204\037"
 196      10840080 
 196      00801084 
 196      1F
 197 028d FC1004   		.ascii	"\374\020\004"
 198 0290 00001004 		.ascii	"\000\000\020\004\020\004\037\374\020\004\020\004\000"
 198      10041FFC 
 198      10041004 
 198      00
 199 029d 000000   		.ascii	"\000\000\000"
 200 02a0 00030001 		.ascii	"\000\003\000\001\020\001\020\001\037\376\020\000\020"
 200      10011001 
ARM GAS  /tmp/ccRHtd69.s 			page 10


 200      1FFE1000 
 200      10
 201 02ad 000000   		.ascii	"\000\000\000"
 202 02b0 10041FFC 		.ascii	"\020\004\037\374\021\004\003\200\024d\030\034\020\004"
 202      11040380 
 202      1464181C 
 202      1004
 203 02be 0000     		.ascii	"\000\000"
 204 02c0 10041FFC 		.ascii	"\020\004\037\374\020\004\000\004\000\004\000\004\000"
 204      10040004 
 204      00040004 
 204      00
 205 02cd 0C0000   		.ascii	"\014\000\000"
 206 02d0 10041FFC 		.ascii	"\020\004\037\374\037\000\000\374\037\000\037\374\020"
 206      1F0000FC 
 206      1F001FFC 
 206      10
 207 02dd 040000   		.ascii	"\004\000\000"
 208 02e0 10041FFC 		.ascii	"\020\004\037\374\014\004\003\000\000\340\020\030\037"
 208      0C040300 
 208      00E01018 
 208      1F
 209 02ed FC1000   		.ascii	"\374\020\000"
 210 02f0 07F00808 		.ascii	"\007\360\010\010\020\004\020\004\020\004\010\010\007"
 210      10041004 
 210      10040808 
 210      07
 211 02fd F00000   		.ascii	"\360\000\000"
 212 0300 10041FFC 		.ascii	"\020\004\037\374\020\204\020\200\020\200\020\200\017"
 212      10841080 
 212      10801080 
 212      0F
 213 030d 000000   		.ascii	"\000\000\000"
 214 0310 07F00818 		.ascii	"\007\360\010\030\020$\020$\020\034\010\012\007\362\000"
 214      10241024 
 214      101C080A 
 214      07F200
 215 031f 00       		.ascii	"\000"
 216 0320 10041FFC 		.ascii	"\020\004\037\374\021\004\021\000\021\300\0210\016\014"
 216      11041100 
 216      11C01130 
 216      0E0C
 217 032e 0004     		.ascii	"\000\004"
 218 0330 00000E1C 		.ascii	"\000\000\016\034\021\004\020\204\020\204\020D\0348\000"
 218      11041084 
 218      10841044 
 218      1C3800
 219 033f 00       		.ascii	"\000"
 220 0340 18001000 		.ascii	"\030\000\020\000\020\004\037\374\020\004\020\000\030"
 220      10041FFC 
 220      10041000 
 220      18
 221 034d 000000   		.ascii	"\000\000\000"
 222 0350 10001FF8 		.ascii	"\020\000\037\370\020\004\000\004\000\004\020\004\037"
 222      10040004 
 222      00041004 
 222      1F
ARM GAS  /tmp/ccRHtd69.s 			page 11


 223 035d F81000   		.ascii	"\370\020\000"
 224 0360 10001E00 		.ascii	"\020\000\036\000\021\340\000\034\000p\023\200\034\000"
 224      11E0001C 
 224      00701380 
 224      1C00
 225 036e 1000     		.ascii	"\020\000"
 226 0370 1FC0103C 		.ascii	"\037\300\020<\000\340\037\000\000\340\020<\037\300\000"
 226      00E01F00 
 226      00E0103C 
 226      1FC000
 227 037f 00       		.ascii	"\000"
 228 0380 1004180C 		.ascii	"\020\004\030\014\0264\001\300\001\300\0264\030\014\020"
 228      163401C0 
 228      01C01634 
 228      180C10
 229 038f 04       		.ascii	"\004"
 230 0390 10001C00 		.ascii	"\020\000\034\000\023\004\000\374\023\004\034\000\020"
 230      130400FC 
 230      13041C00 
 230      10
 231 039d 000000   		.ascii	"\000\000\000"
 232 03a0 0804101C 		.ascii	"\010\004\020\034\020d\020\204\023\004\034\004\020\030"
 232      10641084 
 232      13041C04 
 232      1018
 233 03ae 0000     		.ascii	"\000\000"
 234 03b0 00000000 		.ascii	"\000\000\000\000\000\000\177\376@\002@\002@\002\000"
 234      00007FFE 
 234      40024002 
 234      400200
 235 03bf 00       		.ascii	"\000"
 236 03c0 00003000 		.ascii	"\000\0000\000\014\000\003\200\000`\000\034\000\003\000"
 236      0C000380 
 236      0060001C 
 236      000300
 237 03cf 00       		.ascii	"\000"
 238 03d0 00004002 		.ascii	"\000\000@\002@\002@\002\177\376\000\000\000\000\000"
 238      40024002 
 238      7FFE0000 
 238      000000
 239 03df 00       		.ascii	"\000"
 240 03e0 00000000 		.ascii	"\000\000\000\000 \000@\000@\000@\000 \000\000\000"
 240      20004000 
 240      40004000 
 240      20000000 
 241 03f0 00010001 		.ascii	"\000\001\000\001\000\001\000\001\000\001\000\001\000"
 241      00010001 
 241      00010001 
 241      00
 242 03fd 010001   		.ascii	"\001\000\001"
 243 0400 00004000 		.ascii	"\000\000@\000@\000 \000\000\000\000\000\000\000\000"
 243      40002000 
 243      00000000 
 243      000000
 244 040f 00       		.ascii	"\000"
 245 0410 00000098 		.ascii	"\000\000\000\230\001$\001D\001D\001D\000\374\000\004"
 245      01240144 
ARM GAS  /tmp/ccRHtd69.s 			page 12


 245      01440144 
 245      00FC0004 
 246 0420 10001FFC 		.ascii	"\020\000\037\374\000\210\001\004\001\004\000\210\000"
 246      00880104 
 246      01040088 
 246      00
 247 042d 700000   		.ascii	"p\000\000"
 248 0430 00000070 		.ascii	"\000\000\000p\000\210\001\004\001\004\001\004\000\210"
 248      00880104 
 248      01040104 
 248      0088
 249 043e 0000     		.ascii	"\000\000"
 250 0440 00000070 		.ascii	"\000\000\000p\000\210\001\004\001\004\021\010\037\374"
 250      00880104 
 250      01041108 
 250      1FFC
 251 044e 0004     		.ascii	"\000\004"
 252 0450 000000F8 		.ascii	"\000\000\000\370\001D\001D\001D\001D\000\310\000\000"
 252      01440144 
 252      01440144 
 252      00C80000 
 253 0460 00000104 		.ascii	"\000\000\001\004\001\004\017\374\021\004\021\004\021"
 253      01040FFC 
 253      11041104 
 253      11
 254 046d 001800   		.ascii	"\000\030\000"
 255 0470 000000D6 		.ascii	"\000\000\000\326\001)\001)\001)\001\311\001\006\000"
 255      01290129 
 255      012901C9 
 255      010600
 256 047f 00       		.ascii	"\000"
 257 0480 10041FFC 		.ascii	"\020\004\037\374\000\204\001\000\001\000\001\004\000"
 257      00840100 
 257      01000104 
 257      00
 258 048d FC0004   		.ascii	"\374\000\004"
 259 0490 00000104 		.ascii	"\000\000\001\004\031\004\031\374\000\004\000\004\000"
 259      190419FC 
 259      00040004 
 259      00
 260 049d 000000   		.ascii	"\000\000\000"
 261 04a0 00000003 		.ascii	"\000\000\000\003\000\001\001\001\031\001\031\376\000"
 261      00010101 
 261      190119FE 
 261      00
 262 04ad 000000   		.ascii	"\000\000\000"
 263 04b0 10041FFC 		.ascii	"\020\004\037\374\000$\000@\001\264\001\014\001\004\000"
 263      00240040 
 263      01B4010C 
 263      010400
 264 04bf 00       		.ascii	"\000"
 265 04c0 00001004 		.ascii	"\000\000\020\004\020\004\037\374\000\004\000\004\000"
 265      10041FFC 
 265      00040004 
 265      00
 266 04cd 000000   		.ascii	"\000\000\000"
 267 04d0 010401FC 		.ascii	"\001\004\001\374\001\004\001\000\001\374\001\004\001"
ARM GAS  /tmp/ccRHtd69.s 			page 13


 267      01040100 
 267      01FC0104 
 267      01
 268 04dd 0000FC   		.ascii	"\000\000\374"
 269 04e0 010401FC 		.ascii	"\001\004\001\374\000\204\001\000\001\000\001\004\000"
 269      00840100 
 269      01000104 
 269      00
 270 04ed FC0004   		.ascii	"\374\000\004"
 271 04f0 000000F8 		.ascii	"\000\000\000\370\001\004\001\004\001\004\001\004\000"
 271      01040104 
 271      01040104 
 271      00
 272 04fd F80000   		.ascii	"\370\000\000"
 273 0500 010101FF 		.ascii	"\001\001\001\377\000\205\001\004\001\004\000\210\000"
 273      00850104 
 273      01040088 
 273      00
 274 050d 700000   		.ascii	"p\000\000"
 275 0510 00000070 		.ascii	"\000\000\000p\000\210\001\004\001\004\001\005\001\377"
 275      00880104 
 275      01040105 
 275      01FF
 276 051e 0001     		.ascii	"\000\001"
 277 0520 01040104 		.ascii	"\001\004\001\004\001\374\000\204\001\004\001\000\001"
 277      01FC0084 
 277      01040100 
 277      01
 278 052d 800000   		.ascii	"\200\000\000"
 279 0530 000000CC 		.ascii	"\000\000\000\314\001$\001$\001$\001$\001\230\000\000"
 279      01240124 
 279      01240124 
 279      01980000 
 280 0540 00000100 		.ascii	"\000\000\001\000\001\000\007\370\001\004\001\004\000"
 280      010007F8 
 280      01040104 
 280      00
 281 054d 000000   		.ascii	"\000\000\000"
 282 0550 010001F8 		.ascii	"\001\000\001\370\000\004\000\004\000\004\001\010\001"
 282      00040004 
 282      00040108 
 282      01
 283 055d FC0004   		.ascii	"\374\000\004"
 284 0560 01000180 		.ascii	"\001\000\001\200\001p\000\014\000\020\001`\001\200\001"
 284      0170000C 
 284      00100160 
 284      018001
 285 056f 00       		.ascii	"\000"
 286 0570 01F0010C 		.ascii	"\001\360\001\014\0000\001\300\0000\001\014\001\360\001"
 286      003001C0 
 286      0030010C 
 286      01F001
 287 057f 00       		.ascii	"\000"
 288 0580 00000104 		.ascii	"\000\000\001\004\001\214\000t\001p\001\214\001\004\000"
 288      018C0074 
 288      0170018C 
 288      010400
ARM GAS  /tmp/ccRHtd69.s 			page 14


 289 058f 00       		.ascii	"\000"
 290 0590 01010181 		.ascii	"\001\001\001\201\001q\000\016\000\030\001`\001\200\001"
 290      0171000E 
 290      00180160 
 290      018001
 291 059f 00       		.ascii	"\000"
 292 05a0 00000184 		.ascii	"\000\000\001\204\001\014\0014\001D\001\204\001\014\000"
 292      010C0134 
 292      01440184 
 292      010C00
 293 05af 00       		.ascii	"\000"
 294 05b0 00000000 		.ascii	"\000\000\000\000\000\000\000\000\001\000>\374@\002@"
 294      00000000 
 294      01003EFC 
 294      400240
 295 05bf 02       		.ascii	"\002"
 296 05c0 00000000 		.ascii	"\000\000\000\000\000\000\000\000\377\377\000\000\000"
 296      00000000 
 296      FFFF0000 
 296      00
 297 05cd 000000   		.ascii	"\000\000\000"
 298 05d0 00004002 		.ascii	"\000\000@\002@\002>\374\001\000\000\000\000\000\000"
 298      40023EFC 
 298      01000000 
 298      000000
 299 05df 00       		.ascii	"\000"
 300 05e0 00006000 		.ascii	"\000\000`\000\200\000\200\000@\000@\000 \000 \000"
 300      80008000 
 300      40004000 
 300      20002000 
 301              		.global	POINT_COLOR
 302              		.section	.bss.POINT_COLOR,"aw",%nobits
 303              		.align	1
 306              	POINT_COLOR:
 307 0000 0000     		.space	2
 308              		.global	BACK_COLOR
 309              		.section	.data.BACK_COLOR,"aw"
 310              		.align	1
 313              	BACK_COLOR:
 314 0000 FFFF     		.short	-1
 315              		.global	lcddev
 316              		.section	.bss.lcddev,"aw",%nobits
 317              		.align	2
 320              	lcddev:
 321 0000 00000000 		.space	14
 321      00000000 
 321      00000000 
 321      0000
 322              		.section	.text.LCD_WR_REG,"ax",%progbits
 323              		.align	1
 324              		.global	LCD_WR_REG
 325              		.arch armv7-m
 326              		.syntax unified
 327              		.thumb
 328              		.thumb_func
 329              		.fpu softvfp
 331              	LCD_WR_REG:
ARM GAS  /tmp/ccRHtd69.s 			page 15


 332              	.LFB66:
 333              		.file 1 "hardware/src/lcd.c"
   1:hardware/src/lcd.c **** #include "lcd.h"
   2:hardware/src/lcd.c **** #include "stdio.h"
   3:hardware/src/lcd.c **** #include "font.h" 
   4:hardware/src/lcd.c **** #include "delay.h"
   5:hardware/src/lcd.c **** #include "AllHead.h"	   
   6:hardware/src/lcd.c **** 				 
   7:hardware/src/lcd.c **** //LCD的画笔颜色和背景色	   
   8:hardware/src/lcd.c **** u16 POINT_COLOR=0x0000;	//画笔颜色
   9:hardware/src/lcd.c **** u16 BACK_COLOR=0xFFFF;  //背景色 
  10:hardware/src/lcd.c **** 
  11:hardware/src/lcd.c **** //管理LCD重要参数
  12:hardware/src/lcd.c **** //默认为竖屏
  13:hardware/src/lcd.c **** _lcd_dev lcddev;
  14:hardware/src/lcd.c **** 	 
  15:hardware/src/lcd.c **** //写寄存器函数
  16:hardware/src/lcd.c **** //regval:寄存器值
  17:hardware/src/lcd.c **** void LCD_WR_REG(u16 regval)
  18:hardware/src/lcd.c **** { 
 334              		.loc 1 18 1
 335              		.cfi_startproc
 336              		@ args = 0, pretend = 0, frame = 8
 337              		@ frame_needed = 1, uses_anonymous_args = 0
 338              		@ link register save eliminated.
 339 0000 80B4     		push	{r7}
 340              	.LCFI0:
 341              		.cfi_def_cfa_offset 4
 342              		.cfi_offset 7, -4
 343 0002 83B0     		sub	sp, sp, #12
 344              	.LCFI1:
 345              		.cfi_def_cfa_offset 16
 346 0004 00AF     		add	r7, sp, #0
 347              	.LCFI2:
 348              		.cfi_def_cfa_register 7
 349 0006 0346     		mov	r3, r0
 350 0008 FB80     		strh	r3, [r7, #6]	@ movhi
  19:hardware/src/lcd.c **** 	LCD->LCD_REG=regval;//写入要写的寄存器序号	 
 351              		.loc 1 19 5
 352 000a 044A     		ldr	r2, .L2
 353              		.loc 1 19 14
 354 000c FB88     		ldrh	r3, [r7, #6]	@ movhi
 355 000e 1380     		strh	r3, [r2]	@ movhi
  20:hardware/src/lcd.c **** }
 356              		.loc 1 20 1
 357 0010 00BF     		nop
 358 0012 0C37     		adds	r7, r7, #12
 359              	.LCFI3:
 360              		.cfi_def_cfa_offset 4
 361 0014 BD46     		mov	sp, r7
 362              	.LCFI4:
 363              		.cfi_def_cfa_register 13
 364              		@ sp needed
 365 0016 80BC     		pop	{r7}
 366              	.LCFI5:
 367              		.cfi_restore 7
 368              		.cfi_def_cfa_offset 0
ARM GAS  /tmp/ccRHtd69.s 			page 16


 369 0018 7047     		bx	lr
 370              	.L3:
 371 001a 00BF     		.align	2
 372              	.L2:
 373 001c FE07006C 		.word	1811941374
 374              		.cfi_endproc
 375              	.LFE66:
 377              		.section	.text.LCD_WR_DATA,"ax",%progbits
 378              		.align	1
 379              		.global	LCD_WR_DATA
 380              		.syntax unified
 381              		.thumb
 382              		.thumb_func
 383              		.fpu softvfp
 385              	LCD_WR_DATA:
 386              	.LFB67:
  21:hardware/src/lcd.c **** //写LCD数据
  22:hardware/src/lcd.c **** //data:要写入的值
  23:hardware/src/lcd.c **** void LCD_WR_DATA(u16 data)
  24:hardware/src/lcd.c **** {										    	   
 387              		.loc 1 24 1
 388              		.cfi_startproc
 389              		@ args = 0, pretend = 0, frame = 8
 390              		@ frame_needed = 1, uses_anonymous_args = 0
 391              		@ link register save eliminated.
 392 0000 80B4     		push	{r7}
 393              	.LCFI6:
 394              		.cfi_def_cfa_offset 4
 395              		.cfi_offset 7, -4
 396 0002 83B0     		sub	sp, sp, #12
 397              	.LCFI7:
 398              		.cfi_def_cfa_offset 16
 399 0004 00AF     		add	r7, sp, #0
 400              	.LCFI8:
 401              		.cfi_def_cfa_register 7
 402 0006 0346     		mov	r3, r0
 403 0008 FB80     		strh	r3, [r7, #6]	@ movhi
  25:hardware/src/lcd.c **** 	LCD->LCD_RAM=data;		 
 404              		.loc 1 25 5
 405 000a 044A     		ldr	r2, .L5
 406              		.loc 1 25 14
 407 000c FB88     		ldrh	r3, [r7, #6]	@ movhi
 408 000e 5380     		strh	r3, [r2, #2]	@ movhi
  26:hardware/src/lcd.c **** }
 409              		.loc 1 26 1
 410 0010 00BF     		nop
 411 0012 0C37     		adds	r7, r7, #12
 412              	.LCFI9:
 413              		.cfi_def_cfa_offset 4
 414 0014 BD46     		mov	sp, r7
 415              	.LCFI10:
 416              		.cfi_def_cfa_register 13
 417              		@ sp needed
 418 0016 80BC     		pop	{r7}
 419              	.LCFI11:
 420              		.cfi_restore 7
 421              		.cfi_def_cfa_offset 0
ARM GAS  /tmp/ccRHtd69.s 			page 17


 422 0018 7047     		bx	lr
 423              	.L6:
 424 001a 00BF     		.align	2
 425              	.L5:
 426 001c FE07006C 		.word	1811941374
 427              		.cfi_endproc
 428              	.LFE67:
 430              		.section	.text.LCD_RD_DATA,"ax",%progbits
 431              		.align	1
 432              		.global	LCD_RD_DATA
 433              		.syntax unified
 434              		.thumb
 435              		.thumb_func
 436              		.fpu softvfp
 438              	LCD_RD_DATA:
 439              	.LFB68:
  27:hardware/src/lcd.c **** //读LCD数据
  28:hardware/src/lcd.c **** //返回值:读到的值
  29:hardware/src/lcd.c **** u16 LCD_RD_DATA(void)
  30:hardware/src/lcd.c **** {										    	   
 440              		.loc 1 30 1
 441              		.cfi_startproc
 442              		@ args = 0, pretend = 0, frame = 0
 443              		@ frame_needed = 1, uses_anonymous_args = 0
 444              		@ link register save eliminated.
 445 0000 80B4     		push	{r7}
 446              	.LCFI12:
 447              		.cfi_def_cfa_offset 4
 448              		.cfi_offset 7, -4
 449 0002 00AF     		add	r7, sp, #0
 450              	.LCFI13:
 451              		.cfi_def_cfa_register 7
  31:hardware/src/lcd.c **** 	return LCD->LCD_RAM;		 
 452              		.loc 1 31 12
 453 0004 024B     		ldr	r3, .L9
 454 0006 5B88     		ldrh	r3, [r3, #2]
  32:hardware/src/lcd.c **** }					   
 455              		.loc 1 32 1
 456 0008 1846     		mov	r0, r3
 457 000a BD46     		mov	sp, r7
 458              	.LCFI14:
 459              		.cfi_def_cfa_register 13
 460              		@ sp needed
 461 000c 80BC     		pop	{r7}
 462              	.LCFI15:
 463              		.cfi_restore 7
 464              		.cfi_def_cfa_offset 0
 465 000e 7047     		bx	lr
 466              	.L10:
 467              		.align	2
 468              	.L9:
 469 0010 FE07006C 		.word	1811941374
 470              		.cfi_endproc
 471              	.LFE68:
 473              		.section	.text.LCD_WriteReg,"ax",%progbits
 474              		.align	1
 475              		.global	LCD_WriteReg
ARM GAS  /tmp/ccRHtd69.s 			page 18


 476              		.syntax unified
 477              		.thumb
 478              		.thumb_func
 479              		.fpu softvfp
 481              	LCD_WriteReg:
 482              	.LFB69:
  33:hardware/src/lcd.c **** //写寄存器
  34:hardware/src/lcd.c **** //LCD_Reg:寄存器地址
  35:hardware/src/lcd.c **** //LCD_RegValue:要写入的数据
  36:hardware/src/lcd.c **** void LCD_WriteReg(u16 LCD_Reg, u16 LCD_RegValue)
  37:hardware/src/lcd.c **** {	
 483              		.loc 1 37 1
 484              		.cfi_startproc
 485              		@ args = 0, pretend = 0, frame = 8
 486              		@ frame_needed = 1, uses_anonymous_args = 0
 487              		@ link register save eliminated.
 488 0000 80B4     		push	{r7}
 489              	.LCFI16:
 490              		.cfi_def_cfa_offset 4
 491              		.cfi_offset 7, -4
 492 0002 83B0     		sub	sp, sp, #12
 493              	.LCFI17:
 494              		.cfi_def_cfa_offset 16
 495 0004 00AF     		add	r7, sp, #0
 496              	.LCFI18:
 497              		.cfi_def_cfa_register 7
 498 0006 0346     		mov	r3, r0
 499 0008 0A46     		mov	r2, r1
 500 000a FB80     		strh	r3, [r7, #6]	@ movhi
 501 000c 1346     		mov	r3, r2	@ movhi
 502 000e BB80     		strh	r3, [r7, #4]	@ movhi
  38:hardware/src/lcd.c **** 	LCD->LCD_REG = LCD_Reg;		//写入要写的寄存器序号	 
 503              		.loc 1 38 5
 504 0010 054A     		ldr	r2, .L12
 505              		.loc 1 38 15
 506 0012 FB88     		ldrh	r3, [r7, #6]	@ movhi
 507 0014 1380     		strh	r3, [r2]	@ movhi
  39:hardware/src/lcd.c **** 	LCD->LCD_RAM = LCD_RegValue;//写入数据	    		 
 508              		.loc 1 39 5
 509 0016 044A     		ldr	r2, .L12
 510              		.loc 1 39 15
 511 0018 BB88     		ldrh	r3, [r7, #4]	@ movhi
 512 001a 5380     		strh	r3, [r2, #2]	@ movhi
  40:hardware/src/lcd.c **** }	   
 513              		.loc 1 40 1
 514 001c 00BF     		nop
 515 001e 0C37     		adds	r7, r7, #12
 516              	.LCFI19:
 517              		.cfi_def_cfa_offset 4
 518 0020 BD46     		mov	sp, r7
 519              	.LCFI20:
 520              		.cfi_def_cfa_register 13
 521              		@ sp needed
 522 0022 80BC     		pop	{r7}
 523              	.LCFI21:
 524              		.cfi_restore 7
 525              		.cfi_def_cfa_offset 0
ARM GAS  /tmp/ccRHtd69.s 			page 19


 526 0024 7047     		bx	lr
 527              	.L13:
 528 0026 00BF     		.align	2
 529              	.L12:
 530 0028 FE07006C 		.word	1811941374
 531              		.cfi_endproc
 532              	.LFE69:
 534              		.section	.text.LCD_ReadReg,"ax",%progbits
 535              		.align	1
 536              		.global	LCD_ReadReg
 537              		.syntax unified
 538              		.thumb
 539              		.thumb_func
 540              		.fpu softvfp
 542              	LCD_ReadReg:
 543              	.LFB70:
  41:hardware/src/lcd.c **** //读寄存器
  42:hardware/src/lcd.c **** //LCD_Reg:寄存器地址
  43:hardware/src/lcd.c **** //返回值:读到的数据
  44:hardware/src/lcd.c **** u16 LCD_ReadReg(u16 LCD_Reg)
  45:hardware/src/lcd.c **** {										   
 544              		.loc 1 45 1
 545              		.cfi_startproc
 546              		@ args = 0, pretend = 0, frame = 8
 547              		@ frame_needed = 1, uses_anonymous_args = 0
 548 0000 80B5     		push	{r7, lr}
 549              	.LCFI22:
 550              		.cfi_def_cfa_offset 8
 551              		.cfi_offset 7, -8
 552              		.cfi_offset 14, -4
 553 0002 82B0     		sub	sp, sp, #8
 554              	.LCFI23:
 555              		.cfi_def_cfa_offset 16
 556 0004 00AF     		add	r7, sp, #0
 557              	.LCFI24:
 558              		.cfi_def_cfa_register 7
 559 0006 0346     		mov	r3, r0
 560 0008 FB80     		strh	r3, [r7, #6]	@ movhi
  46:hardware/src/lcd.c **** 	LCD_WR_REG(LCD_Reg);		//写入要读的寄存器序号
 561              		.loc 1 46 2
 562 000a FB88     		ldrh	r3, [r7, #6]
 563 000c 1846     		mov	r0, r3
 564 000e FFF7FEFF 		bl	LCD_WR_REG
  47:hardware/src/lcd.c **** 	delay_us(5);		  
 565              		.loc 1 47 2
 566 0012 0520     		movs	r0, #5
 567 0014 FFF7FEFF 		bl	delay_us
  48:hardware/src/lcd.c **** 	return LCD_RD_DATA();		//返回读到的值
 568              		.loc 1 48 9
 569 0018 FFF7FEFF 		bl	LCD_RD_DATA
 570 001c 0346     		mov	r3, r0
  49:hardware/src/lcd.c **** }   
 571              		.loc 1 49 1
 572 001e 1846     		mov	r0, r3
 573 0020 0837     		adds	r7, r7, #8
 574              	.LCFI25:
 575              		.cfi_def_cfa_offset 8
ARM GAS  /tmp/ccRHtd69.s 			page 20


 576 0022 BD46     		mov	sp, r7
 577              	.LCFI26:
 578              		.cfi_def_cfa_register 13
 579              		@ sp needed
 580 0024 80BD     		pop	{r7, pc}
 581              		.cfi_endproc
 582              	.LFE70:
 584              		.section	.text.LCD_WriteRAM_Prepare,"ax",%progbits
 585              		.align	1
 586              		.global	LCD_WriteRAM_Prepare
 587              		.syntax unified
 588              		.thumb
 589              		.thumb_func
 590              		.fpu softvfp
 592              	LCD_WriteRAM_Prepare:
 593              	.LFB71:
  50:hardware/src/lcd.c **** //开始写GRAM
  51:hardware/src/lcd.c **** void LCD_WriteRAM_Prepare(void)
  52:hardware/src/lcd.c **** {
 594              		.loc 1 52 1
 595              		.cfi_startproc
 596              		@ args = 0, pretend = 0, frame = 0
 597              		@ frame_needed = 1, uses_anonymous_args = 0
 598              		@ link register save eliminated.
 599 0000 80B4     		push	{r7}
 600              	.LCFI27:
 601              		.cfi_def_cfa_offset 4
 602              		.cfi_offset 7, -4
 603 0002 00AF     		add	r7, sp, #0
 604              	.LCFI28:
 605              		.cfi_def_cfa_register 7
  53:hardware/src/lcd.c ****  	LCD->LCD_REG=lcddev.wramcmd;	  
 606              		.loc 1 53 6
 607 0004 034B     		ldr	r3, .L17
 608              		.loc 1 53 22
 609 0006 044A     		ldr	r2, .L17+4
 610 0008 1289     		ldrh	r2, [r2, #8]
 611              		.loc 1 53 15
 612 000a 1A80     		strh	r2, [r3]	@ movhi
  54:hardware/src/lcd.c **** }	 
 613              		.loc 1 54 1
 614 000c 00BF     		nop
 615 000e BD46     		mov	sp, r7
 616              	.LCFI29:
 617              		.cfi_def_cfa_register 13
 618              		@ sp needed
 619 0010 80BC     		pop	{r7}
 620              	.LCFI30:
 621              		.cfi_restore 7
 622              		.cfi_def_cfa_offset 0
 623 0012 7047     		bx	lr
 624              	.L18:
 625              		.align	2
 626              	.L17:
 627 0014 FE07006C 		.word	1811941374
 628 0018 00000000 		.word	lcddev
 629              		.cfi_endproc
ARM GAS  /tmp/ccRHtd69.s 			page 21


 630              	.LFE71:
 632              		.section	.text.LCD_WriteRAM,"ax",%progbits
 633              		.align	1
 634              		.global	LCD_WriteRAM
 635              		.syntax unified
 636              		.thumb
 637              		.thumb_func
 638              		.fpu softvfp
 640              	LCD_WriteRAM:
 641              	.LFB72:
  55:hardware/src/lcd.c **** //LCD写GRAM
  56:hardware/src/lcd.c **** //RGB_Code:颜色值
  57:hardware/src/lcd.c **** void LCD_WriteRAM(u16 RGB_Code)
  58:hardware/src/lcd.c **** {							    
 642              		.loc 1 58 1
 643              		.cfi_startproc
 644              		@ args = 0, pretend = 0, frame = 8
 645              		@ frame_needed = 1, uses_anonymous_args = 0
 646              		@ link register save eliminated.
 647 0000 80B4     		push	{r7}
 648              	.LCFI31:
 649              		.cfi_def_cfa_offset 4
 650              		.cfi_offset 7, -4
 651 0002 83B0     		sub	sp, sp, #12
 652              	.LCFI32:
 653              		.cfi_def_cfa_offset 16
 654 0004 00AF     		add	r7, sp, #0
 655              	.LCFI33:
 656              		.cfi_def_cfa_register 7
 657 0006 0346     		mov	r3, r0
 658 0008 FB80     		strh	r3, [r7, #6]	@ movhi
  59:hardware/src/lcd.c **** 	LCD->LCD_RAM = RGB_Code;//写十六位GRAM
 659              		.loc 1 59 5
 660 000a 044A     		ldr	r2, .L20
 661              		.loc 1 59 15
 662 000c FB88     		ldrh	r3, [r7, #6]	@ movhi
 663 000e 5380     		strh	r3, [r2, #2]	@ movhi
  60:hardware/src/lcd.c **** }
 664              		.loc 1 60 1
 665 0010 00BF     		nop
 666 0012 0C37     		adds	r7, r7, #12
 667              	.LCFI34:
 668              		.cfi_def_cfa_offset 4
 669 0014 BD46     		mov	sp, r7
 670              	.LCFI35:
 671              		.cfi_def_cfa_register 13
 672              		@ sp needed
 673 0016 80BC     		pop	{r7}
 674              	.LCFI36:
 675              		.cfi_restore 7
 676              		.cfi_def_cfa_offset 0
 677 0018 7047     		bx	lr
 678              	.L21:
 679 001a 00BF     		.align	2
 680              	.L20:
 681 001c FE07006C 		.word	1811941374
 682              		.cfi_endproc
ARM GAS  /tmp/ccRHtd69.s 			page 22


 683              	.LFE72:
 685              		.section	.text.LCD_BGR2RGB,"ax",%progbits
 686              		.align	1
 687              		.global	LCD_BGR2RGB
 688              		.syntax unified
 689              		.thumb
 690              		.thumb_func
 691              		.fpu softvfp
 693              	LCD_BGR2RGB:
 694              	.LFB73:
  61:hardware/src/lcd.c **** //从ILI93xx读出的数据为GBR格式，而我们写入的时候为RGB格式。
  62:hardware/src/lcd.c **** //通过该函数转换
  63:hardware/src/lcd.c **** //c:GBR格式的颜色值
  64:hardware/src/lcd.c **** //返回值：RGB格式的颜色值
  65:hardware/src/lcd.c **** u16 LCD_BGR2RGB(u16 c)
  66:hardware/src/lcd.c **** {
 695              		.loc 1 66 1
 696              		.cfi_startproc
 697              		@ args = 0, pretend = 0, frame = 16
 698              		@ frame_needed = 1, uses_anonymous_args = 0
 699              		@ link register save eliminated.
 700 0000 80B4     		push	{r7}
 701              	.LCFI37:
 702              		.cfi_def_cfa_offset 4
 703              		.cfi_offset 7, -4
 704 0002 85B0     		sub	sp, sp, #20
 705              	.LCFI38:
 706              		.cfi_def_cfa_offset 24
 707 0004 00AF     		add	r7, sp, #0
 708              	.LCFI39:
 709              		.cfi_def_cfa_register 7
 710 0006 0346     		mov	r3, r0
 711 0008 FB80     		strh	r3, [r7, #6]	@ movhi
  67:hardware/src/lcd.c **** 	u16  r,g,b,rgb;   
  68:hardware/src/lcd.c **** 	b=(c>>0)&0x1f;
 712              		.loc 1 68 3
 713 000a FB88     		ldrh	r3, [r7, #6]	@ movhi
 714 000c 03F01F03 		and	r3, r3, #31
 715 0010 FB81     		strh	r3, [r7, #14]	@ movhi
  69:hardware/src/lcd.c **** 	g=(c>>5)&0x3f;
 716              		.loc 1 69 10
 717 0012 FB88     		ldrh	r3, [r7, #6]
 718 0014 5B09     		lsrs	r3, r3, #5
 719 0016 9BB2     		uxth	r3, r3
 720              		.loc 1 69 3
 721 0018 03F03F03 		and	r3, r3, #63
 722 001c BB81     		strh	r3, [r7, #12]	@ movhi
  70:hardware/src/lcd.c **** 	r=(c>>11)&0x1f;	 
 723              		.loc 1 70 3
 724 001e FB88     		ldrh	r3, [r7, #6]
 725 0020 DB0A     		lsrs	r3, r3, #11
 726 0022 7B81     		strh	r3, [r7, #10]	@ movhi
  71:hardware/src/lcd.c **** 	rgb=(b<<11)+(g<<5)+(r<<0);		 
 727              		.loc 1 71 8
 728 0024 FB89     		ldrh	r3, [r7, #14]	@ movhi
 729 0026 DB02     		lsls	r3, r3, #11
 730 0028 9AB2     		uxth	r2, r3
ARM GAS  /tmp/ccRHtd69.s 			page 23


 731              		.loc 1 71 16
 732 002a BB89     		ldrh	r3, [r7, #12]	@ movhi
 733 002c 5B01     		lsls	r3, r3, #5
 734 002e 9BB2     		uxth	r3, r3
 735              		.loc 1 71 13
 736 0030 1344     		add	r3, r3, r2
 737 0032 9AB2     		uxth	r2, r3
 738              		.loc 1 71 5
 739 0034 7B89     		ldrh	r3, [r7, #10]	@ movhi
 740 0036 1344     		add	r3, r3, r2
 741 0038 3B81     		strh	r3, [r7, #8]	@ movhi
  72:hardware/src/lcd.c **** 	return(rgb);
 742              		.loc 1 72 8
 743 003a 3B89     		ldrh	r3, [r7, #8]
  73:hardware/src/lcd.c **** } 
 744              		.loc 1 73 1
 745 003c 1846     		mov	r0, r3
 746 003e 1437     		adds	r7, r7, #20
 747              	.LCFI40:
 748              		.cfi_def_cfa_offset 4
 749 0040 BD46     		mov	sp, r7
 750              	.LCFI41:
 751              		.cfi_def_cfa_register 13
 752              		@ sp needed
 753 0042 80BC     		pop	{r7}
 754              	.LCFI42:
 755              		.cfi_restore 7
 756              		.cfi_def_cfa_offset 0
 757 0044 7047     		bx	lr
 758              		.cfi_endproc
 759              	.LFE73:
 761              		.section	.text.opt_delay,"ax",%progbits
 762              		.align	1
 763              		.global	opt_delay
 764              		.syntax unified
 765              		.thumb
 766              		.thumb_func
 767              		.fpu softvfp
 769              	opt_delay:
 770              	.LFB74:
  74:hardware/src/lcd.c **** //当mdk -O1时间优化时需要设置
  75:hardware/src/lcd.c **** //延时i
  76:hardware/src/lcd.c **** void opt_delay(u8 i)
  77:hardware/src/lcd.c **** {
 771              		.loc 1 77 1
 772              		.cfi_startproc
 773              		@ args = 0, pretend = 0, frame = 8
 774              		@ frame_needed = 1, uses_anonymous_args = 0
 775              		@ link register save eliminated.
 776 0000 80B4     		push	{r7}
 777              	.LCFI43:
 778              		.cfi_def_cfa_offset 4
 779              		.cfi_offset 7, -4
 780 0002 83B0     		sub	sp, sp, #12
 781              	.LCFI44:
 782              		.cfi_def_cfa_offset 16
 783 0004 00AF     		add	r7, sp, #0
ARM GAS  /tmp/ccRHtd69.s 			page 24


 784              	.LCFI45:
 785              		.cfi_def_cfa_register 7
 786 0006 0346     		mov	r3, r0
 787 0008 FB71     		strb	r3, [r7, #7]
  78:hardware/src/lcd.c **** 	while(i--);
 788              		.loc 1 78 7
 789 000a 00BF     		nop
 790              	.L25:
 791              		.loc 1 78 9 discriminator 1
 792 000c FB79     		ldrb	r3, [r7, #7]	@ zero_extendqisi2
 793 000e 5A1E     		subs	r2, r3, #1
 794 0010 FA71     		strb	r2, [r7, #7]
 795              		.loc 1 78 7 discriminator 1
 796 0012 002B     		cmp	r3, #0
 797 0014 FAD1     		bne	.L25
  79:hardware/src/lcd.c **** }
 798              		.loc 1 79 1
 799 0016 00BF     		nop
 800 0018 00BF     		nop
 801 001a 0C37     		adds	r7, r7, #12
 802              	.LCFI46:
 803              		.cfi_def_cfa_offset 4
 804 001c BD46     		mov	sp, r7
 805              	.LCFI47:
 806              		.cfi_def_cfa_register 13
 807              		@ sp needed
 808 001e 80BC     		pop	{r7}
 809              	.LCFI48:
 810              		.cfi_restore 7
 811              		.cfi_def_cfa_offset 0
 812 0020 7047     		bx	lr
 813              		.cfi_endproc
 814              	.LFE74:
 816              		.section	.text.LCD_ReadPoint,"ax",%progbits
 817              		.align	1
 818              		.global	LCD_ReadPoint
 819              		.syntax unified
 820              		.thumb
 821              		.thumb_func
 822              		.fpu softvfp
 824              	LCD_ReadPoint:
 825              	.LFB75:
  80:hardware/src/lcd.c **** //读取个某点的颜色值	 
  81:hardware/src/lcd.c **** //x,y:坐标
  82:hardware/src/lcd.c **** //返回值:此点的颜色
  83:hardware/src/lcd.c **** u16 LCD_ReadPoint(u16 x,u16 y)
  84:hardware/src/lcd.c **** {
 826              		.loc 1 84 1
 827              		.cfi_startproc
 828              		@ args = 0, pretend = 0, frame = 16
 829              		@ frame_needed = 1, uses_anonymous_args = 0
 830 0000 80B5     		push	{r7, lr}
 831              	.LCFI49:
 832              		.cfi_def_cfa_offset 8
 833              		.cfi_offset 7, -8
 834              		.cfi_offset 14, -4
 835 0002 84B0     		sub	sp, sp, #16
ARM GAS  /tmp/ccRHtd69.s 			page 25


 836              	.LCFI50:
 837              		.cfi_def_cfa_offset 24
 838 0004 00AF     		add	r7, sp, #0
 839              	.LCFI51:
 840              		.cfi_def_cfa_register 7
 841 0006 0346     		mov	r3, r0
 842 0008 0A46     		mov	r2, r1
 843 000a FB80     		strh	r3, [r7, #6]	@ movhi
 844 000c 1346     		mov	r3, r2	@ movhi
 845 000e BB80     		strh	r3, [r7, #4]	@ movhi
  85:hardware/src/lcd.c ****  	u16 r=0,g=0,b=0;
 846              		.loc 1 85 7
 847 0010 0023     		movs	r3, #0
 848 0012 FB81     		strh	r3, [r7, #14]	@ movhi
 849              		.loc 1 85 11
 850 0014 0023     		movs	r3, #0
 851 0016 BB81     		strh	r3, [r7, #12]	@ movhi
 852              		.loc 1 85 15
 853 0018 0023     		movs	r3, #0
 854 001a 7B81     		strh	r3, [r7, #10]	@ movhi
  86:hardware/src/lcd.c **** 	if(x>=lcddev.width||y>=lcddev.height)return 0;	//超过了范围,直接返回		   
 855              		.loc 1 86 14
 856 001c 604B     		ldr	r3, .L43
 857 001e 1B88     		ldrh	r3, [r3]
 858              		.loc 1 86 4
 859 0020 FA88     		ldrh	r2, [r7, #6]
 860 0022 9A42     		cmp	r2, r3
 861 0024 04D2     		bcs	.L27
 862              		.loc 1 86 31 discriminator 2
 863 0026 5E4B     		ldr	r3, .L43
 864 0028 5B88     		ldrh	r3, [r3, #2]
 865              		.loc 1 86 20 discriminator 2
 866 002a BA88     		ldrh	r2, [r7, #4]
 867 002c 9A42     		cmp	r2, r3
 868 002e 01D3     		bcc	.L28
 869              	.L27:
 870              		.loc 1 86 46 discriminator 3
 871 0030 0023     		movs	r3, #0
 872 0032 B1E0     		b	.L29
 873              	.L28:
  87:hardware/src/lcd.c **** 	LCD_SetCursor(x,y);	    
 874              		.loc 1 87 2
 875 0034 BA88     		ldrh	r2, [r7, #4]
 876 0036 FB88     		ldrh	r3, [r7, #6]
 877 0038 1146     		mov	r1, r2
 878 003a 1846     		mov	r0, r3
 879 003c FFF7FEFF 		bl	LCD_SetCursor
  88:hardware/src/lcd.c **** 	if(lcddev.id==0X9341||lcddev.id==0X6804||lcddev.id==0X5310)LCD_WR_REG(0X2E);//9341/6804/3510 发送
 880              		.loc 1 88 11
 881 0040 574B     		ldr	r3, .L43
 882 0042 9B88     		ldrh	r3, [r3, #4]
 883              		.loc 1 88 4
 884 0044 49F24132 		movw	r2, #37697
 885 0048 9342     		cmp	r3, r2
 886 004a 0BD0     		beq	.L30
 887              		.loc 1 88 30 discriminator 2
 888 004c 544B     		ldr	r3, .L43
ARM GAS  /tmp/ccRHtd69.s 			page 26


 889 004e 9B88     		ldrh	r3, [r3, #4]
 890              		.loc 1 88 22 discriminator 2
 891 0050 46F60402 		movw	r2, #26628
 892 0054 9342     		cmp	r3, r2
 893 0056 05D0     		beq	.L30
 894              		.loc 1 88 49 discriminator 4
 895 0058 514B     		ldr	r3, .L43
 896 005a 9B88     		ldrh	r3, [r3, #4]
 897              		.loc 1 88 41 discriminator 4
 898 005c 45F21032 		movw	r2, #21264
 899 0060 9342     		cmp	r3, r2
 900 0062 03D1     		bne	.L31
 901              	.L30:
 902              		.loc 1 88 61 discriminator 5
 903 0064 2E20     		movs	r0, #46
 904 0066 FFF7FEFF 		bl	LCD_WR_REG
 905 006a 0DE0     		b	.L32
 906              	.L31:
  89:hardware/src/lcd.c **** 	else if(lcddev.id==0X5510)LCD_WR_REG(0X2E00);	//5510 发送读GRAM指令
 907              		.loc 1 89 16
 908 006c 4C4B     		ldr	r3, .L43
 909 006e 9B88     		ldrh	r3, [r3, #4]
 910              		.loc 1 89 9
 911 0070 45F21052 		movw	r2, #21776
 912 0074 9342     		cmp	r3, r2
 913 0076 04D1     		bne	.L33
 914              		.loc 1 89 28 discriminator 1
 915 0078 4FF43850 		mov	r0, #11776
 916 007c FFF7FEFF 		bl	LCD_WR_REG
 917 0080 02E0     		b	.L32
 918              	.L33:
  90:hardware/src/lcd.c **** 	else LCD_WR_REG(R34);      		 				//其他IC发送读GRAM指令
 919              		.loc 1 90 7
 920 0082 2220     		movs	r0, #34
 921 0084 FFF7FEFF 		bl	LCD_WR_REG
 922              	.L32:
  91:hardware/src/lcd.c ****  	if(lcddev.id==0X9320)opt_delay(2);				//FOR 9320,延时2us	    
 923              		.loc 1 91 12
 924 0088 454B     		ldr	r3, .L43
 925 008a 9B88     		ldrh	r3, [r3, #4]
 926              		.loc 1 91 5
 927 008c 49F22032 		movw	r2, #37664
 928 0090 9342     		cmp	r3, r2
 929 0092 02D1     		bne	.L34
 930              		.loc 1 91 24 discriminator 1
 931 0094 0220     		movs	r0, #2
 932 0096 FFF7FEFF 		bl	opt_delay
 933              	.L34:
  92:hardware/src/lcd.c **** 	if(LCD->LCD_RAM)r=0;							//dummy Read	   
 934              		.loc 1 92 8
 935 009a 424B     		ldr	r3, .L43+4
 936 009c 5B88     		ldrh	r3, [r3, #2]
 937              		.loc 1 92 4
 938 009e 002B     		cmp	r3, #0
 939 00a0 01D0     		beq	.L35
 940              		.loc 1 92 19 discriminator 1
 941 00a2 0023     		movs	r3, #0
ARM GAS  /tmp/ccRHtd69.s 			page 27


 942 00a4 FB81     		strh	r3, [r7, #14]	@ movhi
 943              	.L35:
  93:hardware/src/lcd.c **** 	opt_delay(2);	  
 944              		.loc 1 93 2
 945 00a6 0220     		movs	r0, #2
 946 00a8 FFF7FEFF 		bl	opt_delay
  94:hardware/src/lcd.c ****  	r=LCD->LCD_RAM;  		  						//实际坐标颜色
 947              		.loc 1 94 8
 948 00ac 3D4B     		ldr	r3, .L43+4
 949              		.loc 1 94 4
 950 00ae 5B88     		ldrh	r3, [r3, #2]	@ movhi
 951 00b0 FB81     		strh	r3, [r7, #14]	@ movhi
  95:hardware/src/lcd.c ****  	if(lcddev.id==0X9341||lcddev.id==0X5310||lcddev.id==0X5510)		//9341/NT35310/NT35510要分2次读出
 952              		.loc 1 95 12
 953 00b2 3B4B     		ldr	r3, .L43
 954 00b4 9B88     		ldrh	r3, [r3, #4]
 955              		.loc 1 95 5
 956 00b6 49F24132 		movw	r2, #37697
 957 00ba 9342     		cmp	r3, r2
 958 00bc 0BD0     		beq	.L36
 959              		.loc 1 95 31 discriminator 1
 960 00be 384B     		ldr	r3, .L43
 961 00c0 9B88     		ldrh	r3, [r3, #4]
 962              		.loc 1 95 23 discriminator 1
 963 00c2 45F21032 		movw	r2, #21264
 964 00c6 9342     		cmp	r3, r2
 965 00c8 05D0     		beq	.L36
 966              		.loc 1 95 50 discriminator 2
 967 00ca 354B     		ldr	r3, .L43
 968 00cc 9B88     		ldrh	r3, [r3, #4]
 969              		.loc 1 95 42 discriminator 2
 970 00ce 45F21052 		movw	r2, #21776
 971 00d2 9342     		cmp	r3, r2
 972 00d4 0CD1     		bne	.L37
 973              	.L36:
  96:hardware/src/lcd.c ****  	{
  97:hardware/src/lcd.c **** 		opt_delay(2);	  
 974              		.loc 1 97 3
 975 00d6 0220     		movs	r0, #2
 976 00d8 FFF7FEFF 		bl	opt_delay
  98:hardware/src/lcd.c **** 		b=LCD->LCD_RAM; 
 977              		.loc 1 98 8
 978 00dc 314B     		ldr	r3, .L43+4
 979              		.loc 1 98 4
 980 00de 5B88     		ldrh	r3, [r3, #2]	@ movhi
 981 00e0 7B81     		strh	r3, [r7, #10]	@ movhi
  99:hardware/src/lcd.c **** 		g=r&0XFF;		//对于9341/5310/5510,第一次读取的是RG的值,R在前,G在后,各占8位
 982              		.loc 1 99 4
 983 00e2 FB89     		ldrh	r3, [r7, #14]	@ movhi
 984 00e4 DBB2     		uxtb	r3, r3
 985 00e6 BB81     		strh	r3, [r7, #12]	@ movhi
 100:hardware/src/lcd.c **** 		g<<=8;
 986              		.loc 1 100 4
 987 00e8 BB89     		ldrh	r3, [r7, #12]	@ movhi
 988 00ea 1B02     		lsls	r3, r3, #8
 989 00ec BB81     		strh	r3, [r7, #12]	@ movhi
 990 00ee 08E0     		b	.L38
ARM GAS  /tmp/ccRHtd69.s 			page 28


 991              	.L37:
 101:hardware/src/lcd.c **** 	}else if(lcddev.id==0X6804)r=LCD->LCD_RAM;		//6804第二次读取的才是真实值 
 992              		.loc 1 101 17
 993 00f0 2B4B     		ldr	r3, .L43
 994 00f2 9B88     		ldrh	r3, [r3, #4]
 995              		.loc 1 101 10
 996 00f4 46F60402 		movw	r2, #26628
 997 00f8 9342     		cmp	r3, r2
 998 00fa 02D1     		bne	.L38
 999              		.loc 1 101 34 discriminator 1
 1000 00fc 294B     		ldr	r3, .L43+4
 1001              		.loc 1 101 30 discriminator 1
 1002 00fe 5B88     		ldrh	r3, [r3, #2]	@ movhi
 1003 0100 FB81     		strh	r3, [r7, #14]	@ movhi
 1004              	.L38:
 102:hardware/src/lcd.c **** 	if(lcddev.id==0X9325||lcddev.id==0X4535||lcddev.id==0X4531||lcddev.id==0X8989||lcddev.id==0XB505)r
 1005              		.loc 1 102 11
 1006 0102 274B     		ldr	r3, .L43
 1007 0104 9B88     		ldrh	r3, [r3, #4]
 1008              		.loc 1 102 4
 1009 0106 49F22532 		movw	r2, #37669
 1010 010a 9342     		cmp	r3, r2
 1011 010c 17D0     		beq	.L39
 1012              		.loc 1 102 30 discriminator 2
 1013 010e 244B     		ldr	r3, .L43
 1014 0110 9B88     		ldrh	r3, [r3, #4]
 1015              		.loc 1 102 22 discriminator 2
 1016 0112 44F23552 		movw	r2, #17717
 1017 0116 9342     		cmp	r3, r2
 1018 0118 11D0     		beq	.L39
 1019              		.loc 1 102 49 discriminator 4
 1020 011a 214B     		ldr	r3, .L43
 1021 011c 9B88     		ldrh	r3, [r3, #4]
 1022              		.loc 1 102 41 discriminator 4
 1023 011e 44F23152 		movw	r2, #17713
 1024 0122 9342     		cmp	r3, r2
 1025 0124 0BD0     		beq	.L39
 1026              		.loc 1 102 68 discriminator 6
 1027 0126 1E4B     		ldr	r3, .L43
 1028 0128 9B88     		ldrh	r3, [r3, #4]
 1029              		.loc 1 102 60 discriminator 6
 1030 012a 48F68912 		movw	r2, #35209
 1031 012e 9342     		cmp	r3, r2
 1032 0130 05D0     		beq	.L39
 1033              		.loc 1 102 87 discriminator 8
 1034 0132 1B4B     		ldr	r3, .L43
 1035 0134 9B88     		ldrh	r3, [r3, #4]
 1036              		.loc 1 102 79 discriminator 8
 1037 0136 4BF20552 		movw	r2, #46341
 1038 013a 9342     		cmp	r3, r2
 1039 013c 01D1     		bne	.L40
 1040              	.L39:
 1041              		.loc 1 102 106 discriminator 9
 1042 013e FB89     		ldrh	r3, [r7, #14]
 1043 0140 2AE0     		b	.L29
 1044              	.L40:
 103:hardware/src/lcd.c **** 	else if(lcddev.id==0X9341||lcddev.id==0X5310||lcddev.id==0X5510)return (((r>>11)<<11)|((g>>10)<<5)
ARM GAS  /tmp/ccRHtd69.s 			page 29


 1045              		.loc 1 103 16
 1046 0142 174B     		ldr	r3, .L43
 1047 0144 9B88     		ldrh	r3, [r3, #4]
 1048              		.loc 1 103 9
 1049 0146 49F24132 		movw	r2, #37697
 1050 014a 9342     		cmp	r3, r2
 1051 014c 0BD0     		beq	.L41
 1052              		.loc 1 103 35 discriminator 2
 1053 014e 144B     		ldr	r3, .L43
 1054 0150 9B88     		ldrh	r3, [r3, #4]
 1055              		.loc 1 103 27 discriminator 2
 1056 0152 45F21032 		movw	r2, #21264
 1057 0156 9342     		cmp	r3, r2
 1058 0158 05D0     		beq	.L41
 1059              		.loc 1 103 54 discriminator 4
 1060 015a 114B     		ldr	r3, .L43
 1061 015c 9B88     		ldrh	r3, [r3, #4]
 1062              		.loc 1 103 46 discriminator 4
 1063 015e 45F21052 		movw	r2, #21776
 1064 0162 9342     		cmp	r3, r2
 1065 0164 13D1     		bne	.L42
 1066              	.L41:
 1067              		.loc 1 103 77 discriminator 5
 1068 0166 FB89     		ldrh	r3, [r7, #14]
 1069 0168 DB0A     		lsrs	r3, r3, #11
 1070 016a 9BB2     		uxth	r3, r3
 1071              		.loc 1 103 82 discriminator 5
 1072 016c DB02     		lsls	r3, r3, #11
 1073              		.loc 1 103 87 discriminator 5
 1074 016e 1AB2     		sxth	r2, r3
 1075              		.loc 1 103 91 discriminator 5
 1076 0170 BB89     		ldrh	r3, [r7, #12]
 1077 0172 9B0A     		lsrs	r3, r3, #10
 1078 0174 9BB2     		uxth	r3, r3
 1079              		.loc 1 103 96 discriminator 5
 1080 0176 5B01     		lsls	r3, r3, #5
 1081              		.loc 1 103 87 discriminator 5
 1082 0178 1BB2     		sxth	r3, r3
 1083 017a 1343     		orrs	r3, r3, r2
 1084 017c 1AB2     		sxth	r2, r3
 1085              		.loc 1 103 100 discriminator 5
 1086 017e 7B89     		ldrh	r3, [r7, #10]
 1087 0180 DB0A     		lsrs	r3, r3, #11
 1088 0182 9BB2     		uxth	r3, r3
 1089 0184 1BB2     		sxth	r3, r3
 1090 0186 1343     		orrs	r3, r3, r2
 1091 0188 1BB2     		sxth	r3, r3
 1092 018a 9BB2     		uxth	r3, r3
 1093 018c 04E0     		b	.L29
 1094              	.L42:
 104:hardware/src/lcd.c **** 	else return LCD_BGR2RGB(r);						//其他IC
 1095              		.loc 1 104 14
 1096 018e FB89     		ldrh	r3, [r7, #14]
 1097 0190 1846     		mov	r0, r3
 1098 0192 FFF7FEFF 		bl	LCD_BGR2RGB
 1099 0196 0346     		mov	r3, r0
 1100              	.L29:
ARM GAS  /tmp/ccRHtd69.s 			page 30


 105:hardware/src/lcd.c **** }			 
 1101              		.loc 1 105 1
 1102 0198 1846     		mov	r0, r3
 1103 019a 1037     		adds	r7, r7, #16
 1104              	.LCFI52:
 1105              		.cfi_def_cfa_offset 8
 1106 019c BD46     		mov	sp, r7
 1107              	.LCFI53:
 1108              		.cfi_def_cfa_register 13
 1109              		@ sp needed
 1110 019e 80BD     		pop	{r7, pc}
 1111              	.L44:
 1112              		.align	2
 1113              	.L43:
 1114 01a0 00000000 		.word	lcddev
 1115 01a4 FE07006C 		.word	1811941374
 1116              		.cfi_endproc
 1117              	.LFE75:
 1119              		.section	.text.LCD_DisplayOn,"ax",%progbits
 1120              		.align	1
 1121              		.global	LCD_DisplayOn
 1122              		.syntax unified
 1123              		.thumb
 1124              		.thumb_func
 1125              		.fpu softvfp
 1127              	LCD_DisplayOn:
 1128              	.LFB76:
 106:hardware/src/lcd.c **** //LCD开启显示
 107:hardware/src/lcd.c **** void LCD_DisplayOn(void)
 108:hardware/src/lcd.c **** {					   
 1129              		.loc 1 108 1
 1130              		.cfi_startproc
 1131              		@ args = 0, pretend = 0, frame = 0
 1132              		@ frame_needed = 1, uses_anonymous_args = 0
 1133 0000 80B5     		push	{r7, lr}
 1134              	.LCFI54:
 1135              		.cfi_def_cfa_offset 8
 1136              		.cfi_offset 7, -8
 1137              		.cfi_offset 14, -4
 1138 0002 00AF     		add	r7, sp, #0
 1139              	.LCFI55:
 1140              		.cfi_def_cfa_register 7
 109:hardware/src/lcd.c **** 	if(lcddev.id==0X9341||lcddev.id==0X6804||lcddev.id==0X5310)LCD_WR_REG(0X29);	//开启显示
 1141              		.loc 1 109 11
 1142 0004 134B     		ldr	r3, .L51
 1143 0006 9B88     		ldrh	r3, [r3, #4]
 1144              		.loc 1 109 4
 1145 0008 49F24132 		movw	r2, #37697
 1146 000c 9342     		cmp	r3, r2
 1147 000e 0BD0     		beq	.L46
 1148              		.loc 1 109 30 discriminator 2
 1149 0010 104B     		ldr	r3, .L51
 1150 0012 9B88     		ldrh	r3, [r3, #4]
 1151              		.loc 1 109 22 discriminator 2
 1152 0014 46F60402 		movw	r2, #26628
 1153 0018 9342     		cmp	r3, r2
 1154 001a 05D0     		beq	.L46
ARM GAS  /tmp/ccRHtd69.s 			page 31


 1155              		.loc 1 109 49 discriminator 4
 1156 001c 0D4B     		ldr	r3, .L51
 1157 001e 9B88     		ldrh	r3, [r3, #4]
 1158              		.loc 1 109 41 discriminator 4
 1159 0020 45F21032 		movw	r2, #21264
 1160 0024 9342     		cmp	r3, r2
 1161 0026 03D1     		bne	.L47
 1162              	.L46:
 1163              		.loc 1 109 61 discriminator 5
 1164 0028 2920     		movs	r0, #41
 1165 002a FFF7FEFF 		bl	LCD_WR_REG
 110:hardware/src/lcd.c **** 	else if(lcddev.id==0X5510)LCD_WR_REG(0X2900);	//开启显示
 111:hardware/src/lcd.c **** 	else LCD_WriteReg(R7,0x0173); 				 	//开启显示
 112:hardware/src/lcd.c **** }	 
 1166              		.loc 1 112 1 discriminator 5
 1167 002e 0FE0     		b	.L50
 1168              	.L47:
 110:hardware/src/lcd.c **** 	else if(lcddev.id==0X5510)LCD_WR_REG(0X2900);	//开启显示
 1169              		.loc 1 110 16
 1170 0030 084B     		ldr	r3, .L51
 1171 0032 9B88     		ldrh	r3, [r3, #4]
 110:hardware/src/lcd.c **** 	else if(lcddev.id==0X5510)LCD_WR_REG(0X2900);	//开启显示
 1172              		.loc 1 110 9
 1173 0034 45F21052 		movw	r2, #21776
 1174 0038 9342     		cmp	r3, r2
 1175 003a 04D1     		bne	.L49
 110:hardware/src/lcd.c **** 	else if(lcddev.id==0X5510)LCD_WR_REG(0X2900);	//开启显示
 1176              		.loc 1 110 28 discriminator 1
 1177 003c 4FF42450 		mov	r0, #10496
 1178 0040 FFF7FEFF 		bl	LCD_WR_REG
 1179              		.loc 1 112 1 discriminator 1
 1180 0044 04E0     		b	.L50
 1181              	.L49:
 111:hardware/src/lcd.c **** }	 
 1182              		.loc 1 111 7
 1183 0046 40F27311 		movw	r1, #371
 1184 004a 0720     		movs	r0, #7
 1185 004c FFF7FEFF 		bl	LCD_WriteReg
 1186              	.L50:
 1187              		.loc 1 112 1
 1188 0050 00BF     		nop
 1189 0052 80BD     		pop	{r7, pc}
 1190              	.L52:
 1191              		.align	2
 1192              	.L51:
 1193 0054 00000000 		.word	lcddev
 1194              		.cfi_endproc
 1195              	.LFE76:
 1197              		.section	.text.LCD_DisplayOff,"ax",%progbits
 1198              		.align	1
 1199              		.global	LCD_DisplayOff
 1200              		.syntax unified
 1201              		.thumb
 1202              		.thumb_func
 1203              		.fpu softvfp
 1205              	LCD_DisplayOff:
 1206              	.LFB77:
ARM GAS  /tmp/ccRHtd69.s 			page 32


 113:hardware/src/lcd.c **** //LCD关闭显示
 114:hardware/src/lcd.c **** void LCD_DisplayOff(void)
 115:hardware/src/lcd.c **** {	   
 1207              		.loc 1 115 1
 1208              		.cfi_startproc
 1209              		@ args = 0, pretend = 0, frame = 0
 1210              		@ frame_needed = 1, uses_anonymous_args = 0
 1211 0000 80B5     		push	{r7, lr}
 1212              	.LCFI56:
 1213              		.cfi_def_cfa_offset 8
 1214              		.cfi_offset 7, -8
 1215              		.cfi_offset 14, -4
 1216 0002 00AF     		add	r7, sp, #0
 1217              	.LCFI57:
 1218              		.cfi_def_cfa_register 7
 116:hardware/src/lcd.c **** 	if(lcddev.id==0X9341||lcddev.id==0X6804||lcddev.id==0X5310)LCD_WR_REG(0X28);	//关闭显示
 1219              		.loc 1 116 11
 1220 0004 134B     		ldr	r3, .L59
 1221 0006 9B88     		ldrh	r3, [r3, #4]
 1222              		.loc 1 116 4
 1223 0008 49F24132 		movw	r2, #37697
 1224 000c 9342     		cmp	r3, r2
 1225 000e 0BD0     		beq	.L54
 1226              		.loc 1 116 30 discriminator 2
 1227 0010 104B     		ldr	r3, .L59
 1228 0012 9B88     		ldrh	r3, [r3, #4]
 1229              		.loc 1 116 22 discriminator 2
 1230 0014 46F60402 		movw	r2, #26628
 1231 0018 9342     		cmp	r3, r2
 1232 001a 05D0     		beq	.L54
 1233              		.loc 1 116 49 discriminator 4
 1234 001c 0D4B     		ldr	r3, .L59
 1235 001e 9B88     		ldrh	r3, [r3, #4]
 1236              		.loc 1 116 41 discriminator 4
 1237 0020 45F21032 		movw	r2, #21264
 1238 0024 9342     		cmp	r3, r2
 1239 0026 03D1     		bne	.L55
 1240              	.L54:
 1241              		.loc 1 116 61 discriminator 5
 1242 0028 2820     		movs	r0, #40
 1243 002a FFF7FEFF 		bl	LCD_WR_REG
 117:hardware/src/lcd.c **** 	else if(lcddev.id==0X5510)LCD_WR_REG(0X2800);	//关闭显示
 118:hardware/src/lcd.c **** 	else LCD_WriteReg(R7,0x0);//关闭显示 
 119:hardware/src/lcd.c **** }   
 1244              		.loc 1 119 1 discriminator 5
 1245 002e 0EE0     		b	.L58
 1246              	.L55:
 117:hardware/src/lcd.c **** 	else if(lcddev.id==0X5510)LCD_WR_REG(0X2800);	//关闭显示
 1247              		.loc 1 117 16
 1248 0030 084B     		ldr	r3, .L59
 1249 0032 9B88     		ldrh	r3, [r3, #4]
 117:hardware/src/lcd.c **** 	else if(lcddev.id==0X5510)LCD_WR_REG(0X2800);	//关闭显示
 1250              		.loc 1 117 9
 1251 0034 45F21052 		movw	r2, #21776
 1252 0038 9342     		cmp	r3, r2
 1253 003a 04D1     		bne	.L57
 117:hardware/src/lcd.c **** 	else if(lcddev.id==0X5510)LCD_WR_REG(0X2800);	//关闭显示
ARM GAS  /tmp/ccRHtd69.s 			page 33


 1254              		.loc 1 117 28 discriminator 1
 1255 003c 4FF42050 		mov	r0, #10240
 1256 0040 FFF7FEFF 		bl	LCD_WR_REG
 1257              		.loc 1 119 1 discriminator 1
 1258 0044 03E0     		b	.L58
 1259              	.L57:
 118:hardware/src/lcd.c **** }   
 1260              		.loc 1 118 7
 1261 0046 0021     		movs	r1, #0
 1262 0048 0720     		movs	r0, #7
 1263 004a FFF7FEFF 		bl	LCD_WriteReg
 1264              	.L58:
 1265              		.loc 1 119 1
 1266 004e 00BF     		nop
 1267 0050 80BD     		pop	{r7, pc}
 1268              	.L60:
 1269 0052 00BF     		.align	2
 1270              	.L59:
 1271 0054 00000000 		.word	lcddev
 1272              		.cfi_endproc
 1273              	.LFE77:
 1275              		.section	.text.LCD_SetCursor,"ax",%progbits
 1276              		.align	1
 1277              		.global	LCD_SetCursor
 1278              		.syntax unified
 1279              		.thumb
 1280              		.thumb_func
 1281              		.fpu softvfp
 1283              	LCD_SetCursor:
 1284              	.LFB78:
 120:hardware/src/lcd.c **** //设置光标位置
 121:hardware/src/lcd.c **** //Xpos:横坐标
 122:hardware/src/lcd.c **** //Ypos:纵坐标
 123:hardware/src/lcd.c **** void LCD_SetCursor(u16 Xpos, u16 Ypos)
 124:hardware/src/lcd.c **** {	 
 1285              		.loc 1 124 1
 1286              		.cfi_startproc
 1287              		@ args = 0, pretend = 0, frame = 8
 1288              		@ frame_needed = 1, uses_anonymous_args = 0
 1289 0000 80B5     		push	{r7, lr}
 1290              	.LCFI58:
 1291              		.cfi_def_cfa_offset 8
 1292              		.cfi_offset 7, -8
 1293              		.cfi_offset 14, -4
 1294 0002 82B0     		sub	sp, sp, #8
 1295              	.LCFI59:
 1296              		.cfi_def_cfa_offset 16
 1297 0004 00AF     		add	r7, sp, #0
 1298              	.LCFI60:
 1299              		.cfi_def_cfa_register 7
 1300 0006 0346     		mov	r3, r0
 1301 0008 0A46     		mov	r2, r1
 1302 000a FB80     		strh	r3, [r7, #6]	@ movhi
 1303 000c 1346     		mov	r3, r2	@ movhi
 1304 000e BB80     		strh	r3, [r7, #4]	@ movhi
 125:hardware/src/lcd.c ****  	if(lcddev.id==0X9341||lcddev.id==0X5310)
 1305              		.loc 1 125 12
ARM GAS  /tmp/ccRHtd69.s 			page 34


 1306 0010 5B4B     		ldr	r3, .L70
 1307 0012 9B88     		ldrh	r3, [r3, #4]
 1308              		.loc 1 125 5
 1309 0014 49F24132 		movw	r2, #37697
 1310 0018 9342     		cmp	r3, r2
 1311 001a 05D0     		beq	.L62
 1312              		.loc 1 125 31 discriminator 1
 1313 001c 584B     		ldr	r3, .L70
 1314 001e 9B88     		ldrh	r3, [r3, #4]
 1315              		.loc 1 125 23 discriminator 1
 1316 0020 45F21032 		movw	r2, #21264
 1317 0024 9342     		cmp	r3, r2
 1318 0026 22D1     		bne	.L63
 1319              	.L62:
 126:hardware/src/lcd.c **** 	{		    
 127:hardware/src/lcd.c **** 		LCD_WR_REG(lcddev.setxcmd); 
 1320              		.loc 1 127 3
 1321 0028 554B     		ldr	r3, .L70
 1322 002a 5B89     		ldrh	r3, [r3, #10]
 1323 002c 1846     		mov	r0, r3
 1324 002e FFF7FEFF 		bl	LCD_WR_REG
 128:hardware/src/lcd.c **** 		LCD_WR_DATA(Xpos>>8); 
 1325              		.loc 1 128 3
 1326 0032 FB88     		ldrh	r3, [r7, #6]
 1327 0034 1B0A     		lsrs	r3, r3, #8
 1328 0036 9BB2     		uxth	r3, r3
 1329 0038 1846     		mov	r0, r3
 1330 003a FFF7FEFF 		bl	LCD_WR_DATA
 129:hardware/src/lcd.c **** 		LCD_WR_DATA(Xpos&0XFF);	 
 1331              		.loc 1 129 3
 1332 003e FB88     		ldrh	r3, [r7, #6]	@ movhi
 1333 0040 DBB2     		uxtb	r3, r3
 1334 0042 9BB2     		uxth	r3, r3
 1335 0044 1846     		mov	r0, r3
 1336 0046 FFF7FEFF 		bl	LCD_WR_DATA
 130:hardware/src/lcd.c **** 		LCD_WR_REG(lcddev.setycmd); 
 1337              		.loc 1 130 3
 1338 004a 4D4B     		ldr	r3, .L70
 1339 004c 9B89     		ldrh	r3, [r3, #12]
 1340 004e 1846     		mov	r0, r3
 1341 0050 FFF7FEFF 		bl	LCD_WR_REG
 131:hardware/src/lcd.c **** 		LCD_WR_DATA(Ypos>>8); 
 1342              		.loc 1 131 3
 1343 0054 BB88     		ldrh	r3, [r7, #4]
 1344 0056 1B0A     		lsrs	r3, r3, #8
 1345 0058 9BB2     		uxth	r3, r3
 1346 005a 1846     		mov	r0, r3
 1347 005c FFF7FEFF 		bl	LCD_WR_DATA
 132:hardware/src/lcd.c **** 		LCD_WR_DATA(Ypos&0XFF);
 1348              		.loc 1 132 3
 1349 0060 BB88     		ldrh	r3, [r7, #4]	@ movhi
 1350 0062 DBB2     		uxtb	r3, r3
 1351 0064 9BB2     		uxth	r3, r3
 1352 0066 1846     		mov	r0, r3
 1353 0068 FFF7FEFF 		bl	LCD_WR_DATA
 133:hardware/src/lcd.c **** 	}else if(lcddev.id==0X6804)
 134:hardware/src/lcd.c **** 	{
ARM GAS  /tmp/ccRHtd69.s 			page 35


 135:hardware/src/lcd.c **** 		if(lcddev.dir==1)Xpos=lcddev.width-1-Xpos;//横屏时处理
 136:hardware/src/lcd.c **** 		LCD_WR_REG(lcddev.setxcmd); 
 137:hardware/src/lcd.c **** 		LCD_WR_DATA(Xpos>>8); 
 138:hardware/src/lcd.c **** 		LCD_WR_DATA(Xpos&0XFF);	 
 139:hardware/src/lcd.c **** 		LCD_WR_REG(lcddev.setycmd); 
 140:hardware/src/lcd.c **** 		LCD_WR_DATA(Ypos>>8); 
 141:hardware/src/lcd.c **** 		LCD_WR_DATA(Ypos&0XFF);
 142:hardware/src/lcd.c **** 	}else if(lcddev.id==0X5510)
 143:hardware/src/lcd.c **** 	{
 144:hardware/src/lcd.c **** 		LCD_WR_REG(lcddev.setxcmd); 
 145:hardware/src/lcd.c **** 		LCD_WR_DATA(Xpos>>8); 
 146:hardware/src/lcd.c **** 		LCD_WR_REG(lcddev.setxcmd+1); 
 147:hardware/src/lcd.c **** 		LCD_WR_DATA(Xpos&0XFF);	 
 148:hardware/src/lcd.c **** 		LCD_WR_REG(lcddev.setycmd); 
 149:hardware/src/lcd.c **** 		LCD_WR_DATA(Ypos>>8); 
 150:hardware/src/lcd.c **** 		LCD_WR_REG(lcddev.setycmd+1); 
 151:hardware/src/lcd.c **** 		LCD_WR_DATA(Ypos&0XFF);		
 152:hardware/src/lcd.c **** 	}else
 153:hardware/src/lcd.c **** 	{
 154:hardware/src/lcd.c **** 		if(lcddev.dir==1)Xpos=lcddev.width-1-Xpos;//横屏其实就是调转x,y坐标
 155:hardware/src/lcd.c **** 		LCD_WriteReg(lcddev.setxcmd, Xpos);
 156:hardware/src/lcd.c **** 		LCD_WriteReg(lcddev.setycmd, Ypos);
 157:hardware/src/lcd.c **** 	}	 
 158:hardware/src/lcd.c **** } 		 
 1354              		.loc 1 158 1
 1355 006c 83E0     		b	.L69
 1356              	.L63:
 133:hardware/src/lcd.c **** 	}else if(lcddev.id==0X6804)
 1357              		.loc 1 133 17
 1358 006e 444B     		ldr	r3, .L70
 1359 0070 9B88     		ldrh	r3, [r3, #4]
 133:hardware/src/lcd.c **** 	}else if(lcddev.id==0X6804)
 1360              		.loc 1 133 10
 1361 0072 46F60402 		movw	r2, #26628
 1362 0076 9342     		cmp	r3, r2
 1363 0078 2DD1     		bne	.L65
 135:hardware/src/lcd.c **** 		LCD_WR_REG(lcddev.setxcmd); 
 1364              		.loc 1 135 12
 1365 007a 414B     		ldr	r3, .L70
 1366 007c 9B79     		ldrb	r3, [r3, #6]	@ zero_extendqisi2
 135:hardware/src/lcd.c **** 		LCD_WR_REG(lcddev.setxcmd); 
 1367              		.loc 1 135 5
 1368 007e 012B     		cmp	r3, #1
 1369 0080 06D1     		bne	.L66
 135:hardware/src/lcd.c **** 		LCD_WR_REG(lcddev.setxcmd); 
 1370              		.loc 1 135 31 discriminator 1
 1371 0082 3F4B     		ldr	r3, .L70
 1372 0084 1A88     		ldrh	r2, [r3]
 135:hardware/src/lcd.c **** 		LCD_WR_REG(lcddev.setxcmd); 
 1373              		.loc 1 135 39 discriminator 1
 1374 0086 FB88     		ldrh	r3, [r7, #6]	@ movhi
 1375 0088 D31A     		subs	r3, r2, r3
 1376 008a 9BB2     		uxth	r3, r3
 135:hardware/src/lcd.c **** 		LCD_WR_REG(lcddev.setxcmd); 
 1377              		.loc 1 135 24 discriminator 1
 1378 008c 013B     		subs	r3, r3, #1
 1379 008e FB80     		strh	r3, [r7, #6]	@ movhi
ARM GAS  /tmp/ccRHtd69.s 			page 36


 1380              	.L66:
 136:hardware/src/lcd.c **** 		LCD_WR_DATA(Xpos>>8); 
 1381              		.loc 1 136 3
 1382 0090 3B4B     		ldr	r3, .L70
 1383 0092 5B89     		ldrh	r3, [r3, #10]
 1384 0094 1846     		mov	r0, r3
 1385 0096 FFF7FEFF 		bl	LCD_WR_REG
 137:hardware/src/lcd.c **** 		LCD_WR_DATA(Xpos&0XFF);	 
 1386              		.loc 1 137 3
 1387 009a FB88     		ldrh	r3, [r7, #6]
 1388 009c 1B0A     		lsrs	r3, r3, #8
 1389 009e 9BB2     		uxth	r3, r3
 1390 00a0 1846     		mov	r0, r3
 1391 00a2 FFF7FEFF 		bl	LCD_WR_DATA
 138:hardware/src/lcd.c **** 		LCD_WR_REG(lcddev.setycmd); 
 1392              		.loc 1 138 3
 1393 00a6 FB88     		ldrh	r3, [r7, #6]	@ movhi
 1394 00a8 DBB2     		uxtb	r3, r3
 1395 00aa 9BB2     		uxth	r3, r3
 1396 00ac 1846     		mov	r0, r3
 1397 00ae FFF7FEFF 		bl	LCD_WR_DATA
 139:hardware/src/lcd.c **** 		LCD_WR_DATA(Ypos>>8); 
 1398              		.loc 1 139 3
 1399 00b2 334B     		ldr	r3, .L70
 1400 00b4 9B89     		ldrh	r3, [r3, #12]
 1401 00b6 1846     		mov	r0, r3
 1402 00b8 FFF7FEFF 		bl	LCD_WR_REG
 140:hardware/src/lcd.c **** 		LCD_WR_DATA(Ypos&0XFF);
 1403              		.loc 1 140 3
 1404 00bc BB88     		ldrh	r3, [r7, #4]
 1405 00be 1B0A     		lsrs	r3, r3, #8
 1406 00c0 9BB2     		uxth	r3, r3
 1407 00c2 1846     		mov	r0, r3
 1408 00c4 FFF7FEFF 		bl	LCD_WR_DATA
 141:hardware/src/lcd.c **** 	}else if(lcddev.id==0X5510)
 1409              		.loc 1 141 3
 1410 00c8 BB88     		ldrh	r3, [r7, #4]	@ movhi
 1411 00ca DBB2     		uxtb	r3, r3
 1412 00cc 9BB2     		uxth	r3, r3
 1413 00ce 1846     		mov	r0, r3
 1414 00d0 FFF7FEFF 		bl	LCD_WR_DATA
 1415              		.loc 1 158 1
 1416 00d4 4FE0     		b	.L69
 1417              	.L65:
 142:hardware/src/lcd.c **** 	{
 1418              		.loc 1 142 17
 1419 00d6 2A4B     		ldr	r3, .L70
 1420 00d8 9B88     		ldrh	r3, [r3, #4]
 142:hardware/src/lcd.c **** 	{
 1421              		.loc 1 142 10
 1422 00da 45F21052 		movw	r2, #21776
 1423 00de 9342     		cmp	r3, r2
 1424 00e0 30D1     		bne	.L67
 144:hardware/src/lcd.c **** 		LCD_WR_DATA(Xpos>>8); 
 1425              		.loc 1 144 3
 1426 00e2 274B     		ldr	r3, .L70
 1427 00e4 5B89     		ldrh	r3, [r3, #10]
ARM GAS  /tmp/ccRHtd69.s 			page 37


 1428 00e6 1846     		mov	r0, r3
 1429 00e8 FFF7FEFF 		bl	LCD_WR_REG
 145:hardware/src/lcd.c **** 		LCD_WR_REG(lcddev.setxcmd+1); 
 1430              		.loc 1 145 3
 1431 00ec FB88     		ldrh	r3, [r7, #6]
 1432 00ee 1B0A     		lsrs	r3, r3, #8
 1433 00f0 9BB2     		uxth	r3, r3
 1434 00f2 1846     		mov	r0, r3
 1435 00f4 FFF7FEFF 		bl	LCD_WR_DATA
 146:hardware/src/lcd.c **** 		LCD_WR_DATA(Xpos&0XFF);	 
 1436              		.loc 1 146 20
 1437 00f8 214B     		ldr	r3, .L70
 1438 00fa 5B89     		ldrh	r3, [r3, #10]
 146:hardware/src/lcd.c **** 		LCD_WR_DATA(Xpos&0XFF);	 
 1439              		.loc 1 146 3
 1440 00fc 0133     		adds	r3, r3, #1
 1441 00fe 9BB2     		uxth	r3, r3
 1442 0100 1846     		mov	r0, r3
 1443 0102 FFF7FEFF 		bl	LCD_WR_REG
 147:hardware/src/lcd.c **** 		LCD_WR_REG(lcddev.setycmd); 
 1444              		.loc 1 147 3
 1445 0106 FB88     		ldrh	r3, [r7, #6]	@ movhi
 1446 0108 DBB2     		uxtb	r3, r3
 1447 010a 9BB2     		uxth	r3, r3
 1448 010c 1846     		mov	r0, r3
 1449 010e FFF7FEFF 		bl	LCD_WR_DATA
 148:hardware/src/lcd.c **** 		LCD_WR_DATA(Ypos>>8); 
 1450              		.loc 1 148 3
 1451 0112 1B4B     		ldr	r3, .L70
 1452 0114 9B89     		ldrh	r3, [r3, #12]
 1453 0116 1846     		mov	r0, r3
 1454 0118 FFF7FEFF 		bl	LCD_WR_REG
 149:hardware/src/lcd.c **** 		LCD_WR_REG(lcddev.setycmd+1); 
 1455              		.loc 1 149 3
 1456 011c BB88     		ldrh	r3, [r7, #4]
 1457 011e 1B0A     		lsrs	r3, r3, #8
 1458 0120 9BB2     		uxth	r3, r3
 1459 0122 1846     		mov	r0, r3
 1460 0124 FFF7FEFF 		bl	LCD_WR_DATA
 150:hardware/src/lcd.c **** 		LCD_WR_DATA(Ypos&0XFF);		
 1461              		.loc 1 150 20
 1462 0128 154B     		ldr	r3, .L70
 1463 012a 9B89     		ldrh	r3, [r3, #12]
 150:hardware/src/lcd.c **** 		LCD_WR_DATA(Ypos&0XFF);		
 1464              		.loc 1 150 3
 1465 012c 0133     		adds	r3, r3, #1
 1466 012e 9BB2     		uxth	r3, r3
 1467 0130 1846     		mov	r0, r3
 1468 0132 FFF7FEFF 		bl	LCD_WR_REG
 151:hardware/src/lcd.c **** 	}else
 1469              		.loc 1 151 3
 1470 0136 BB88     		ldrh	r3, [r7, #4]	@ movhi
 1471 0138 DBB2     		uxtb	r3, r3
 1472 013a 9BB2     		uxth	r3, r3
 1473 013c 1846     		mov	r0, r3
 1474 013e FFF7FEFF 		bl	LCD_WR_DATA
 1475              		.loc 1 158 1
ARM GAS  /tmp/ccRHtd69.s 			page 38


 1476 0142 18E0     		b	.L69
 1477              	.L67:
 154:hardware/src/lcd.c **** 		LCD_WriteReg(lcddev.setxcmd, Xpos);
 1478              		.loc 1 154 12
 1479 0144 0E4B     		ldr	r3, .L70
 1480 0146 9B79     		ldrb	r3, [r3, #6]	@ zero_extendqisi2
 154:hardware/src/lcd.c **** 		LCD_WriteReg(lcddev.setxcmd, Xpos);
 1481              		.loc 1 154 5
 1482 0148 012B     		cmp	r3, #1
 1483 014a 06D1     		bne	.L68
 154:hardware/src/lcd.c **** 		LCD_WriteReg(lcddev.setxcmd, Xpos);
 1484              		.loc 1 154 31 discriminator 1
 1485 014c 0C4B     		ldr	r3, .L70
 1486 014e 1A88     		ldrh	r2, [r3]
 154:hardware/src/lcd.c **** 		LCD_WriteReg(lcddev.setxcmd, Xpos);
 1487              		.loc 1 154 39 discriminator 1
 1488 0150 FB88     		ldrh	r3, [r7, #6]	@ movhi
 1489 0152 D31A     		subs	r3, r2, r3
 1490 0154 9BB2     		uxth	r3, r3
 154:hardware/src/lcd.c **** 		LCD_WriteReg(lcddev.setxcmd, Xpos);
 1491              		.loc 1 154 24 discriminator 1
 1492 0156 013B     		subs	r3, r3, #1
 1493 0158 FB80     		strh	r3, [r7, #6]	@ movhi
 1494              	.L68:
 155:hardware/src/lcd.c **** 		LCD_WriteReg(lcddev.setycmd, Ypos);
 1495              		.loc 1 155 3
 1496 015a 094B     		ldr	r3, .L70
 1497 015c 5B89     		ldrh	r3, [r3, #10]
 1498 015e FA88     		ldrh	r2, [r7, #6]
 1499 0160 1146     		mov	r1, r2
 1500 0162 1846     		mov	r0, r3
 1501 0164 FFF7FEFF 		bl	LCD_WriteReg
 156:hardware/src/lcd.c **** 	}	 
 1502              		.loc 1 156 3
 1503 0168 054B     		ldr	r3, .L70
 1504 016a 9B89     		ldrh	r3, [r3, #12]
 1505 016c BA88     		ldrh	r2, [r7, #4]
 1506 016e 1146     		mov	r1, r2
 1507 0170 1846     		mov	r0, r3
 1508 0172 FFF7FEFF 		bl	LCD_WriteReg
 1509              	.L69:
 1510              		.loc 1 158 1
 1511 0176 00BF     		nop
 1512 0178 0837     		adds	r7, r7, #8
 1513              	.LCFI61:
 1514              		.cfi_def_cfa_offset 8
 1515 017a BD46     		mov	sp, r7
 1516              	.LCFI62:
 1517              		.cfi_def_cfa_register 13
 1518              		@ sp needed
 1519 017c 80BD     		pop	{r7, pc}
 1520              	.L71:
 1521 017e 00BF     		.align	2
 1522              	.L70:
 1523 0180 00000000 		.word	lcddev
 1524              		.cfi_endproc
 1525              	.LFE78:
ARM GAS  /tmp/ccRHtd69.s 			page 39


 1527              		.section	.text.LCD_Scan_Dir,"ax",%progbits
 1528              		.align	1
 1529              		.global	LCD_Scan_Dir
 1530              		.syntax unified
 1531              		.thumb
 1532              		.thumb_func
 1533              		.fpu softvfp
 1535              	LCD_Scan_Dir:
 1536              	.LFB79:
 159:hardware/src/lcd.c **** //设置LCD的自动扫描方向
 160:hardware/src/lcd.c **** //注意:其他函数可能会受到此函数设置的影响(尤其是9341/6804这两个奇葩),
 161:hardware/src/lcd.c **** //所以,一般设置为L2R_U2D即可,如果设置为其他扫描方式,可能导致显示不正常.
 162:hardware/src/lcd.c **** //dir:0~7,代表8个方向(具体定义见lcd.h)
 163:hardware/src/lcd.c **** //9320/9325/9328/4531/4535/1505/b505/8989/5408/9341/5310/5510等IC已经实际测试	   	   
 164:hardware/src/lcd.c **** void LCD_Scan_Dir(u8 dir)
 165:hardware/src/lcd.c **** {
 1537              		.loc 1 165 1
 1538              		.cfi_startproc
 1539              		@ args = 0, pretend = 0, frame = 16
 1540              		@ frame_needed = 1, uses_anonymous_args = 0
 1541 0000 80B5     		push	{r7, lr}
 1542              	.LCFI63:
 1543              		.cfi_def_cfa_offset 8
 1544              		.cfi_offset 7, -8
 1545              		.cfi_offset 14, -4
 1546 0002 84B0     		sub	sp, sp, #16
 1547              	.LCFI64:
 1548              		.cfi_def_cfa_offset 24
 1549 0004 00AF     		add	r7, sp, #0
 1550              	.LCFI65:
 1551              		.cfi_def_cfa_register 7
 1552 0006 0346     		mov	r3, r0
 1553 0008 FB71     		strb	r3, [r7, #7]
 166:hardware/src/lcd.c **** 	u16 regval=0;
 1554              		.loc 1 166 6
 1555 000a 0023     		movs	r3, #0
 1556 000c FB81     		strh	r3, [r7, #14]	@ movhi
 167:hardware/src/lcd.c **** 	u16 dirreg=0;
 1557              		.loc 1 167 6
 1558 000e 0023     		movs	r3, #0
 1559 0010 BB81     		strh	r3, [r7, #12]	@ movhi
 168:hardware/src/lcd.c **** 	u16 temp;  
 169:hardware/src/lcd.c **** 	if(lcddev.dir==1&&lcddev.id!=0X6804)//横屏时，对6804不改变扫描方向！
 1560              		.loc 1 169 11
 1561 0012 A54B     		ldr	r3, .L119
 1562 0014 9B79     		ldrb	r3, [r3, #6]	@ zero_extendqisi2
 1563              		.loc 1 169 4
 1564 0016 012B     		cmp	r3, #1
 1565 0018 34D1     		bne	.L118
 1566              		.loc 1 169 26 discriminator 1
 1567 001a A34B     		ldr	r3, .L119
 1568 001c 9B88     		ldrh	r3, [r3, #4]
 1569              		.loc 1 169 18 discriminator 1
 1570 001e 46F60402 		movw	r2, #26628
 1571 0022 9342     		cmp	r3, r2
 1572 0024 2ED0     		beq	.L118
 170:hardware/src/lcd.c **** 	{			   
ARM GAS  /tmp/ccRHtd69.s 			page 40


 171:hardware/src/lcd.c **** 		switch(dir)//方向转换
 1573              		.loc 1 171 3
 1574 0026 FB79     		ldrb	r3, [r7, #7]	@ zero_extendqisi2
 1575 0028 072B     		cmp	r3, #7
 1576 002a 2CD8     		bhi	.L73
 1577 002c 01A2     		adr	r2, .L75
 1578 002e 52F823F0 		ldr	pc, [r2, r3, lsl #2]
 1579 0032 00BF     		.p2align 2
 1580              	.L75:
 1581 0034 55000000 		.word	.L82+1
 1582 0038 5B000000 		.word	.L81+1
 1583 003c 61000000 		.word	.L80+1
 1584 0040 67000000 		.word	.L79+1
 1585 0044 6D000000 		.word	.L78+1
 1586 0048 73000000 		.word	.L77+1
 1587 004c 79000000 		.word	.L76+1
 1588 0050 7F000000 		.word	.L74+1
 1589              		.p2align 1
 1590              	.L82:
 172:hardware/src/lcd.c **** 		{
 173:hardware/src/lcd.c **** 			case 0:dir=6;break;
 1591              		.loc 1 173 14
 1592 0054 0623     		movs	r3, #6
 1593 0056 FB71     		strb	r3, [r7, #7]
 1594              		.loc 1 173 4
 1595 0058 15E0     		b	.L73
 1596              	.L81:
 174:hardware/src/lcd.c **** 			case 1:dir=7;break;
 1597              		.loc 1 174 14
 1598 005a 0723     		movs	r3, #7
 1599 005c FB71     		strb	r3, [r7, #7]
 1600              		.loc 1 174 4
 1601 005e 12E0     		b	.L73
 1602              	.L80:
 175:hardware/src/lcd.c **** 			case 2:dir=4;break;
 1603              		.loc 1 175 14
 1604 0060 0423     		movs	r3, #4
 1605 0062 FB71     		strb	r3, [r7, #7]
 1606              		.loc 1 175 4
 1607 0064 0FE0     		b	.L73
 1608              	.L79:
 176:hardware/src/lcd.c **** 			case 3:dir=5;break;
 1609              		.loc 1 176 14
 1610 0066 0523     		movs	r3, #5
 1611 0068 FB71     		strb	r3, [r7, #7]
 1612              		.loc 1 176 4
 1613 006a 0CE0     		b	.L73
 1614              	.L78:
 177:hardware/src/lcd.c **** 			case 4:dir=1;break;
 1615              		.loc 1 177 14
 1616 006c 0123     		movs	r3, #1
 1617 006e FB71     		strb	r3, [r7, #7]
 1618              		.loc 1 177 4
 1619 0070 09E0     		b	.L73
 1620              	.L77:
 178:hardware/src/lcd.c **** 			case 5:dir=0;break;
 1621              		.loc 1 178 14
ARM GAS  /tmp/ccRHtd69.s 			page 41


 1622 0072 0023     		movs	r3, #0
 1623 0074 FB71     		strb	r3, [r7, #7]
 1624              		.loc 1 178 4
 1625 0076 06E0     		b	.L73
 1626              	.L76:
 179:hardware/src/lcd.c **** 			case 6:dir=3;break;
 1627              		.loc 1 179 14
 1628 0078 0323     		movs	r3, #3
 1629 007a FB71     		strb	r3, [r7, #7]
 1630              		.loc 1 179 4
 1631 007c 03E0     		b	.L73
 1632              	.L74:
 180:hardware/src/lcd.c **** 			case 7:dir=2;break;	     
 1633              		.loc 1 180 14
 1634 007e 0223     		movs	r3, #2
 1635 0080 FB71     		strb	r3, [r7, #7]
 1636              		.loc 1 180 4
 1637 0082 00E0     		b	.L73
 1638              	.L118:
 181:hardware/src/lcd.c **** 		}
 182:hardware/src/lcd.c **** 	}
 1639              		.loc 1 182 2
 1640 0084 00BF     		nop
 1641              	.L73:
 183:hardware/src/lcd.c **** 	if(lcddev.id==0x9341||lcddev.id==0X6804||lcddev.id==0X5310||lcddev.id==0X5510)//9341/6804/5310/551
 1642              		.loc 1 183 11
 1643 0086 884B     		ldr	r3, .L119
 1644 0088 9B88     		ldrh	r3, [r3, #4]
 1645              		.loc 1 183 4
 1646 008a 49F24132 		movw	r2, #37697
 1647 008e 9342     		cmp	r3, r2
 1648 0090 12D0     		beq	.L83
 1649              		.loc 1 183 30 discriminator 1
 1650 0092 854B     		ldr	r3, .L119
 1651 0094 9B88     		ldrh	r3, [r3, #4]
 1652              		.loc 1 183 22 discriminator 1
 1653 0096 46F60402 		movw	r2, #26628
 1654 009a 9342     		cmp	r3, r2
 1655 009c 0CD0     		beq	.L83
 1656              		.loc 1 183 49 discriminator 2
 1657 009e 824B     		ldr	r3, .L119
 1658 00a0 9B88     		ldrh	r3, [r3, #4]
 1659              		.loc 1 183 41 discriminator 2
 1660 00a2 45F21032 		movw	r2, #21264
 1661 00a6 9342     		cmp	r3, r2
 1662 00a8 06D0     		beq	.L83
 1663              		.loc 1 183 68 discriminator 3
 1664 00aa 7F4B     		ldr	r3, .L119
 1665 00ac 9B88     		ldrh	r3, [r3, #4]
 1666              		.loc 1 183 60 discriminator 3
 1667 00ae 45F21052 		movw	r2, #21776
 1668 00b2 9342     		cmp	r3, r2
 1669 00b4 40F03381 		bne	.L84
 1670              	.L83:
 184:hardware/src/lcd.c **** 	{
 185:hardware/src/lcd.c **** 		switch(dir)
 1671              		.loc 1 185 3
ARM GAS  /tmp/ccRHtd69.s 			page 42


 1672 00b8 FB79     		ldrb	r3, [r7, #7]	@ zero_extendqisi2
 1673 00ba 072B     		cmp	r3, #7
 1674 00bc 35D8     		bhi	.L85
 1675 00be 01A2     		adr	r2, .L87
 1676 00c0 52F823F0 		ldr	pc, [r2, r3, lsl #2]
 1677              		.p2align 2
 1678              	.L87:
 1679 00c4 2B010000 		.word	.L85+1
 1680 00c8 E5000000 		.word	.L93+1
 1681 00cc EF000000 		.word	.L92+1
 1682 00d0 F9000000 		.word	.L91+1
 1683 00d4 03010000 		.word	.L90+1
 1684 00d8 0D010000 		.word	.L89+1
 1685 00dc 17010000 		.word	.L88+1
 1686 00e0 21010000 		.word	.L86+1
 1687              		.p2align 1
 1688              	.L93:
 186:hardware/src/lcd.c **** 		{
 187:hardware/src/lcd.c **** 			case L2R_U2D://从左到右,从上到下
 188:hardware/src/lcd.c **** 				regval|=(0<<7)|(0<<6)|(0<<5); 
 189:hardware/src/lcd.c **** 				break;
 190:hardware/src/lcd.c **** 			case L2R_D2U://从左到右,从下到上
 191:hardware/src/lcd.c **** 				regval|=(1<<7)|(0<<6)|(0<<5); 
 1689              		.loc 1 191 11
 1690 00e4 FB89     		ldrh	r3, [r7, #14]	@ movhi
 1691 00e6 43F08003 		orr	r3, r3, #128
 1692 00ea FB81     		strh	r3, [r7, #14]	@ movhi
 192:hardware/src/lcd.c **** 				break;
 1693              		.loc 1 192 5
 1694 00ec 1DE0     		b	.L85
 1695              	.L92:
 193:hardware/src/lcd.c **** 			case R2L_U2D://从右到左,从上到下
 194:hardware/src/lcd.c **** 				regval|=(0<<7)|(1<<6)|(0<<5); 
 1696              		.loc 1 194 11
 1697 00ee FB89     		ldrh	r3, [r7, #14]	@ movhi
 1698 00f0 43F04003 		orr	r3, r3, #64
 1699 00f4 FB81     		strh	r3, [r7, #14]	@ movhi
 195:hardware/src/lcd.c **** 				break;
 1700              		.loc 1 195 5
 1701 00f6 18E0     		b	.L85
 1702              	.L91:
 196:hardware/src/lcd.c **** 			case R2L_D2U://从右到左,从下到上
 197:hardware/src/lcd.c **** 				regval|=(1<<7)|(1<<6)|(0<<5); 
 1703              		.loc 1 197 11
 1704 00f8 FB89     		ldrh	r3, [r7, #14]	@ movhi
 1705 00fa 43F0C003 		orr	r3, r3, #192
 1706 00fe FB81     		strh	r3, [r7, #14]	@ movhi
 198:hardware/src/lcd.c **** 				break;	 
 1707              		.loc 1 198 5
 1708 0100 13E0     		b	.L85
 1709              	.L90:
 199:hardware/src/lcd.c **** 			case U2D_L2R://从上到下,从左到右
 200:hardware/src/lcd.c **** 				regval|=(0<<7)|(0<<6)|(1<<5); 
 1710              		.loc 1 200 11
 1711 0102 FB89     		ldrh	r3, [r7, #14]	@ movhi
 1712 0104 43F02003 		orr	r3, r3, #32
 1713 0108 FB81     		strh	r3, [r7, #14]	@ movhi
ARM GAS  /tmp/ccRHtd69.s 			page 43


 201:hardware/src/lcd.c **** 				break;
 1714              		.loc 1 201 5
 1715 010a 0EE0     		b	.L85
 1716              	.L89:
 202:hardware/src/lcd.c **** 			case U2D_R2L://从上到下,从右到左
 203:hardware/src/lcd.c **** 				regval|=(0<<7)|(1<<6)|(1<<5); 
 1717              		.loc 1 203 11
 1718 010c FB89     		ldrh	r3, [r7, #14]	@ movhi
 1719 010e 43F06003 		orr	r3, r3, #96
 1720 0112 FB81     		strh	r3, [r7, #14]	@ movhi
 204:hardware/src/lcd.c **** 				break;
 1721              		.loc 1 204 5
 1722 0114 09E0     		b	.L85
 1723              	.L88:
 205:hardware/src/lcd.c **** 			case D2U_L2R://从下到上,从左到右
 206:hardware/src/lcd.c **** 				regval|=(1<<7)|(0<<6)|(1<<5); 
 1724              		.loc 1 206 11
 1725 0116 FB89     		ldrh	r3, [r7, #14]	@ movhi
 1726 0118 43F0A003 		orr	r3, r3, #160
 1727 011c FB81     		strh	r3, [r7, #14]	@ movhi
 207:hardware/src/lcd.c **** 				break;
 1728              		.loc 1 207 5
 1729 011e 04E0     		b	.L85
 1730              	.L86:
 208:hardware/src/lcd.c **** 			case D2U_R2L://从下到上,从右到左
 209:hardware/src/lcd.c **** 				regval|=(1<<7)|(1<<6)|(1<<5); 
 1731              		.loc 1 209 11
 1732 0120 FB89     		ldrh	r3, [r7, #14]	@ movhi
 1733 0122 43F0E003 		orr	r3, r3, #224
 1734 0126 FB81     		strh	r3, [r7, #14]	@ movhi
 210:hardware/src/lcd.c **** 				break;	 
 1735              		.loc 1 210 5
 1736 0128 00BF     		nop
 1737              	.L85:
 211:hardware/src/lcd.c **** 		}
 212:hardware/src/lcd.c **** 		if(lcddev.id==0X5510)dirreg=0X3600;
 1738              		.loc 1 212 12
 1739 012a 5F4B     		ldr	r3, .L119
 1740 012c 9B88     		ldrh	r3, [r3, #4]
 1741              		.loc 1 212 5
 1742 012e 45F21052 		movw	r2, #21776
 1743 0132 9342     		cmp	r3, r2
 1744 0134 03D1     		bne	.L95
 1745              		.loc 1 212 30 discriminator 1
 1746 0136 4FF45853 		mov	r3, #13824
 1747 013a BB81     		strh	r3, [r7, #12]	@ movhi
 1748 013c 01E0     		b	.L96
 1749              	.L95:
 213:hardware/src/lcd.c **** 		else dirreg=0X36;
 1750              		.loc 1 213 14
 1751 013e 3623     		movs	r3, #54
 1752 0140 BB81     		strh	r3, [r7, #12]	@ movhi
 1753              	.L96:
 214:hardware/src/lcd.c ****  		if((lcddev.id!=0X5310)&&(lcddev.id!=0X5510))regval|=0X08;//5310/5510不需要BGR   
 1754              		.loc 1 214 14
 1755 0142 594B     		ldr	r3, .L119
 1756 0144 9B88     		ldrh	r3, [r3, #4]
ARM GAS  /tmp/ccRHtd69.s 			page 44


 1757              		.loc 1 214 6
 1758 0146 45F21032 		movw	r2, #21264
 1759 014a 9342     		cmp	r3, r2
 1760 014c 09D0     		beq	.L97
 1761              		.loc 1 214 35 discriminator 1
 1762 014e 564B     		ldr	r3, .L119
 1763 0150 9B88     		ldrh	r3, [r3, #4]
 1764              		.loc 1 214 26 discriminator 1
 1765 0152 45F21052 		movw	r2, #21776
 1766 0156 9342     		cmp	r3, r2
 1767 0158 03D0     		beq	.L97
 1768              		.loc 1 214 54 discriminator 2
 1769 015a FB89     		ldrh	r3, [r7, #14]	@ movhi
 1770 015c 43F00803 		orr	r3, r3, #8
 1771 0160 FB81     		strh	r3, [r7, #14]	@ movhi
 1772              	.L97:
 215:hardware/src/lcd.c **** 		if(lcddev.id==0X6804)regval|=0x02;//6804的BIT6和9341的反了	   
 1773              		.loc 1 215 12
 1774 0162 514B     		ldr	r3, .L119
 1775 0164 9B88     		ldrh	r3, [r3, #4]
 1776              		.loc 1 215 5
 1777 0166 46F60402 		movw	r2, #26628
 1778 016a 9342     		cmp	r3, r2
 1779 016c 03D1     		bne	.L98
 1780              		.loc 1 215 30 discriminator 1
 1781 016e FB89     		ldrh	r3, [r7, #14]	@ movhi
 1782 0170 43F00203 		orr	r3, r3, #2
 1783 0174 FB81     		strh	r3, [r7, #14]	@ movhi
 1784              	.L98:
 216:hardware/src/lcd.c **** 		LCD_WriteReg(dirreg,regval);
 1785              		.loc 1 216 3
 1786 0176 FA89     		ldrh	r2, [r7, #14]
 1787 0178 BB89     		ldrh	r3, [r7, #12]
 1788 017a 1146     		mov	r1, r2
 1789 017c 1846     		mov	r0, r3
 1790 017e FFF7FEFF 		bl	LCD_WriteReg
 217:hardware/src/lcd.c ****  		if((regval&0X20)||lcddev.dir==1)
 1791              		.loc 1 217 14
 1792 0182 FB89     		ldrh	r3, [r7, #14]
 1793 0184 03F02003 		and	r3, r3, #32
 1794              		.loc 1 217 6
 1795 0188 002B     		cmp	r3, #0
 1796 018a 03D1     		bne	.L99
 1797              		.loc 1 217 28 discriminator 1
 1798 018c 464B     		ldr	r3, .L119
 1799 018e 9B79     		ldrb	r3, [r3, #6]	@ zero_extendqisi2
 1800              		.loc 1 217 20 discriminator 1
 1801 0190 012B     		cmp	r3, #1
 1802 0192 10D1     		bne	.L100
 1803              	.L99:
 218:hardware/src/lcd.c **** 		{
 219:hardware/src/lcd.c **** 			if(lcddev.width<lcddev.height)//交换X,Y
 1804              		.loc 1 219 13
 1805 0194 444B     		ldr	r3, .L119
 1806 0196 1A88     		ldrh	r2, [r3]
 1807              		.loc 1 219 26
 1808 0198 434B     		ldr	r3, .L119
ARM GAS  /tmp/ccRHtd69.s 			page 45


 1809 019a 5B88     		ldrh	r3, [r3, #2]
 1810              		.loc 1 219 6
 1811 019c 9A42     		cmp	r2, r3
 1812 019e 1AD2     		bcs	.L102
 220:hardware/src/lcd.c **** 			{
 221:hardware/src/lcd.c **** 				temp=lcddev.width;
 1813              		.loc 1 221 9
 1814 01a0 414B     		ldr	r3, .L119
 1815 01a2 1B88     		ldrh	r3, [r3]	@ movhi
 1816 01a4 7B81     		strh	r3, [r7, #10]	@ movhi
 222:hardware/src/lcd.c **** 				lcddev.width=lcddev.height;
 1817              		.loc 1 222 24
 1818 01a6 404B     		ldr	r3, .L119
 1819 01a8 5A88     		ldrh	r2, [r3, #2]
 1820              		.loc 1 222 17
 1821 01aa 3F4B     		ldr	r3, .L119
 1822 01ac 1A80     		strh	r2, [r3]	@ movhi
 223:hardware/src/lcd.c **** 				lcddev.height=temp;
 1823              		.loc 1 223 18
 1824 01ae 3E4A     		ldr	r2, .L119
 1825 01b0 7B89     		ldrh	r3, [r7, #10]	@ movhi
 1826 01b2 5380     		strh	r3, [r2, #2]	@ movhi
 219:hardware/src/lcd.c **** 			{
 1827              		.loc 1 219 6
 1828 01b4 0FE0     		b	.L102
 1829              	.L100:
 224:hardware/src/lcd.c ****  			}
 225:hardware/src/lcd.c **** 		}else  
 226:hardware/src/lcd.c **** 		{
 227:hardware/src/lcd.c **** 			if(lcddev.width>lcddev.height)//交换X,Y
 1830              		.loc 1 227 13
 1831 01b6 3C4B     		ldr	r3, .L119
 1832 01b8 1A88     		ldrh	r2, [r3]
 1833              		.loc 1 227 26
 1834 01ba 3B4B     		ldr	r3, .L119
 1835 01bc 5B88     		ldrh	r3, [r3, #2]
 1836              		.loc 1 227 6
 1837 01be 9A42     		cmp	r2, r3
 1838 01c0 09D9     		bls	.L102
 228:hardware/src/lcd.c **** 			{
 229:hardware/src/lcd.c **** 				temp=lcddev.width;
 1839              		.loc 1 229 9
 1840 01c2 394B     		ldr	r3, .L119
 1841 01c4 1B88     		ldrh	r3, [r3]	@ movhi
 1842 01c6 7B81     		strh	r3, [r7, #10]	@ movhi
 230:hardware/src/lcd.c **** 				lcddev.width=lcddev.height;
 1843              		.loc 1 230 24
 1844 01c8 374B     		ldr	r3, .L119
 1845 01ca 5A88     		ldrh	r2, [r3, #2]
 1846              		.loc 1 230 17
 1847 01cc 364B     		ldr	r3, .L119
 1848 01ce 1A80     		strh	r2, [r3]	@ movhi
 231:hardware/src/lcd.c **** 				lcddev.height=temp;
 1849              		.loc 1 231 18
 1850 01d0 354A     		ldr	r2, .L119
 1851 01d2 7B89     		ldrh	r3, [r7, #10]	@ movhi
 1852 01d4 5380     		strh	r3, [r2, #2]	@ movhi
ARM GAS  /tmp/ccRHtd69.s 			page 46


 1853              	.L102:
 232:hardware/src/lcd.c ****  			}
 233:hardware/src/lcd.c **** 		}  
 234:hardware/src/lcd.c **** 		if(lcddev.id==0X5510)
 1854              		.loc 1 234 12
 1855 01d6 344B     		ldr	r3, .L119
 1856 01d8 9B88     		ldrh	r3, [r3, #4]
 1857              		.loc 1 234 5
 1858 01da 45F21052 		movw	r2, #21776
 1859 01de 9342     		cmp	r3, r2
 1860 01e0 64D1     		bne	.L103
 235:hardware/src/lcd.c **** 		{
 236:hardware/src/lcd.c **** 			LCD_WR_REG(lcddev.setxcmd);LCD_WR_DATA(0); 
 1861              		.loc 1 236 4
 1862 01e2 314B     		ldr	r3, .L119
 1863 01e4 5B89     		ldrh	r3, [r3, #10]
 1864 01e6 1846     		mov	r0, r3
 1865 01e8 FFF7FEFF 		bl	LCD_WR_REG
 1866              		.loc 1 236 31
 1867 01ec 0020     		movs	r0, #0
 1868 01ee FFF7FEFF 		bl	LCD_WR_DATA
 237:hardware/src/lcd.c **** 			LCD_WR_REG(lcddev.setxcmd+1);LCD_WR_DATA(0); 
 1869              		.loc 1 237 21
 1870 01f2 2D4B     		ldr	r3, .L119
 1871 01f4 5B89     		ldrh	r3, [r3, #10]
 1872              		.loc 1 237 4
 1873 01f6 0133     		adds	r3, r3, #1
 1874 01f8 9BB2     		uxth	r3, r3
 1875 01fa 1846     		mov	r0, r3
 1876 01fc FFF7FEFF 		bl	LCD_WR_REG
 1877              		.loc 1 237 33
 1878 0200 0020     		movs	r0, #0
 1879 0202 FFF7FEFF 		bl	LCD_WR_DATA
 238:hardware/src/lcd.c **** 			LCD_WR_REG(lcddev.setxcmd+2);LCD_WR_DATA((lcddev.width-1)>>8); 
 1880              		.loc 1 238 21
 1881 0206 284B     		ldr	r3, .L119
 1882 0208 5B89     		ldrh	r3, [r3, #10]
 1883              		.loc 1 238 4
 1884 020a 0233     		adds	r3, r3, #2
 1885 020c 9BB2     		uxth	r3, r3
 1886 020e 1846     		mov	r0, r3
 1887 0210 FFF7FEFF 		bl	LCD_WR_REG
 1888              		.loc 1 238 52
 1889 0214 244B     		ldr	r3, .L119
 1890 0216 1B88     		ldrh	r3, [r3]
 1891              		.loc 1 238 58
 1892 0218 013B     		subs	r3, r3, #1
 1893              		.loc 1 238 61
 1894 021a 1B12     		asrs	r3, r3, #8
 1895              		.loc 1 238 33
 1896 021c 9BB2     		uxth	r3, r3
 1897 021e 1846     		mov	r0, r3
 1898 0220 FFF7FEFF 		bl	LCD_WR_DATA
 239:hardware/src/lcd.c **** 			LCD_WR_REG(lcddev.setxcmd+3);LCD_WR_DATA((lcddev.width-1)&0XFF); 
 1899              		.loc 1 239 21
 1900 0224 204B     		ldr	r3, .L119
 1901 0226 5B89     		ldrh	r3, [r3, #10]
ARM GAS  /tmp/ccRHtd69.s 			page 47


 1902              		.loc 1 239 4
 1903 0228 0333     		adds	r3, r3, #3
 1904 022a 9BB2     		uxth	r3, r3
 1905 022c 1846     		mov	r0, r3
 1906 022e FFF7FEFF 		bl	LCD_WR_REG
 1907              		.loc 1 239 52
 1908 0232 1D4B     		ldr	r3, .L119
 1909 0234 1B88     		ldrh	r3, [r3]
 1910              		.loc 1 239 58
 1911 0236 013B     		subs	r3, r3, #1
 1912 0238 9BB2     		uxth	r3, r3
 1913              		.loc 1 239 33
 1914 023a DBB2     		uxtb	r3, r3
 1915 023c 9BB2     		uxth	r3, r3
 1916 023e 1846     		mov	r0, r3
 1917 0240 FFF7FEFF 		bl	LCD_WR_DATA
 240:hardware/src/lcd.c **** 			LCD_WR_REG(lcddev.setycmd);LCD_WR_DATA(0); 
 1918              		.loc 1 240 4
 1919 0244 184B     		ldr	r3, .L119
 1920 0246 9B89     		ldrh	r3, [r3, #12]
 1921 0248 1846     		mov	r0, r3
 1922 024a FFF7FEFF 		bl	LCD_WR_REG
 1923              		.loc 1 240 31
 1924 024e 0020     		movs	r0, #0
 1925 0250 FFF7FEFF 		bl	LCD_WR_DATA
 241:hardware/src/lcd.c **** 			LCD_WR_REG(lcddev.setycmd+1);LCD_WR_DATA(0); 
 1926              		.loc 1 241 21
 1927 0254 144B     		ldr	r3, .L119
 1928 0256 9B89     		ldrh	r3, [r3, #12]
 1929              		.loc 1 241 4
 1930 0258 0133     		adds	r3, r3, #1
 1931 025a 9BB2     		uxth	r3, r3
 1932 025c 1846     		mov	r0, r3
 1933 025e FFF7FEFF 		bl	LCD_WR_REG
 1934              		.loc 1 241 33
 1935 0262 0020     		movs	r0, #0
 1936 0264 FFF7FEFF 		bl	LCD_WR_DATA
 242:hardware/src/lcd.c **** 			LCD_WR_REG(lcddev.setycmd+2);LCD_WR_DATA((lcddev.height-1)>>8); 
 1937              		.loc 1 242 21
 1938 0268 0F4B     		ldr	r3, .L119
 1939 026a 9B89     		ldrh	r3, [r3, #12]
 1940              		.loc 1 242 4
 1941 026c 0233     		adds	r3, r3, #2
 1942 026e 9BB2     		uxth	r3, r3
 1943 0270 1846     		mov	r0, r3
 1944 0272 FFF7FEFF 		bl	LCD_WR_REG
 1945              		.loc 1 242 52
 1946 0276 0C4B     		ldr	r3, .L119
 1947 0278 5B88     		ldrh	r3, [r3, #2]
 1948              		.loc 1 242 59
 1949 027a 013B     		subs	r3, r3, #1
 1950              		.loc 1 242 62
 1951 027c 1B12     		asrs	r3, r3, #8
 1952              		.loc 1 242 33
 1953 027e 9BB2     		uxth	r3, r3
 1954 0280 1846     		mov	r0, r3
 1955 0282 FFF7FEFF 		bl	LCD_WR_DATA
ARM GAS  /tmp/ccRHtd69.s 			page 48


 243:hardware/src/lcd.c **** 			LCD_WR_REG(lcddev.setycmd+3);LCD_WR_DATA((lcddev.height-1)&0XFF);
 1956              		.loc 1 243 21
 1957 0286 084B     		ldr	r3, .L119
 1958 0288 9B89     		ldrh	r3, [r3, #12]
 1959              		.loc 1 243 4
 1960 028a 0333     		adds	r3, r3, #3
 1961 028c 9BB2     		uxth	r3, r3
 1962 028e 1846     		mov	r0, r3
 1963 0290 FFF7FEFF 		bl	LCD_WR_REG
 1964              		.loc 1 243 52
 1965 0294 044B     		ldr	r3, .L119
 1966 0296 5B88     		ldrh	r3, [r3, #2]
 1967              		.loc 1 243 59
 1968 0298 013B     		subs	r3, r3, #1
 1969 029a 9BB2     		uxth	r3, r3
 1970              		.loc 1 243 33
 1971 029c DBB2     		uxtb	r3, r3
 1972 029e 9BB2     		uxth	r3, r3
 1973 02a0 1846     		mov	r0, r3
 1974 02a2 FFF7FEFF 		bl	LCD_WR_DATA
 234:hardware/src/lcd.c **** 		{
 1975              		.loc 1 234 5
 1976 02a6 90E0     		b	.L105
 1977              	.L120:
 1978              		.align	2
 1979              	.L119:
 1980 02a8 00000000 		.word	lcddev
 1981              	.L103:
 244:hardware/src/lcd.c **** 		}else
 245:hardware/src/lcd.c **** 		{
 246:hardware/src/lcd.c **** 			LCD_WR_REG(lcddev.setxcmd); 
 1982              		.loc 1 246 4
 1983 02ac 494B     		ldr	r3, .L121
 1984 02ae 5B89     		ldrh	r3, [r3, #10]
 1985 02b0 1846     		mov	r0, r3
 1986 02b2 FFF7FEFF 		bl	LCD_WR_REG
 247:hardware/src/lcd.c **** 			LCD_WR_DATA(0);LCD_WR_DATA(0);
 1987              		.loc 1 247 4
 1988 02b6 0020     		movs	r0, #0
 1989 02b8 FFF7FEFF 		bl	LCD_WR_DATA
 1990              		.loc 1 247 19
 1991 02bc 0020     		movs	r0, #0
 1992 02be FFF7FEFF 		bl	LCD_WR_DATA
 248:hardware/src/lcd.c **** 			LCD_WR_DATA((lcddev.width-1)>>8);LCD_WR_DATA((lcddev.width-1)&0XFF);
 1993              		.loc 1 248 23
 1994 02c2 444B     		ldr	r3, .L121
 1995 02c4 1B88     		ldrh	r3, [r3]
 1996              		.loc 1 248 29
 1997 02c6 013B     		subs	r3, r3, #1
 1998              		.loc 1 248 32
 1999 02c8 1B12     		asrs	r3, r3, #8
 2000              		.loc 1 248 4
 2001 02ca 9BB2     		uxth	r3, r3
 2002 02cc 1846     		mov	r0, r3
 2003 02ce FFF7FEFF 		bl	LCD_WR_DATA
 2004              		.loc 1 248 56
 2005 02d2 404B     		ldr	r3, .L121
ARM GAS  /tmp/ccRHtd69.s 			page 49


 2006 02d4 1B88     		ldrh	r3, [r3]
 2007              		.loc 1 248 62
 2008 02d6 013B     		subs	r3, r3, #1
 2009 02d8 9BB2     		uxth	r3, r3
 2010              		.loc 1 248 37
 2011 02da DBB2     		uxtb	r3, r3
 2012 02dc 9BB2     		uxth	r3, r3
 2013 02de 1846     		mov	r0, r3
 2014 02e0 FFF7FEFF 		bl	LCD_WR_DATA
 249:hardware/src/lcd.c **** 			LCD_WR_REG(lcddev.setycmd); 
 2015              		.loc 1 249 4
 2016 02e4 3B4B     		ldr	r3, .L121
 2017 02e6 9B89     		ldrh	r3, [r3, #12]
 2018 02e8 1846     		mov	r0, r3
 2019 02ea FFF7FEFF 		bl	LCD_WR_REG
 250:hardware/src/lcd.c **** 			LCD_WR_DATA(0);LCD_WR_DATA(0);
 2020              		.loc 1 250 4
 2021 02ee 0020     		movs	r0, #0
 2022 02f0 FFF7FEFF 		bl	LCD_WR_DATA
 2023              		.loc 1 250 19
 2024 02f4 0020     		movs	r0, #0
 2025 02f6 FFF7FEFF 		bl	LCD_WR_DATA
 251:hardware/src/lcd.c **** 			LCD_WR_DATA((lcddev.height-1)>>8);LCD_WR_DATA((lcddev.height-1)&0XFF);  
 2026              		.loc 1 251 23
 2027 02fa 364B     		ldr	r3, .L121
 2028 02fc 5B88     		ldrh	r3, [r3, #2]
 2029              		.loc 1 251 30
 2030 02fe 013B     		subs	r3, r3, #1
 2031              		.loc 1 251 33
 2032 0300 1B12     		asrs	r3, r3, #8
 2033              		.loc 1 251 4
 2034 0302 9BB2     		uxth	r3, r3
 2035 0304 1846     		mov	r0, r3
 2036 0306 FFF7FEFF 		bl	LCD_WR_DATA
 2037              		.loc 1 251 57
 2038 030a 324B     		ldr	r3, .L121
 2039 030c 5B88     		ldrh	r3, [r3, #2]
 2040              		.loc 1 251 64
 2041 030e 013B     		subs	r3, r3, #1
 2042 0310 9BB2     		uxth	r3, r3
 2043              		.loc 1 251 38
 2044 0312 DBB2     		uxtb	r3, r3
 2045 0314 9BB2     		uxth	r3, r3
 2046 0316 1846     		mov	r0, r3
 2047 0318 FFF7FEFF 		bl	LCD_WR_DATA
 234:hardware/src/lcd.c **** 		{
 2048              		.loc 1 234 5
 2049 031c 55E0     		b	.L105
 2050              	.L84:
 252:hardware/src/lcd.c **** 		}
 253:hardware/src/lcd.c ****   	}else 
 254:hardware/src/lcd.c **** 	{
 255:hardware/src/lcd.c **** 		switch(dir)
 2051              		.loc 1 255 3
 2052 031e FB79     		ldrb	r3, [r7, #7]	@ zero_extendqisi2
 2053 0320 072B     		cmp	r3, #7
 2054 0322 36D8     		bhi	.L106
ARM GAS  /tmp/ccRHtd69.s 			page 50


 2055 0324 01A2     		adr	r2, .L108
 2056 0326 52F823F0 		ldr	pc, [r2, r3, lsl #2]
 2057 032a 00BF     		.p2align 2
 2058              	.L108:
 2059 032c 4D030000 		.word	.L115+1
 2060 0330 57030000 		.word	.L114+1
 2061 0334 61030000 		.word	.L113+1
 2062 0338 93030000 		.word	.L106+1
 2063 033c 6B030000 		.word	.L111+1
 2064 0340 75030000 		.word	.L110+1
 2065 0344 7F030000 		.word	.L109+1
 2066 0348 89030000 		.word	.L107+1
 2067              		.p2align 1
 2068              	.L115:
 256:hardware/src/lcd.c **** 		{
 257:hardware/src/lcd.c **** 			case L2R_U2D://从左到右,从上到下
 258:hardware/src/lcd.c **** 				regval|=(1<<5)|(1<<4)|(0<<3); 
 2069              		.loc 1 258 11
 2070 034c FB89     		ldrh	r3, [r7, #14]	@ movhi
 2071 034e 43F03003 		orr	r3, r3, #48
 2072 0352 FB81     		strh	r3, [r7, #14]	@ movhi
 259:hardware/src/lcd.c **** 				break;
 2073              		.loc 1 259 5
 2074 0354 1DE0     		b	.L106
 2075              	.L114:
 260:hardware/src/lcd.c **** 			case L2R_D2U://从左到右,从下到上
 261:hardware/src/lcd.c **** 				regval|=(0<<5)|(1<<4)|(0<<3); 
 2076              		.loc 1 261 11
 2077 0356 FB89     		ldrh	r3, [r7, #14]	@ movhi
 2078 0358 43F01003 		orr	r3, r3, #16
 2079 035c FB81     		strh	r3, [r7, #14]	@ movhi
 262:hardware/src/lcd.c **** 				break;
 2080              		.loc 1 262 5
 2081 035e 18E0     		b	.L106
 2082              	.L113:
 263:hardware/src/lcd.c **** 			case R2L_U2D://从右到左,从上到下
 264:hardware/src/lcd.c **** 				regval|=(1<<5)|(0<<4)|(0<<3);
 2083              		.loc 1 264 11
 2084 0360 FB89     		ldrh	r3, [r7, #14]	@ movhi
 2085 0362 43F02003 		orr	r3, r3, #32
 2086 0366 FB81     		strh	r3, [r7, #14]	@ movhi
 265:hardware/src/lcd.c **** 				break;
 2087              		.loc 1 265 5
 2088 0368 13E0     		b	.L106
 2089              	.L111:
 266:hardware/src/lcd.c **** 			case R2L_D2U://从右到左,从下到上
 267:hardware/src/lcd.c **** 				regval|=(0<<5)|(0<<4)|(0<<3); 
 268:hardware/src/lcd.c **** 				break;	 
 269:hardware/src/lcd.c **** 			case U2D_L2R://从上到下,从左到右
 270:hardware/src/lcd.c **** 				regval|=(1<<5)|(1<<4)|(1<<3); 
 2090              		.loc 1 270 11
 2091 036a FB89     		ldrh	r3, [r7, #14]	@ movhi
 2092 036c 43F03803 		orr	r3, r3, #56
 2093 0370 FB81     		strh	r3, [r7, #14]	@ movhi
 271:hardware/src/lcd.c **** 				break;
 2094              		.loc 1 271 5
 2095 0372 0EE0     		b	.L106
ARM GAS  /tmp/ccRHtd69.s 			page 51


 2096              	.L110:
 272:hardware/src/lcd.c **** 			case U2D_R2L://从上到下,从右到左
 273:hardware/src/lcd.c **** 				regval|=(1<<5)|(0<<4)|(1<<3); 
 2097              		.loc 1 273 11
 2098 0374 FB89     		ldrh	r3, [r7, #14]	@ movhi
 2099 0376 43F02803 		orr	r3, r3, #40
 2100 037a FB81     		strh	r3, [r7, #14]	@ movhi
 274:hardware/src/lcd.c **** 				break;
 2101              		.loc 1 274 5
 2102 037c 09E0     		b	.L106
 2103              	.L109:
 275:hardware/src/lcd.c **** 			case D2U_L2R://从下到上,从左到右
 276:hardware/src/lcd.c **** 				regval|=(0<<5)|(1<<4)|(1<<3); 
 2104              		.loc 1 276 11
 2105 037e FB89     		ldrh	r3, [r7, #14]	@ movhi
 2106 0380 43F01803 		orr	r3, r3, #24
 2107 0384 FB81     		strh	r3, [r7, #14]	@ movhi
 277:hardware/src/lcd.c **** 				break;
 2108              		.loc 1 277 5
 2109 0386 04E0     		b	.L106
 2110              	.L107:
 278:hardware/src/lcd.c **** 			case D2U_R2L://从下到上,从右到左
 279:hardware/src/lcd.c **** 				regval|=(0<<5)|(0<<4)|(1<<3); 
 2111              		.loc 1 279 11
 2112 0388 FB89     		ldrh	r3, [r7, #14]	@ movhi
 2113 038a 43F00803 		orr	r3, r3, #8
 2114 038e FB81     		strh	r3, [r7, #14]	@ movhi
 280:hardware/src/lcd.c **** 				break;	 
 2115              		.loc 1 280 5
 2116 0390 00BF     		nop
 2117              	.L106:
 281:hardware/src/lcd.c **** 		}
 282:hardware/src/lcd.c **** 		if(lcddev.id==0x8989)//8989 IC
 2118              		.loc 1 282 12
 2119 0392 104B     		ldr	r3, .L121
 2120 0394 9B88     		ldrh	r3, [r3, #4]
 2121              		.loc 1 282 5
 2122 0396 48F68912 		movw	r2, #35209
 2123 039a 9342     		cmp	r3, r2
 2124 039c 08D1     		bne	.L116
 283:hardware/src/lcd.c **** 		{
 284:hardware/src/lcd.c **** 			dirreg=0X11;
 2125              		.loc 1 284 10
 2126 039e 1123     		movs	r3, #17
 2127 03a0 BB81     		strh	r3, [r7, #12]	@ movhi
 285:hardware/src/lcd.c **** 			regval|=0X6040;	//65K   
 2128              		.loc 1 285 10
 2129 03a2 FB89     		ldrh	r3, [r7, #14]	@ movhi
 2130 03a4 43F4C043 		orr	r3, r3, #24576
 2131 03a8 43F04003 		orr	r3, r3, #64
 2132 03ac FB81     		strh	r3, [r7, #14]	@ movhi
 2133 03ae 05E0     		b	.L117
 2134              	.L116:
 286:hardware/src/lcd.c **** 	 	}else//其他驱动IC		  
 287:hardware/src/lcd.c **** 		{
 288:hardware/src/lcd.c **** 			dirreg=0X03;
 2135              		.loc 1 288 10
ARM GAS  /tmp/ccRHtd69.s 			page 52


 2136 03b0 0323     		movs	r3, #3
 2137 03b2 BB81     		strh	r3, [r7, #12]	@ movhi
 289:hardware/src/lcd.c **** 			regval|=1<<12;  
 2138              		.loc 1 289 10
 2139 03b4 FB89     		ldrh	r3, [r7, #14]	@ movhi
 2140 03b6 43F48053 		orr	r3, r3, #4096
 2141 03ba FB81     		strh	r3, [r7, #14]	@ movhi
 2142              	.L117:
 290:hardware/src/lcd.c **** 		}
 291:hardware/src/lcd.c **** 		LCD_WriteReg(dirreg,regval);
 2143              		.loc 1 291 3
 2144 03bc FA89     		ldrh	r2, [r7, #14]
 2145 03be BB89     		ldrh	r3, [r7, #12]
 2146 03c0 1146     		mov	r1, r2
 2147 03c2 1846     		mov	r0, r3
 2148 03c4 FFF7FEFF 		bl	LCD_WriteReg
 292:hardware/src/lcd.c **** 	}
 293:hardware/src/lcd.c **** }   
 2149              		.loc 1 293 1
 2150 03c8 00BF     		nop
 2151              	.L105:
 2152 03ca 00BF     		nop
 2153 03cc 1037     		adds	r7, r7, #16
 2154              	.LCFI66:
 2155              		.cfi_def_cfa_offset 8
 2156 03ce BD46     		mov	sp, r7
 2157              	.LCFI67:
 2158              		.cfi_def_cfa_register 13
 2159              		@ sp needed
 2160 03d0 80BD     		pop	{r7, pc}
 2161              	.L122:
 2162 03d2 00BF     		.align	2
 2163              	.L121:
 2164 03d4 00000000 		.word	lcddev
 2165              		.cfi_endproc
 2166              	.LFE79:
 2168              		.section	.text.LCD_DrawPoint,"ax",%progbits
 2169              		.align	1
 2170              		.global	LCD_DrawPoint
 2171              		.syntax unified
 2172              		.thumb
 2173              		.thumb_func
 2174              		.fpu softvfp
 2176              	LCD_DrawPoint:
 2177              	.LFB80:
 294:hardware/src/lcd.c **** //画点
 295:hardware/src/lcd.c **** //x,y:坐标
 296:hardware/src/lcd.c **** //POINT_COLOR:此点的颜色
 297:hardware/src/lcd.c **** void LCD_DrawPoint(u16 x,u16 y)
 298:hardware/src/lcd.c **** {
 2178              		.loc 1 298 1
 2179              		.cfi_startproc
 2180              		@ args = 0, pretend = 0, frame = 8
 2181              		@ frame_needed = 1, uses_anonymous_args = 0
 2182 0000 80B5     		push	{r7, lr}
 2183              	.LCFI68:
 2184              		.cfi_def_cfa_offset 8
ARM GAS  /tmp/ccRHtd69.s 			page 53


 2185              		.cfi_offset 7, -8
 2186              		.cfi_offset 14, -4
 2187 0002 82B0     		sub	sp, sp, #8
 2188              	.LCFI69:
 2189              		.cfi_def_cfa_offset 16
 2190 0004 00AF     		add	r7, sp, #0
 2191              	.LCFI70:
 2192              		.cfi_def_cfa_register 7
 2193 0006 0346     		mov	r3, r0
 2194 0008 0A46     		mov	r2, r1
 2195 000a FB80     		strh	r3, [r7, #6]	@ movhi
 2196 000c 1346     		mov	r3, r2	@ movhi
 2197 000e BB80     		strh	r3, [r7, #4]	@ movhi
 299:hardware/src/lcd.c **** 	LCD_SetCursor(x,y);		//设置光标位置 
 2198              		.loc 1 299 2
 2199 0010 BA88     		ldrh	r2, [r7, #4]
 2200 0012 FB88     		ldrh	r3, [r7, #6]
 2201 0014 1146     		mov	r1, r2
 2202 0016 1846     		mov	r0, r3
 2203 0018 FFF7FEFF 		bl	LCD_SetCursor
 300:hardware/src/lcd.c **** 	LCD_WriteRAM_Prepare();	//开始写入GRAM
 2204              		.loc 1 300 2
 2205 001c FFF7FEFF 		bl	LCD_WriteRAM_Prepare
 301:hardware/src/lcd.c **** 	LCD->LCD_RAM=POINT_COLOR; 
 2206              		.loc 1 301 5
 2207 0020 034B     		ldr	r3, .L124
 2208              		.loc 1 301 14
 2209 0022 044A     		ldr	r2, .L124+4
 2210 0024 1288     		ldrh	r2, [r2]
 2211 0026 5A80     		strh	r2, [r3, #2]	@ movhi
 302:hardware/src/lcd.c **** }
 2212              		.loc 1 302 1
 2213 0028 00BF     		nop
 2214 002a 0837     		adds	r7, r7, #8
 2215              	.LCFI71:
 2216              		.cfi_def_cfa_offset 8
 2217 002c BD46     		mov	sp, r7
 2218              	.LCFI72:
 2219              		.cfi_def_cfa_register 13
 2220              		@ sp needed
 2221 002e 80BD     		pop	{r7, pc}
 2222              	.L125:
 2223              		.align	2
 2224              	.L124:
 2225 0030 FE07006C 		.word	1811941374
 2226 0034 00000000 		.word	POINT_COLOR
 2227              		.cfi_endproc
 2228              	.LFE80:
 2230              		.section	.text.LCD_Fast_DrawPoint,"ax",%progbits
 2231              		.align	1
 2232              		.global	LCD_Fast_DrawPoint
 2233              		.syntax unified
 2234              		.thumb
 2235              		.thumb_func
 2236              		.fpu softvfp
 2238              	LCD_Fast_DrawPoint:
 2239              	.LFB81:
ARM GAS  /tmp/ccRHtd69.s 			page 54


 303:hardware/src/lcd.c **** //快速画点
 304:hardware/src/lcd.c **** //x,y:坐标
 305:hardware/src/lcd.c **** //color:颜色
 306:hardware/src/lcd.c **** void LCD_Fast_DrawPoint(u16 x,u16 y,u16 color)
 307:hardware/src/lcd.c **** {	   
 2240              		.loc 1 307 1
 2241              		.cfi_startproc
 2242              		@ args = 0, pretend = 0, frame = 8
 2243              		@ frame_needed = 1, uses_anonymous_args = 0
 2244 0000 80B5     		push	{r7, lr}
 2245              	.LCFI73:
 2246              		.cfi_def_cfa_offset 8
 2247              		.cfi_offset 7, -8
 2248              		.cfi_offset 14, -4
 2249 0002 82B0     		sub	sp, sp, #8
 2250              	.LCFI74:
 2251              		.cfi_def_cfa_offset 16
 2252 0004 00AF     		add	r7, sp, #0
 2253              	.LCFI75:
 2254              		.cfi_def_cfa_register 7
 2255 0006 0346     		mov	r3, r0
 2256 0008 FB80     		strh	r3, [r7, #6]	@ movhi
 2257 000a 0B46     		mov	r3, r1	@ movhi
 2258 000c BB80     		strh	r3, [r7, #4]	@ movhi
 2259 000e 1346     		mov	r3, r2	@ movhi
 2260 0010 7B80     		strh	r3, [r7, #2]	@ movhi
 308:hardware/src/lcd.c **** 	if(lcddev.id==0X9341||lcddev.id==0X5310)
 2261              		.loc 1 308 11
 2262 0012 5F4B     		ldr	r3, .L134
 2263 0014 9B88     		ldrh	r3, [r3, #4]
 2264              		.loc 1 308 4
 2265 0016 49F24132 		movw	r2, #37697
 2266 001a 9342     		cmp	r3, r2
 2267 001c 05D0     		beq	.L127
 2268              		.loc 1 308 30 discriminator 1
 2269 001e 5C4B     		ldr	r3, .L134
 2270 0020 9B88     		ldrh	r3, [r3, #4]
 2271              		.loc 1 308 22 discriminator 1
 2272 0022 45F21032 		movw	r2, #21264
 2273 0026 9342     		cmp	r3, r2
 2274 0028 22D1     		bne	.L128
 2275              	.L127:
 309:hardware/src/lcd.c **** 	{
 310:hardware/src/lcd.c **** 		LCD_WR_REG(lcddev.setxcmd); 
 2276              		.loc 1 310 3
 2277 002a 594B     		ldr	r3, .L134
 2278 002c 5B89     		ldrh	r3, [r3, #10]
 2279 002e 1846     		mov	r0, r3
 2280 0030 FFF7FEFF 		bl	LCD_WR_REG
 311:hardware/src/lcd.c **** 		LCD_WR_DATA(x>>8); 
 2281              		.loc 1 311 3
 2282 0034 FB88     		ldrh	r3, [r7, #6]
 2283 0036 1B0A     		lsrs	r3, r3, #8
 2284 0038 9BB2     		uxth	r3, r3
 2285 003a 1846     		mov	r0, r3
 2286 003c FFF7FEFF 		bl	LCD_WR_DATA
 312:hardware/src/lcd.c **** 		LCD_WR_DATA(x&0XFF);	 
ARM GAS  /tmp/ccRHtd69.s 			page 55


 2287              		.loc 1 312 3
 2288 0040 FB88     		ldrh	r3, [r7, #6]	@ movhi
 2289 0042 DBB2     		uxtb	r3, r3
 2290 0044 9BB2     		uxth	r3, r3
 2291 0046 1846     		mov	r0, r3
 2292 0048 FFF7FEFF 		bl	LCD_WR_DATA
 313:hardware/src/lcd.c **** 		LCD_WR_REG(lcddev.setycmd); 
 2293              		.loc 1 313 3
 2294 004c 504B     		ldr	r3, .L134
 2295 004e 9B89     		ldrh	r3, [r3, #12]
 2296 0050 1846     		mov	r0, r3
 2297 0052 FFF7FEFF 		bl	LCD_WR_REG
 314:hardware/src/lcd.c **** 		LCD_WR_DATA(y>>8); 
 2298              		.loc 1 314 3
 2299 0056 BB88     		ldrh	r3, [r7, #4]
 2300 0058 1B0A     		lsrs	r3, r3, #8
 2301 005a 9BB2     		uxth	r3, r3
 2302 005c 1846     		mov	r0, r3
 2303 005e FFF7FEFF 		bl	LCD_WR_DATA
 315:hardware/src/lcd.c **** 		LCD_WR_DATA(y&0XFF);
 2304              		.loc 1 315 3
 2305 0062 BB88     		ldrh	r3, [r7, #4]	@ movhi
 2306 0064 DBB2     		uxtb	r3, r3
 2307 0066 9BB2     		uxth	r3, r3
 2308 0068 1846     		mov	r0, r3
 2309 006a FFF7FEFF 		bl	LCD_WR_DATA
 2310 006e 83E0     		b	.L129
 2311              	.L128:
 316:hardware/src/lcd.c **** 	}else if(lcddev.id==0X5510)
 2312              		.loc 1 316 17
 2313 0070 474B     		ldr	r3, .L134
 2314 0072 9B88     		ldrh	r3, [r3, #4]
 2315              		.loc 1 316 10
 2316 0074 45F21052 		movw	r2, #21776
 2317 0078 9342     		cmp	r3, r2
 2318 007a 30D1     		bne	.L130
 317:hardware/src/lcd.c **** 	{
 318:hardware/src/lcd.c **** 		LCD_WR_REG(lcddev.setxcmd);LCD_WR_DATA(x>>8);  
 2319              		.loc 1 318 3
 2320 007c 444B     		ldr	r3, .L134
 2321 007e 5B89     		ldrh	r3, [r3, #10]
 2322 0080 1846     		mov	r0, r3
 2323 0082 FFF7FEFF 		bl	LCD_WR_REG
 2324              		.loc 1 318 30
 2325 0086 FB88     		ldrh	r3, [r7, #6]
 2326 0088 1B0A     		lsrs	r3, r3, #8
 2327 008a 9BB2     		uxth	r3, r3
 2328 008c 1846     		mov	r0, r3
 2329 008e FFF7FEFF 		bl	LCD_WR_DATA
 319:hardware/src/lcd.c **** 		LCD_WR_REG(lcddev.setxcmd+1);LCD_WR_DATA(x&0XFF);	  
 2330              		.loc 1 319 20
 2331 0092 3F4B     		ldr	r3, .L134
 2332 0094 5B89     		ldrh	r3, [r3, #10]
 2333              		.loc 1 319 3
 2334 0096 0133     		adds	r3, r3, #1
 2335 0098 9BB2     		uxth	r3, r3
 2336 009a 1846     		mov	r0, r3
ARM GAS  /tmp/ccRHtd69.s 			page 56


 2337 009c FFF7FEFF 		bl	LCD_WR_REG
 2338              		.loc 1 319 32
 2339 00a0 FB88     		ldrh	r3, [r7, #6]	@ movhi
 2340 00a2 DBB2     		uxtb	r3, r3
 2341 00a4 9BB2     		uxth	r3, r3
 2342 00a6 1846     		mov	r0, r3
 2343 00a8 FFF7FEFF 		bl	LCD_WR_DATA
 320:hardware/src/lcd.c **** 		LCD_WR_REG(lcddev.setycmd);LCD_WR_DATA(y>>8);  
 2344              		.loc 1 320 3
 2345 00ac 384B     		ldr	r3, .L134
 2346 00ae 9B89     		ldrh	r3, [r3, #12]
 2347 00b0 1846     		mov	r0, r3
 2348 00b2 FFF7FEFF 		bl	LCD_WR_REG
 2349              		.loc 1 320 30
 2350 00b6 BB88     		ldrh	r3, [r7, #4]
 2351 00b8 1B0A     		lsrs	r3, r3, #8
 2352 00ba 9BB2     		uxth	r3, r3
 2353 00bc 1846     		mov	r0, r3
 2354 00be FFF7FEFF 		bl	LCD_WR_DATA
 321:hardware/src/lcd.c **** 		LCD_WR_REG(lcddev.setycmd+1);LCD_WR_DATA(y&0XFF); 
 2355              		.loc 1 321 20
 2356 00c2 334B     		ldr	r3, .L134
 2357 00c4 9B89     		ldrh	r3, [r3, #12]
 2358              		.loc 1 321 3
 2359 00c6 0133     		adds	r3, r3, #1
 2360 00c8 9BB2     		uxth	r3, r3
 2361 00ca 1846     		mov	r0, r3
 2362 00cc FFF7FEFF 		bl	LCD_WR_REG
 2363              		.loc 1 321 32
 2364 00d0 BB88     		ldrh	r3, [r7, #4]	@ movhi
 2365 00d2 DBB2     		uxtb	r3, r3
 2366 00d4 9BB2     		uxth	r3, r3
 2367 00d6 1846     		mov	r0, r3
 2368 00d8 FFF7FEFF 		bl	LCD_WR_DATA
 2369 00dc 4CE0     		b	.L129
 2370              	.L130:
 322:hardware/src/lcd.c **** 	}else if(lcddev.id==0X6804)
 2371              		.loc 1 322 17
 2372 00de 2C4B     		ldr	r3, .L134
 2373 00e0 9B88     		ldrh	r3, [r3, #4]
 2374              		.loc 1 322 10
 2375 00e2 46F60402 		movw	r2, #26628
 2376 00e6 9342     		cmp	r3, r2
 2377 00e8 2DD1     		bne	.L131
 323:hardware/src/lcd.c **** 	{		    
 324:hardware/src/lcd.c **** 		if(lcddev.dir==1)x=lcddev.width-1-x;//横屏时处理
 2378              		.loc 1 324 12
 2379 00ea 294B     		ldr	r3, .L134
 2380 00ec 9B79     		ldrb	r3, [r3, #6]	@ zero_extendqisi2
 2381              		.loc 1 324 5
 2382 00ee 012B     		cmp	r3, #1
 2383 00f0 06D1     		bne	.L132
 2384              		.loc 1 324 28 discriminator 1
 2385 00f2 274B     		ldr	r3, .L134
 2386 00f4 1A88     		ldrh	r2, [r3]
 2387              		.loc 1 324 36 discriminator 1
 2388 00f6 FB88     		ldrh	r3, [r7, #6]	@ movhi
ARM GAS  /tmp/ccRHtd69.s 			page 57


 2389 00f8 D31A     		subs	r3, r2, r3
 2390 00fa 9BB2     		uxth	r3, r3
 2391              		.loc 1 324 21 discriminator 1
 2392 00fc 013B     		subs	r3, r3, #1
 2393 00fe FB80     		strh	r3, [r7, #6]	@ movhi
 2394              	.L132:
 325:hardware/src/lcd.c **** 		LCD_WR_REG(lcddev.setxcmd); 
 2395              		.loc 1 325 3
 2396 0100 234B     		ldr	r3, .L134
 2397 0102 5B89     		ldrh	r3, [r3, #10]
 2398 0104 1846     		mov	r0, r3
 2399 0106 FFF7FEFF 		bl	LCD_WR_REG
 326:hardware/src/lcd.c **** 		LCD_WR_DATA(x>>8); 
 2400              		.loc 1 326 3
 2401 010a FB88     		ldrh	r3, [r7, #6]
 2402 010c 1B0A     		lsrs	r3, r3, #8
 2403 010e 9BB2     		uxth	r3, r3
 2404 0110 1846     		mov	r0, r3
 2405 0112 FFF7FEFF 		bl	LCD_WR_DATA
 327:hardware/src/lcd.c **** 		LCD_WR_DATA(x&0XFF);	 
 2406              		.loc 1 327 3
 2407 0116 FB88     		ldrh	r3, [r7, #6]	@ movhi
 2408 0118 DBB2     		uxtb	r3, r3
 2409 011a 9BB2     		uxth	r3, r3
 2410 011c 1846     		mov	r0, r3
 2411 011e FFF7FEFF 		bl	LCD_WR_DATA
 328:hardware/src/lcd.c **** 		LCD_WR_REG(lcddev.setycmd); 
 2412              		.loc 1 328 3
 2413 0122 1B4B     		ldr	r3, .L134
 2414 0124 9B89     		ldrh	r3, [r3, #12]
 2415 0126 1846     		mov	r0, r3
 2416 0128 FFF7FEFF 		bl	LCD_WR_REG
 329:hardware/src/lcd.c **** 		LCD_WR_DATA(y>>8); 
 2417              		.loc 1 329 3
 2418 012c BB88     		ldrh	r3, [r7, #4]
 2419 012e 1B0A     		lsrs	r3, r3, #8
 2420 0130 9BB2     		uxth	r3, r3
 2421 0132 1846     		mov	r0, r3
 2422 0134 FFF7FEFF 		bl	LCD_WR_DATA
 330:hardware/src/lcd.c **** 		LCD_WR_DATA(y&0XFF);
 2423              		.loc 1 330 3
 2424 0138 BB88     		ldrh	r3, [r7, #4]	@ movhi
 2425 013a DBB2     		uxtb	r3, r3
 2426 013c 9BB2     		uxth	r3, r3
 2427 013e 1846     		mov	r0, r3
 2428 0140 FFF7FEFF 		bl	LCD_WR_DATA
 2429 0144 18E0     		b	.L129
 2430              	.L131:
 331:hardware/src/lcd.c **** 	}else
 332:hardware/src/lcd.c **** 	{
 333:hardware/src/lcd.c ****  		if(lcddev.dir==1)x=lcddev.width-1-x;//横屏其实就是调转x,y坐标
 2431              		.loc 1 333 13
 2432 0146 124B     		ldr	r3, .L134
 2433 0148 9B79     		ldrb	r3, [r3, #6]	@ zero_extendqisi2
 2434              		.loc 1 333 6
 2435 014a 012B     		cmp	r3, #1
 2436 014c 06D1     		bne	.L133
ARM GAS  /tmp/ccRHtd69.s 			page 58


 2437              		.loc 1 333 29 discriminator 1
 2438 014e 104B     		ldr	r3, .L134
 2439 0150 1A88     		ldrh	r2, [r3]
 2440              		.loc 1 333 37 discriminator 1
 2441 0152 FB88     		ldrh	r3, [r7, #6]	@ movhi
 2442 0154 D31A     		subs	r3, r2, r3
 2443 0156 9BB2     		uxth	r3, r3
 2444              		.loc 1 333 22 discriminator 1
 2445 0158 013B     		subs	r3, r3, #1
 2446 015a FB80     		strh	r3, [r7, #6]	@ movhi
 2447              	.L133:
 334:hardware/src/lcd.c **** 		LCD_WriteReg(lcddev.setxcmd,x);
 2448              		.loc 1 334 3
 2449 015c 0C4B     		ldr	r3, .L134
 2450 015e 5B89     		ldrh	r3, [r3, #10]
 2451 0160 FA88     		ldrh	r2, [r7, #6]
 2452 0162 1146     		mov	r1, r2
 2453 0164 1846     		mov	r0, r3
 2454 0166 FFF7FEFF 		bl	LCD_WriteReg
 335:hardware/src/lcd.c **** 		LCD_WriteReg(lcddev.setycmd,y);
 2455              		.loc 1 335 3
 2456 016a 094B     		ldr	r3, .L134
 2457 016c 9B89     		ldrh	r3, [r3, #12]
 2458 016e BA88     		ldrh	r2, [r7, #4]
 2459 0170 1146     		mov	r1, r2
 2460 0172 1846     		mov	r0, r3
 2461 0174 FFF7FEFF 		bl	LCD_WriteReg
 2462              	.L129:
 336:hardware/src/lcd.c **** 	}			 
 337:hardware/src/lcd.c **** 	LCD->LCD_REG=lcddev.wramcmd; 
 2463              		.loc 1 337 5
 2464 0178 064B     		ldr	r3, .L134+4
 2465              		.loc 1 337 21
 2466 017a 054A     		ldr	r2, .L134
 2467 017c 1289     		ldrh	r2, [r2, #8]
 2468              		.loc 1 337 14
 2469 017e 1A80     		strh	r2, [r3]	@ movhi
 338:hardware/src/lcd.c **** 	LCD->LCD_RAM=color; 
 2470              		.loc 1 338 5
 2471 0180 044A     		ldr	r2, .L134+4
 2472              		.loc 1 338 14
 2473 0182 7B88     		ldrh	r3, [r7, #2]	@ movhi
 2474 0184 5380     		strh	r3, [r2, #2]	@ movhi
 339:hardware/src/lcd.c **** }	 
 2475              		.loc 1 339 1
 2476 0186 00BF     		nop
 2477 0188 0837     		adds	r7, r7, #8
 2478              	.LCFI76:
 2479              		.cfi_def_cfa_offset 8
 2480 018a BD46     		mov	sp, r7
 2481              	.LCFI77:
 2482              		.cfi_def_cfa_register 13
 2483              		@ sp needed
 2484 018c 80BD     		pop	{r7, pc}
 2485              	.L135:
 2486 018e 00BF     		.align	2
 2487              	.L134:
ARM GAS  /tmp/ccRHtd69.s 			page 59


 2488 0190 00000000 		.word	lcddev
 2489 0194 FE07006C 		.word	1811941374
 2490              		.cfi_endproc
 2491              	.LFE81:
 2493              		.section	.text.LCD_Display_Dir,"ax",%progbits
 2494              		.align	1
 2495              		.global	LCD_Display_Dir
 2496              		.syntax unified
 2497              		.thumb
 2498              		.thumb_func
 2499              		.fpu softvfp
 2501              	LCD_Display_Dir:
 2502              	.LFB82:
 340:hardware/src/lcd.c **** 
 341:hardware/src/lcd.c **** 
 342:hardware/src/lcd.c **** //设置LCD显示方向
 343:hardware/src/lcd.c **** //dir:0,竖屏；1,横屏
 344:hardware/src/lcd.c **** void LCD_Display_Dir(u8 dir)
 345:hardware/src/lcd.c **** {
 2503              		.loc 1 345 1
 2504              		.cfi_startproc
 2505              		@ args = 0, pretend = 0, frame = 8
 2506              		@ frame_needed = 1, uses_anonymous_args = 0
 2507 0000 80B5     		push	{r7, lr}
 2508              	.LCFI78:
 2509              		.cfi_def_cfa_offset 8
 2510              		.cfi_offset 7, -8
 2511              		.cfi_offset 14, -4
 2512 0002 82B0     		sub	sp, sp, #8
 2513              	.LCFI79:
 2514              		.cfi_def_cfa_offset 16
 2515 0004 00AF     		add	r7, sp, #0
 2516              	.LCFI80:
 2517              		.cfi_def_cfa_register 7
 2518 0006 0346     		mov	r3, r0
 2519 0008 FB71     		strb	r3, [r7, #7]
 346:hardware/src/lcd.c **** 	if(dir==0)			//竖屏
 2520              		.loc 1 346 4
 2521 000a FB79     		ldrb	r3, [r7, #7]	@ zero_extendqisi2
 2522 000c 002B     		cmp	r3, #0
 2523 000e 6FD1     		bne	.L137
 347:hardware/src/lcd.c **** 	{
 348:hardware/src/lcd.c **** 		lcddev.dir=0;	//竖屏
 2524              		.loc 1 348 13
 2525 0010 784B     		ldr	r3, .L154
 2526 0012 0022     		movs	r2, #0
 2527 0014 9A71     		strb	r2, [r3, #6]
 349:hardware/src/lcd.c **** 		lcddev.width=240;
 2528              		.loc 1 349 15
 2529 0016 774B     		ldr	r3, .L154
 2530 0018 F022     		movs	r2, #240
 2531 001a 1A80     		strh	r2, [r3]	@ movhi
 350:hardware/src/lcd.c **** 		lcddev.height=320;
 2532              		.loc 1 350 16
 2533 001c 754B     		ldr	r3, .L154
 2534 001e 4FF4A072 		mov	r2, #320
 2535 0022 5A80     		strh	r2, [r3, #2]	@ movhi
ARM GAS  /tmp/ccRHtd69.s 			page 60


 351:hardware/src/lcd.c **** 		if(lcddev.id==0X9341||lcddev.id==0X6804||lcddev.id==0X5310)
 2536              		.loc 1 351 12
 2537 0024 734B     		ldr	r3, .L154
 2538 0026 9B88     		ldrh	r3, [r3, #4]
 2539              		.loc 1 351 5
 2540 0028 49F24132 		movw	r2, #37697
 2541 002c 9342     		cmp	r3, r2
 2542 002e 0BD0     		beq	.L138
 2543              		.loc 1 351 31 discriminator 1
 2544 0030 704B     		ldr	r3, .L154
 2545 0032 9B88     		ldrh	r3, [r3, #4]
 2546              		.loc 1 351 23 discriminator 1
 2547 0034 46F60402 		movw	r2, #26628
 2548 0038 9342     		cmp	r3, r2
 2549 003a 05D0     		beq	.L138
 2550              		.loc 1 351 50 discriminator 2
 2551 003c 6D4B     		ldr	r3, .L154
 2552 003e 9B88     		ldrh	r3, [r3, #4]
 2553              		.loc 1 351 42 discriminator 2
 2554 0040 45F21032 		movw	r2, #21264
 2555 0044 9342     		cmp	r3, r2
 2556 0046 1ED1     		bne	.L139
 2557              	.L138:
 352:hardware/src/lcd.c **** 		{
 353:hardware/src/lcd.c **** 			lcddev.wramcmd=0X2C;
 2558              		.loc 1 353 18
 2559 0048 6A4B     		ldr	r3, .L154
 2560 004a 2C22     		movs	r2, #44
 2561 004c 1A81     		strh	r2, [r3, #8]	@ movhi
 354:hardware/src/lcd.c **** 	 		lcddev.setxcmd=0X2A;
 2562              		.loc 1 354 19
 2563 004e 694B     		ldr	r3, .L154
 2564 0050 2A22     		movs	r2, #42
 2565 0052 5A81     		strh	r2, [r3, #10]	@ movhi
 355:hardware/src/lcd.c **** 			lcddev.setycmd=0X2B;  	 
 2566              		.loc 1 355 18
 2567 0054 674B     		ldr	r3, .L154
 2568 0056 2B22     		movs	r2, #43
 2569 0058 9A81     		strh	r2, [r3, #12]	@ movhi
 356:hardware/src/lcd.c **** 			if(lcddev.id==0X6804||lcddev.id==0X5310)
 2570              		.loc 1 356 13
 2571 005a 664B     		ldr	r3, .L154
 2572 005c 9B88     		ldrh	r3, [r3, #4]
 2573              		.loc 1 356 6
 2574 005e 46F60402 		movw	r2, #26628
 2575 0062 9342     		cmp	r3, r2
 2576 0064 06D0     		beq	.L140
 2577              		.loc 1 356 32 discriminator 1
 2578 0066 634B     		ldr	r3, .L154
 2579 0068 9B88     		ldrh	r3, [r3, #4]
 2580              		.loc 1 356 24 discriminator 1
 2581 006a 45F21032 		movw	r2, #21264
 2582 006e 9342     		cmp	r3, r2
 2583 0070 40F0B780 		bne	.L153
 2584              	.L140:
 357:hardware/src/lcd.c **** 			{
 358:hardware/src/lcd.c **** 				lcddev.width=320;
ARM GAS  /tmp/ccRHtd69.s 			page 61


 2585              		.loc 1 358 17
 2586 0074 5F4B     		ldr	r3, .L154
 2587 0076 4FF4A072 		mov	r2, #320
 2588 007a 1A80     		strh	r2, [r3]	@ movhi
 359:hardware/src/lcd.c **** 				lcddev.height=480;
 2589              		.loc 1 359 18
 2590 007c 5D4B     		ldr	r3, .L154
 2591 007e 4FF4F072 		mov	r2, #480
 2592 0082 5A80     		strh	r2, [r3, #2]	@ movhi
 356:hardware/src/lcd.c **** 			if(lcddev.id==0X6804||lcddev.id==0X5310)
 2593              		.loc 1 356 6
 2594 0084 ADE0     		b	.L153
 2595              	.L139:
 360:hardware/src/lcd.c **** 			}
 361:hardware/src/lcd.c **** 		}else if(lcddev.id==0X8989)
 2596              		.loc 1 361 18
 2597 0086 5B4B     		ldr	r3, .L154
 2598 0088 9B88     		ldrh	r3, [r3, #4]
 2599              		.loc 1 361 11
 2600 008a 48F68912 		movw	r2, #35209
 2601 008e 9342     		cmp	r3, r2
 2602 0090 09D1     		bne	.L143
 362:hardware/src/lcd.c **** 		{
 363:hardware/src/lcd.c **** 			lcddev.wramcmd=R34;
 2603              		.loc 1 363 18
 2604 0092 584B     		ldr	r3, .L154
 2605 0094 2222     		movs	r2, #34
 2606 0096 1A81     		strh	r2, [r3, #8]	@ movhi
 364:hardware/src/lcd.c **** 	 		lcddev.setxcmd=0X4E;
 2607              		.loc 1 364 19
 2608 0098 564B     		ldr	r3, .L154
 2609 009a 4E22     		movs	r2, #78
 2610 009c 5A81     		strh	r2, [r3, #10]	@ movhi
 365:hardware/src/lcd.c **** 			lcddev.setycmd=0X4F;  
 2611              		.loc 1 365 18
 2612 009e 554B     		ldr	r3, .L154
 2613 00a0 4F22     		movs	r2, #79
 2614 00a2 9A81     		strh	r2, [r3, #12]	@ movhi
 2615 00a4 9EE0     		b	.L145
 2616              	.L143:
 366:hardware/src/lcd.c **** 		}else if(lcddev.id==0x5510)
 2617              		.loc 1 366 18
 2618 00a6 534B     		ldr	r3, .L154
 2619 00a8 9B88     		ldrh	r3, [r3, #4]
 2620              		.loc 1 366 11
 2621 00aa 45F21052 		movw	r2, #21776
 2622 00ae 9342     		cmp	r3, r2
 2623 00b0 14D1     		bne	.L144
 367:hardware/src/lcd.c **** 		{
 368:hardware/src/lcd.c **** 			lcddev.wramcmd=0X2C00;
 2624              		.loc 1 368 18
 2625 00b2 504B     		ldr	r3, .L154
 2626 00b4 4FF43052 		mov	r2, #11264
 2627 00b8 1A81     		strh	r2, [r3, #8]	@ movhi
 369:hardware/src/lcd.c **** 	 		lcddev.setxcmd=0X2A00;
 2628              		.loc 1 369 19
 2629 00ba 4E4B     		ldr	r3, .L154
ARM GAS  /tmp/ccRHtd69.s 			page 62


 2630 00bc 4FF42852 		mov	r2, #10752
 2631 00c0 5A81     		strh	r2, [r3, #10]	@ movhi
 370:hardware/src/lcd.c **** 			lcddev.setycmd=0X2B00; 
 2632              		.loc 1 370 18
 2633 00c2 4C4B     		ldr	r3, .L154
 2634 00c4 4FF42C52 		mov	r2, #11008
 2635 00c8 9A81     		strh	r2, [r3, #12]	@ movhi
 371:hardware/src/lcd.c **** 			lcddev.width=480;
 2636              		.loc 1 371 16
 2637 00ca 4A4B     		ldr	r3, .L154
 2638 00cc 4FF4F072 		mov	r2, #480
 2639 00d0 1A80     		strh	r2, [r3]	@ movhi
 372:hardware/src/lcd.c **** 			lcddev.height=800;
 2640              		.loc 1 372 17
 2641 00d2 484B     		ldr	r3, .L154
 2642 00d4 4FF44872 		mov	r2, #800
 2643 00d8 5A80     		strh	r2, [r3, #2]	@ movhi
 2644 00da 83E0     		b	.L145
 2645              	.L144:
 373:hardware/src/lcd.c **** 		}else
 374:hardware/src/lcd.c **** 		{
 375:hardware/src/lcd.c **** 			lcddev.wramcmd=R34;
 2646              		.loc 1 375 18
 2647 00dc 454B     		ldr	r3, .L154
 2648 00de 2222     		movs	r2, #34
 2649 00e0 1A81     		strh	r2, [r3, #8]	@ movhi
 376:hardware/src/lcd.c **** 	 		lcddev.setxcmd=R32;
 2650              		.loc 1 376 19
 2651 00e2 444B     		ldr	r3, .L154
 2652 00e4 2022     		movs	r2, #32
 2653 00e6 5A81     		strh	r2, [r3, #10]	@ movhi
 377:hardware/src/lcd.c **** 			lcddev.setycmd=R33;  
 2654              		.loc 1 377 18
 2655 00e8 424B     		ldr	r3, .L154
 2656 00ea 2122     		movs	r2, #33
 2657 00ec 9A81     		strh	r2, [r3, #12]	@ movhi
 2658 00ee 79E0     		b	.L145
 2659              	.L137:
 378:hardware/src/lcd.c **** 		}
 379:hardware/src/lcd.c **** 	}else 				//横屏
 380:hardware/src/lcd.c **** 	{	  				
 381:hardware/src/lcd.c **** 		lcddev.dir=1;	//横屏
 2660              		.loc 1 381 13
 2661 00f0 404B     		ldr	r3, .L154
 2662 00f2 0122     		movs	r2, #1
 2663 00f4 9A71     		strb	r2, [r3, #6]
 382:hardware/src/lcd.c **** 		lcddev.width=320;
 2664              		.loc 1 382 15
 2665 00f6 3F4B     		ldr	r3, .L154
 2666 00f8 4FF4A072 		mov	r2, #320
 2667 00fc 1A80     		strh	r2, [r3]	@ movhi
 383:hardware/src/lcd.c **** 		lcddev.height=240;
 2668              		.loc 1 383 16
 2669 00fe 3D4B     		ldr	r3, .L154
 2670 0100 F022     		movs	r2, #240
 2671 0102 5A80     		strh	r2, [r3, #2]	@ movhi
 384:hardware/src/lcd.c **** 		if(lcddev.id==0X9341||lcddev.id==0X5310)
ARM GAS  /tmp/ccRHtd69.s 			page 63


 2672              		.loc 1 384 12
 2673 0104 3B4B     		ldr	r3, .L154
 2674 0106 9B88     		ldrh	r3, [r3, #4]
 2675              		.loc 1 384 5
 2676 0108 49F24132 		movw	r2, #37697
 2677 010c 9342     		cmp	r3, r2
 2678 010e 05D0     		beq	.L146
 2679              		.loc 1 384 31 discriminator 1
 2680 0110 384B     		ldr	r3, .L154
 2681 0112 9B88     		ldrh	r3, [r3, #4]
 2682              		.loc 1 384 23 discriminator 1
 2683 0114 45F21032 		movw	r2, #21264
 2684 0118 9342     		cmp	r3, r2
 2685 011a 09D1     		bne	.L147
 2686              	.L146:
 385:hardware/src/lcd.c **** 		{
 386:hardware/src/lcd.c **** 			lcddev.wramcmd=0X2C;
 2687              		.loc 1 386 18
 2688 011c 354B     		ldr	r3, .L154
 2689 011e 2C22     		movs	r2, #44
 2690 0120 1A81     		strh	r2, [r3, #8]	@ movhi
 387:hardware/src/lcd.c **** 	 		lcddev.setxcmd=0X2A;
 2691              		.loc 1 387 19
 2692 0122 344B     		ldr	r3, .L154
 2693 0124 2A22     		movs	r2, #42
 2694 0126 5A81     		strh	r2, [r3, #10]	@ movhi
 388:hardware/src/lcd.c **** 			lcddev.setycmd=0X2B;  	 
 2695              		.loc 1 388 18
 2696 0128 324B     		ldr	r3, .L154
 2697 012a 2B22     		movs	r2, #43
 2698 012c 9A81     		strh	r2, [r3, #12]	@ movhi
 2699 012e 43E0     		b	.L148
 2700              	.L147:
 389:hardware/src/lcd.c **** 		}else if(lcddev.id==0X6804)	 
 2701              		.loc 1 389 18
 2702 0130 304B     		ldr	r3, .L154
 2703 0132 9B88     		ldrh	r3, [r3, #4]
 2704              		.loc 1 389 11
 2705 0134 46F60402 		movw	r2, #26628
 2706 0138 9342     		cmp	r3, r2
 2707 013a 09D1     		bne	.L149
 390:hardware/src/lcd.c **** 		{
 391:hardware/src/lcd.c ****  			lcddev.wramcmd=0X2C;
 2708              		.loc 1 391 19
 2709 013c 2D4B     		ldr	r3, .L154
 2710 013e 2C22     		movs	r2, #44
 2711 0140 1A81     		strh	r2, [r3, #8]	@ movhi
 392:hardware/src/lcd.c **** 	 		lcddev.setxcmd=0X2B;
 2712              		.loc 1 392 19
 2713 0142 2C4B     		ldr	r3, .L154
 2714 0144 2B22     		movs	r2, #43
 2715 0146 5A81     		strh	r2, [r3, #10]	@ movhi
 393:hardware/src/lcd.c **** 			lcddev.setycmd=0X2A; 
 2716              		.loc 1 393 18
 2717 0148 2A4B     		ldr	r3, .L154
 2718 014a 2A22     		movs	r2, #42
 2719 014c 9A81     		strh	r2, [r3, #12]	@ movhi
ARM GAS  /tmp/ccRHtd69.s 			page 64


 2720 014e 33E0     		b	.L148
 2721              	.L149:
 394:hardware/src/lcd.c **** 		}else if(lcddev.id==0X8989)
 2722              		.loc 1 394 18
 2723 0150 284B     		ldr	r3, .L154
 2724 0152 9B88     		ldrh	r3, [r3, #4]
 2725              		.loc 1 394 11
 2726 0154 48F68912 		movw	r2, #35209
 2727 0158 9342     		cmp	r3, r2
 2728 015a 09D1     		bne	.L150
 395:hardware/src/lcd.c **** 		{
 396:hardware/src/lcd.c **** 			lcddev.wramcmd=R34;
 2729              		.loc 1 396 18
 2730 015c 254B     		ldr	r3, .L154
 2731 015e 2222     		movs	r2, #34
 2732 0160 1A81     		strh	r2, [r3, #8]	@ movhi
 397:hardware/src/lcd.c **** 	 		lcddev.setxcmd=0X4F;
 2733              		.loc 1 397 19
 2734 0162 244B     		ldr	r3, .L154
 2735 0164 4F22     		movs	r2, #79
 2736 0166 5A81     		strh	r2, [r3, #10]	@ movhi
 398:hardware/src/lcd.c **** 			lcddev.setycmd=0X4E;   
 2737              		.loc 1 398 18
 2738 0168 224B     		ldr	r3, .L154
 2739 016a 4E22     		movs	r2, #78
 2740 016c 9A81     		strh	r2, [r3, #12]	@ movhi
 2741 016e 23E0     		b	.L148
 2742              	.L150:
 399:hardware/src/lcd.c **** 		}else if(lcddev.id==0x5510)
 2743              		.loc 1 399 18
 2744 0170 204B     		ldr	r3, .L154
 2745 0172 9B88     		ldrh	r3, [r3, #4]
 2746              		.loc 1 399 11
 2747 0174 45F21052 		movw	r2, #21776
 2748 0178 9342     		cmp	r3, r2
 2749 017a 14D1     		bne	.L151
 400:hardware/src/lcd.c **** 		{
 401:hardware/src/lcd.c **** 			lcddev.wramcmd=0X2C00;
 2750              		.loc 1 401 18
 2751 017c 1D4B     		ldr	r3, .L154
 2752 017e 4FF43052 		mov	r2, #11264
 2753 0182 1A81     		strh	r2, [r3, #8]	@ movhi
 402:hardware/src/lcd.c **** 	 		lcddev.setxcmd=0X2A00;
 2754              		.loc 1 402 19
 2755 0184 1B4B     		ldr	r3, .L154
 2756 0186 4FF42852 		mov	r2, #10752
 2757 018a 5A81     		strh	r2, [r3, #10]	@ movhi
 403:hardware/src/lcd.c **** 			lcddev.setycmd=0X2B00; 
 2758              		.loc 1 403 18
 2759 018c 194B     		ldr	r3, .L154
 2760 018e 4FF42C52 		mov	r2, #11008
 2761 0192 9A81     		strh	r2, [r3, #12]	@ movhi
 404:hardware/src/lcd.c **** 			lcddev.width=800;
 2762              		.loc 1 404 16
 2763 0194 174B     		ldr	r3, .L154
 2764 0196 4FF44872 		mov	r2, #800
 2765 019a 1A80     		strh	r2, [r3]	@ movhi
ARM GAS  /tmp/ccRHtd69.s 			page 65


 405:hardware/src/lcd.c **** 			lcddev.height=480;
 2766              		.loc 1 405 17
 2767 019c 154B     		ldr	r3, .L154
 2768 019e 4FF4F072 		mov	r2, #480
 2769 01a2 5A80     		strh	r2, [r3, #2]	@ movhi
 2770 01a4 08E0     		b	.L148
 2771              	.L151:
 406:hardware/src/lcd.c **** 		}else
 407:hardware/src/lcd.c **** 		{
 408:hardware/src/lcd.c **** 			lcddev.wramcmd=R34;
 2772              		.loc 1 408 18
 2773 01a6 134B     		ldr	r3, .L154
 2774 01a8 2222     		movs	r2, #34
 2775 01aa 1A81     		strh	r2, [r3, #8]	@ movhi
 409:hardware/src/lcd.c **** 	 		lcddev.setxcmd=R33;
 2776              		.loc 1 409 19
 2777 01ac 114B     		ldr	r3, .L154
 2778 01ae 2122     		movs	r2, #33
 2779 01b0 5A81     		strh	r2, [r3, #10]	@ movhi
 410:hardware/src/lcd.c **** 			lcddev.setycmd=R32;  
 2780              		.loc 1 410 18
 2781 01b2 104B     		ldr	r3, .L154
 2782 01b4 2022     		movs	r2, #32
 2783 01b6 9A81     		strh	r2, [r3, #12]	@ movhi
 2784              	.L148:
 411:hardware/src/lcd.c **** 		}
 412:hardware/src/lcd.c **** 		if(lcddev.id==0X6804||lcddev.id==0X5310)
 2785              		.loc 1 412 12
 2786 01b8 0E4B     		ldr	r3, .L154
 2787 01ba 9B88     		ldrh	r3, [r3, #4]
 2788              		.loc 1 412 5
 2789 01bc 46F60402 		movw	r2, #26628
 2790 01c0 9342     		cmp	r3, r2
 2791 01c2 05D0     		beq	.L152
 2792              		.loc 1 412 31 discriminator 1
 2793 01c4 0B4B     		ldr	r3, .L154
 2794 01c6 9B88     		ldrh	r3, [r3, #4]
 2795              		.loc 1 412 23 discriminator 1
 2796 01c8 45F21032 		movw	r2, #21264
 2797 01cc 9342     		cmp	r3, r2
 2798 01ce 09D1     		bne	.L145
 2799              	.L152:
 413:hardware/src/lcd.c **** 		{ 	 
 414:hardware/src/lcd.c **** 			lcddev.width=480;
 2800              		.loc 1 414 16
 2801 01d0 084B     		ldr	r3, .L154
 2802 01d2 4FF4F072 		mov	r2, #480
 2803 01d6 1A80     		strh	r2, [r3]	@ movhi
 415:hardware/src/lcd.c **** 			lcddev.height=320; 			
 2804              		.loc 1 415 17
 2805 01d8 064B     		ldr	r3, .L154
 2806 01da 4FF4A072 		mov	r2, #320
 2807 01de 5A80     		strh	r2, [r3, #2]	@ movhi
 2808 01e0 00E0     		b	.L145
 2809              	.L153:
 356:hardware/src/lcd.c **** 			{
 2810              		.loc 1 356 6
ARM GAS  /tmp/ccRHtd69.s 			page 66


 2811 01e2 00BF     		nop
 2812              	.L145:
 416:hardware/src/lcd.c **** 		}
 417:hardware/src/lcd.c **** 	} 
 418:hardware/src/lcd.c **** 	LCD_Scan_Dir(DFT_SCAN_DIR);	//默认扫描方向
 2813              		.loc 1 418 2
 2814 01e4 0020     		movs	r0, #0
 2815 01e6 FFF7FEFF 		bl	LCD_Scan_Dir
 419:hardware/src/lcd.c **** }	 
 2816              		.loc 1 419 1
 2817 01ea 00BF     		nop
 2818 01ec 0837     		adds	r7, r7, #8
 2819              	.LCFI81:
 2820              		.cfi_def_cfa_offset 8
 2821 01ee BD46     		mov	sp, r7
 2822              	.LCFI82:
 2823              		.cfi_def_cfa_register 13
 2824              		@ sp needed
 2825 01f0 80BD     		pop	{r7, pc}
 2826              	.L155:
 2827 01f2 00BF     		.align	2
 2828              	.L154:
 2829 01f4 00000000 		.word	lcddev
 2830              		.cfi_endproc
 2831              	.LFE82:
 2833              		.section	.text.LCD_Set_Window,"ax",%progbits
 2834              		.align	1
 2835              		.global	LCD_Set_Window
 2836              		.syntax unified
 2837              		.thumb
 2838              		.thumb_func
 2839              		.fpu softvfp
 2841              	LCD_Set_Window:
 2842              	.LFB83:
 420:hardware/src/lcd.c **** //设置窗口,并自动设置画点坐标到窗口左上角(sx,sy).
 421:hardware/src/lcd.c **** //sx,sy:窗口起始坐标(左上角)
 422:hardware/src/lcd.c **** //width,height:窗口宽度和高度,必须大于0!!
 423:hardware/src/lcd.c **** //窗体大小:width*height.
 424:hardware/src/lcd.c **** //68042,横屏时不支持窗口设置!! 
 425:hardware/src/lcd.c **** void LCD_Set_Window(u16 sx,u16 sy,u16 width,u16 height)
 426:hardware/src/lcd.c **** {   
 2843              		.loc 1 426 1
 2844              		.cfi_startproc
 2845              		@ args = 0, pretend = 0, frame = 24
 2846              		@ frame_needed = 1, uses_anonymous_args = 0
 2847 0000 90B5     		push	{r4, r7, lr}
 2848              	.LCFI83:
 2849              		.cfi_def_cfa_offset 12
 2850              		.cfi_offset 4, -12
 2851              		.cfi_offset 7, -8
 2852              		.cfi_offset 14, -4
 2853 0002 87B0     		sub	sp, sp, #28
 2854              	.LCFI84:
 2855              		.cfi_def_cfa_offset 40
 2856 0004 00AF     		add	r7, sp, #0
 2857              	.LCFI85:
 2858              		.cfi_def_cfa_register 7
ARM GAS  /tmp/ccRHtd69.s 			page 67


 2859 0006 0446     		mov	r4, r0
 2860 0008 0846     		mov	r0, r1
 2861 000a 1146     		mov	r1, r2
 2862 000c 1A46     		mov	r2, r3
 2863 000e 2346     		mov	r3, r4	@ movhi
 2864 0010 FB80     		strh	r3, [r7, #6]	@ movhi
 2865 0012 0346     		mov	r3, r0	@ movhi
 2866 0014 BB80     		strh	r3, [r7, #4]	@ movhi
 2867 0016 0B46     		mov	r3, r1	@ movhi
 2868 0018 7B80     		strh	r3, [r7, #2]	@ movhi
 2869 001a 1346     		mov	r3, r2	@ movhi
 2870 001c 3B80     		strh	r3, [r7]	@ movhi
 427:hardware/src/lcd.c **** 	u8 hsareg,heareg,vsareg,veareg;
 428:hardware/src/lcd.c **** 	u16 hsaval,heaval,vsaval,veaval; 
 429:hardware/src/lcd.c **** 	width=sx+width-1;
 2871              		.loc 1 429 10
 2872 001e FA88     		ldrh	r2, [r7, #6]	@ movhi
 2873 0020 7B88     		ldrh	r3, [r7, #2]	@ movhi
 2874 0022 1344     		add	r3, r3, r2
 2875 0024 9BB2     		uxth	r3, r3
 2876              		.loc 1 429 7
 2877 0026 013B     		subs	r3, r3, #1
 2878 0028 7B80     		strh	r3, [r7, #2]	@ movhi
 430:hardware/src/lcd.c **** 	height=sy+height-1;
 2879              		.loc 1 430 11
 2880 002a BA88     		ldrh	r2, [r7, #4]	@ movhi
 2881 002c 3B88     		ldrh	r3, [r7]	@ movhi
 2882 002e 1344     		add	r3, r3, r2
 2883 0030 9BB2     		uxth	r3, r3
 2884              		.loc 1 430 8
 2885 0032 013B     		subs	r3, r3, #1
 2886 0034 3B80     		strh	r3, [r7]	@ movhi
 431:hardware/src/lcd.c **** 	if(lcddev.id==0X9341||lcddev.id==0X5310||lcddev.id==0X6804)//6804横屏不支持
 2887              		.loc 1 431 11
 2888 0036 8F4B     		ldr	r3, .L166
 2889 0038 9B88     		ldrh	r3, [r3, #4]
 2890              		.loc 1 431 4
 2891 003a 49F24132 		movw	r2, #37697
 2892 003e 9342     		cmp	r3, r2
 2893 0040 0BD0     		beq	.L157
 2894              		.loc 1 431 30 discriminator 1
 2895 0042 8C4B     		ldr	r3, .L166
 2896 0044 9B88     		ldrh	r3, [r3, #4]
 2897              		.loc 1 431 22 discriminator 1
 2898 0046 45F21032 		movw	r2, #21264
 2899 004a 9342     		cmp	r3, r2
 2900 004c 05D0     		beq	.L157
 2901              		.loc 1 431 49 discriminator 2
 2902 004e 894B     		ldr	r3, .L166
 2903 0050 9B88     		ldrh	r3, [r3, #4]
 2904              		.loc 1 431 41 discriminator 2
 2905 0052 46F60402 		movw	r2, #26628
 2906 0056 9342     		cmp	r3, r2
 2907 0058 3AD1     		bne	.L158
 2908              	.L157:
 432:hardware/src/lcd.c **** 	{
 433:hardware/src/lcd.c **** 		LCD_WR_REG(lcddev.setxcmd); 
ARM GAS  /tmp/ccRHtd69.s 			page 68


 2909              		.loc 1 433 3
 2910 005a 864B     		ldr	r3, .L166
 2911 005c 5B89     		ldrh	r3, [r3, #10]
 2912 005e 1846     		mov	r0, r3
 2913 0060 FFF7FEFF 		bl	LCD_WR_REG
 434:hardware/src/lcd.c **** 		LCD_WR_DATA(sx>>8); 
 2914              		.loc 1 434 3
 2915 0064 FB88     		ldrh	r3, [r7, #6]
 2916 0066 1B0A     		lsrs	r3, r3, #8
 2917 0068 9BB2     		uxth	r3, r3
 2918 006a 1846     		mov	r0, r3
 2919 006c FFF7FEFF 		bl	LCD_WR_DATA
 435:hardware/src/lcd.c **** 		LCD_WR_DATA(sx&0XFF);	 
 2920              		.loc 1 435 3
 2921 0070 FB88     		ldrh	r3, [r7, #6]	@ movhi
 2922 0072 DBB2     		uxtb	r3, r3
 2923 0074 9BB2     		uxth	r3, r3
 2924 0076 1846     		mov	r0, r3
 2925 0078 FFF7FEFF 		bl	LCD_WR_DATA
 436:hardware/src/lcd.c **** 		LCD_WR_DATA(width>>8); 
 2926              		.loc 1 436 3
 2927 007c 7B88     		ldrh	r3, [r7, #2]
 2928 007e 1B0A     		lsrs	r3, r3, #8
 2929 0080 9BB2     		uxth	r3, r3
 2930 0082 1846     		mov	r0, r3
 2931 0084 FFF7FEFF 		bl	LCD_WR_DATA
 437:hardware/src/lcd.c **** 		LCD_WR_DATA(width&0XFF);  
 2932              		.loc 1 437 3
 2933 0088 7B88     		ldrh	r3, [r7, #2]	@ movhi
 2934 008a DBB2     		uxtb	r3, r3
 2935 008c 9BB2     		uxth	r3, r3
 2936 008e 1846     		mov	r0, r3
 2937 0090 FFF7FEFF 		bl	LCD_WR_DATA
 438:hardware/src/lcd.c **** 		LCD_WR_REG(lcddev.setycmd); 
 2938              		.loc 1 438 3
 2939 0094 774B     		ldr	r3, .L166
 2940 0096 9B89     		ldrh	r3, [r3, #12]
 2941 0098 1846     		mov	r0, r3
 2942 009a FFF7FEFF 		bl	LCD_WR_REG
 439:hardware/src/lcd.c **** 		LCD_WR_DATA(sy>>8); 
 2943              		.loc 1 439 3
 2944 009e BB88     		ldrh	r3, [r7, #4]
 2945 00a0 1B0A     		lsrs	r3, r3, #8
 2946 00a2 9BB2     		uxth	r3, r3
 2947 00a4 1846     		mov	r0, r3
 2948 00a6 FFF7FEFF 		bl	LCD_WR_DATA
 440:hardware/src/lcd.c **** 		LCD_WR_DATA(sy&0XFF); 
 2949              		.loc 1 440 3
 2950 00aa BB88     		ldrh	r3, [r7, #4]	@ movhi
 2951 00ac DBB2     		uxtb	r3, r3
 2952 00ae 9BB2     		uxth	r3, r3
 2953 00b0 1846     		mov	r0, r3
 2954 00b2 FFF7FEFF 		bl	LCD_WR_DATA
 441:hardware/src/lcd.c **** 		LCD_WR_DATA(height>>8); 
 2955              		.loc 1 441 3
 2956 00b6 3B88     		ldrh	r3, [r7]
 2957 00b8 1B0A     		lsrs	r3, r3, #8
ARM GAS  /tmp/ccRHtd69.s 			page 69


 2958 00ba 9BB2     		uxth	r3, r3
 2959 00bc 1846     		mov	r0, r3
 2960 00be FFF7FEFF 		bl	LCD_WR_DATA
 442:hardware/src/lcd.c **** 		LCD_WR_DATA(height&0XFF); 
 2961              		.loc 1 442 3
 2962 00c2 3B88     		ldrh	r3, [r7]	@ movhi
 2963 00c4 DBB2     		uxtb	r3, r3
 2964 00c6 9BB2     		uxth	r3, r3
 2965 00c8 1846     		mov	r0, r3
 2966 00ca FFF7FEFF 		bl	LCD_WR_DATA
 443:hardware/src/lcd.c **** 	}else if(lcddev.id==0X5510)
 444:hardware/src/lcd.c **** 	{
 445:hardware/src/lcd.c **** 		LCD_WR_REG(lcddev.setxcmd);LCD_WR_DATA(sx>>8);  
 446:hardware/src/lcd.c **** 		LCD_WR_REG(lcddev.setxcmd+1);LCD_WR_DATA(sx&0XFF);	  
 447:hardware/src/lcd.c **** 		LCD_WR_REG(lcddev.setxcmd+2);LCD_WR_DATA(width>>8);   
 448:hardware/src/lcd.c **** 		LCD_WR_REG(lcddev.setxcmd+3);LCD_WR_DATA(width&0XFF);   
 449:hardware/src/lcd.c **** 		LCD_WR_REG(lcddev.setycmd);LCD_WR_DATA(sy>>8);   
 450:hardware/src/lcd.c **** 		LCD_WR_REG(lcddev.setycmd+1);LCD_WR_DATA(sy&0XFF);  
 451:hardware/src/lcd.c **** 		LCD_WR_REG(lcddev.setycmd+2);LCD_WR_DATA(height>>8);   
 452:hardware/src/lcd.c **** 		LCD_WR_REG(lcddev.setycmd+3);LCD_WR_DATA(height&0XFF);  
 453:hardware/src/lcd.c **** 	}else	//其他驱动IC
 454:hardware/src/lcd.c **** 	{
 455:hardware/src/lcd.c **** 		if(lcddev.dir==1)//横屏
 456:hardware/src/lcd.c **** 		{
 457:hardware/src/lcd.c **** 			//窗口值
 458:hardware/src/lcd.c **** 			hsaval=sy;				
 459:hardware/src/lcd.c **** 			heaval=height;
 460:hardware/src/lcd.c **** 			vsaval=lcddev.width-width-1;
 461:hardware/src/lcd.c **** 			veaval=lcddev.width-sx-1;				
 462:hardware/src/lcd.c **** 		}else
 463:hardware/src/lcd.c **** 		{ 
 464:hardware/src/lcd.c **** 			hsaval=sx;				
 465:hardware/src/lcd.c **** 			heaval=width;
 466:hardware/src/lcd.c **** 			vsaval=sy;
 467:hardware/src/lcd.c **** 			veaval=height;
 468:hardware/src/lcd.c **** 		}
 469:hardware/src/lcd.c **** 	 	if(lcddev.id==0X8989)//8989 IC
 470:hardware/src/lcd.c **** 		{
 471:hardware/src/lcd.c **** 			hsareg=0X44;heareg=0X44;//水平方向窗口寄存器 (1289的由一个寄存器控制)
 472:hardware/src/lcd.c **** 			hsaval|=(heaval<<8);	//得到寄存器值.
 473:hardware/src/lcd.c **** 			heaval=hsaval;
 474:hardware/src/lcd.c **** 			vsareg=0X45;veareg=0X46;//垂直方向窗口寄存器	  
 475:hardware/src/lcd.c **** 		}else  //其他驱动IC
 476:hardware/src/lcd.c **** 		{
 477:hardware/src/lcd.c **** 			hsareg=0X50;heareg=0X51;//水平方向窗口寄存器
 478:hardware/src/lcd.c **** 			vsareg=0X52;veareg=0X53;//垂直方向窗口寄存器	  
 479:hardware/src/lcd.c **** 		}								  
 480:hardware/src/lcd.c **** 		//设置寄存器值
 481:hardware/src/lcd.c **** 		LCD_WriteReg(hsareg,hsaval);
 482:hardware/src/lcd.c **** 		LCD_WriteReg(heareg,heaval);
 483:hardware/src/lcd.c **** 		LCD_WriteReg(vsareg,vsaval);
 484:hardware/src/lcd.c **** 		LCD_WriteReg(veareg,veaval);		
 485:hardware/src/lcd.c **** 		LCD_SetCursor(sx,sy);	//设置光标位置
 486:hardware/src/lcd.c **** 	}
 487:hardware/src/lcd.c **** } 
 2967              		.loc 1 487 1
 2968 00ce CCE0     		b	.L165
ARM GAS  /tmp/ccRHtd69.s 			page 70


 2969              	.L158:
 443:hardware/src/lcd.c **** 	}else if(lcddev.id==0X5510)
 2970              		.loc 1 443 17
 2971 00d0 684B     		ldr	r3, .L166
 2972 00d2 9B88     		ldrh	r3, [r3, #4]
 443:hardware/src/lcd.c **** 	}else if(lcddev.id==0X5510)
 2973              		.loc 1 443 10
 2974 00d4 45F21052 		movw	r2, #21776
 2975 00d8 9342     		cmp	r3, r2
 2976 00da 64D1     		bne	.L160
 445:hardware/src/lcd.c **** 		LCD_WR_REG(lcddev.setxcmd+1);LCD_WR_DATA(sx&0XFF);	  
 2977              		.loc 1 445 3
 2978 00dc 654B     		ldr	r3, .L166
 2979 00de 5B89     		ldrh	r3, [r3, #10]
 2980 00e0 1846     		mov	r0, r3
 2981 00e2 FFF7FEFF 		bl	LCD_WR_REG
 445:hardware/src/lcd.c **** 		LCD_WR_REG(lcddev.setxcmd+1);LCD_WR_DATA(sx&0XFF);	  
 2982              		.loc 1 445 30
 2983 00e6 FB88     		ldrh	r3, [r7, #6]
 2984 00e8 1B0A     		lsrs	r3, r3, #8
 2985 00ea 9BB2     		uxth	r3, r3
 2986 00ec 1846     		mov	r0, r3
 2987 00ee FFF7FEFF 		bl	LCD_WR_DATA
 446:hardware/src/lcd.c **** 		LCD_WR_REG(lcddev.setxcmd+2);LCD_WR_DATA(width>>8);   
 2988              		.loc 1 446 20
 2989 00f2 604B     		ldr	r3, .L166
 2990 00f4 5B89     		ldrh	r3, [r3, #10]
 446:hardware/src/lcd.c **** 		LCD_WR_REG(lcddev.setxcmd+2);LCD_WR_DATA(width>>8);   
 2991              		.loc 1 446 3
 2992 00f6 0133     		adds	r3, r3, #1
 2993 00f8 9BB2     		uxth	r3, r3
 2994 00fa 1846     		mov	r0, r3
 2995 00fc FFF7FEFF 		bl	LCD_WR_REG
 446:hardware/src/lcd.c **** 		LCD_WR_REG(lcddev.setxcmd+2);LCD_WR_DATA(width>>8);   
 2996              		.loc 1 446 32
 2997 0100 FB88     		ldrh	r3, [r7, #6]	@ movhi
 2998 0102 DBB2     		uxtb	r3, r3
 2999 0104 9BB2     		uxth	r3, r3
 3000 0106 1846     		mov	r0, r3
 3001 0108 FFF7FEFF 		bl	LCD_WR_DATA
 447:hardware/src/lcd.c **** 		LCD_WR_REG(lcddev.setxcmd+3);LCD_WR_DATA(width&0XFF);   
 3002              		.loc 1 447 20
 3003 010c 594B     		ldr	r3, .L166
 3004 010e 5B89     		ldrh	r3, [r3, #10]
 447:hardware/src/lcd.c **** 		LCD_WR_REG(lcddev.setxcmd+3);LCD_WR_DATA(width&0XFF);   
 3005              		.loc 1 447 3
 3006 0110 0233     		adds	r3, r3, #2
 3007 0112 9BB2     		uxth	r3, r3
 3008 0114 1846     		mov	r0, r3
 3009 0116 FFF7FEFF 		bl	LCD_WR_REG
 447:hardware/src/lcd.c **** 		LCD_WR_REG(lcddev.setxcmd+3);LCD_WR_DATA(width&0XFF);   
 3010              		.loc 1 447 32
 3011 011a 7B88     		ldrh	r3, [r7, #2]
 3012 011c 1B0A     		lsrs	r3, r3, #8
 3013 011e 9BB2     		uxth	r3, r3
 3014 0120 1846     		mov	r0, r3
 3015 0122 FFF7FEFF 		bl	LCD_WR_DATA
ARM GAS  /tmp/ccRHtd69.s 			page 71


 448:hardware/src/lcd.c **** 		LCD_WR_REG(lcddev.setycmd);LCD_WR_DATA(sy>>8);   
 3016              		.loc 1 448 20
 3017 0126 534B     		ldr	r3, .L166
 3018 0128 5B89     		ldrh	r3, [r3, #10]
 448:hardware/src/lcd.c **** 		LCD_WR_REG(lcddev.setycmd);LCD_WR_DATA(sy>>8);   
 3019              		.loc 1 448 3
 3020 012a 0333     		adds	r3, r3, #3
 3021 012c 9BB2     		uxth	r3, r3
 3022 012e 1846     		mov	r0, r3
 3023 0130 FFF7FEFF 		bl	LCD_WR_REG
 448:hardware/src/lcd.c **** 		LCD_WR_REG(lcddev.setycmd);LCD_WR_DATA(sy>>8);   
 3024              		.loc 1 448 32
 3025 0134 7B88     		ldrh	r3, [r7, #2]	@ movhi
 3026 0136 DBB2     		uxtb	r3, r3
 3027 0138 9BB2     		uxth	r3, r3
 3028 013a 1846     		mov	r0, r3
 3029 013c FFF7FEFF 		bl	LCD_WR_DATA
 449:hardware/src/lcd.c **** 		LCD_WR_REG(lcddev.setycmd+1);LCD_WR_DATA(sy&0XFF);  
 3030              		.loc 1 449 3
 3031 0140 4C4B     		ldr	r3, .L166
 3032 0142 9B89     		ldrh	r3, [r3, #12]
 3033 0144 1846     		mov	r0, r3
 3034 0146 FFF7FEFF 		bl	LCD_WR_REG
 449:hardware/src/lcd.c **** 		LCD_WR_REG(lcddev.setycmd+1);LCD_WR_DATA(sy&0XFF);  
 3035              		.loc 1 449 30
 3036 014a BB88     		ldrh	r3, [r7, #4]
 3037 014c 1B0A     		lsrs	r3, r3, #8
 3038 014e 9BB2     		uxth	r3, r3
 3039 0150 1846     		mov	r0, r3
 3040 0152 FFF7FEFF 		bl	LCD_WR_DATA
 450:hardware/src/lcd.c **** 		LCD_WR_REG(lcddev.setycmd+2);LCD_WR_DATA(height>>8);   
 3041              		.loc 1 450 20
 3042 0156 474B     		ldr	r3, .L166
 3043 0158 9B89     		ldrh	r3, [r3, #12]
 450:hardware/src/lcd.c **** 		LCD_WR_REG(lcddev.setycmd+2);LCD_WR_DATA(height>>8);   
 3044              		.loc 1 450 3
 3045 015a 0133     		adds	r3, r3, #1
 3046 015c 9BB2     		uxth	r3, r3
 3047 015e 1846     		mov	r0, r3
 3048 0160 FFF7FEFF 		bl	LCD_WR_REG
 450:hardware/src/lcd.c **** 		LCD_WR_REG(lcddev.setycmd+2);LCD_WR_DATA(height>>8);   
 3049              		.loc 1 450 32
 3050 0164 BB88     		ldrh	r3, [r7, #4]	@ movhi
 3051 0166 DBB2     		uxtb	r3, r3
 3052 0168 9BB2     		uxth	r3, r3
 3053 016a 1846     		mov	r0, r3
 3054 016c FFF7FEFF 		bl	LCD_WR_DATA
 451:hardware/src/lcd.c **** 		LCD_WR_REG(lcddev.setycmd+3);LCD_WR_DATA(height&0XFF);  
 3055              		.loc 1 451 20
 3056 0170 404B     		ldr	r3, .L166
 3057 0172 9B89     		ldrh	r3, [r3, #12]
 451:hardware/src/lcd.c **** 		LCD_WR_REG(lcddev.setycmd+3);LCD_WR_DATA(height&0XFF);  
 3058              		.loc 1 451 3
 3059 0174 0233     		adds	r3, r3, #2
 3060 0176 9BB2     		uxth	r3, r3
 3061 0178 1846     		mov	r0, r3
 3062 017a FFF7FEFF 		bl	LCD_WR_REG
ARM GAS  /tmp/ccRHtd69.s 			page 72


 451:hardware/src/lcd.c **** 		LCD_WR_REG(lcddev.setycmd+3);LCD_WR_DATA(height&0XFF);  
 3063              		.loc 1 451 32
 3064 017e 3B88     		ldrh	r3, [r7]
 3065 0180 1B0A     		lsrs	r3, r3, #8
 3066 0182 9BB2     		uxth	r3, r3
 3067 0184 1846     		mov	r0, r3
 3068 0186 FFF7FEFF 		bl	LCD_WR_DATA
 452:hardware/src/lcd.c **** 	}else	//其他驱动IC
 3069              		.loc 1 452 20
 3070 018a 3A4B     		ldr	r3, .L166
 3071 018c 9B89     		ldrh	r3, [r3, #12]
 452:hardware/src/lcd.c **** 	}else	//其他驱动IC
 3072              		.loc 1 452 3
 3073 018e 0333     		adds	r3, r3, #3
 3074 0190 9BB2     		uxth	r3, r3
 3075 0192 1846     		mov	r0, r3
 3076 0194 FFF7FEFF 		bl	LCD_WR_REG
 452:hardware/src/lcd.c **** 	}else	//其他驱动IC
 3077              		.loc 1 452 32
 3078 0198 3B88     		ldrh	r3, [r7]	@ movhi
 3079 019a DBB2     		uxtb	r3, r3
 3080 019c 9BB2     		uxth	r3, r3
 3081 019e 1846     		mov	r0, r3
 3082 01a0 FFF7FEFF 		bl	LCD_WR_DATA
 3083              		.loc 1 487 1
 3084 01a4 61E0     		b	.L165
 3085              	.L160:
 455:hardware/src/lcd.c **** 		{
 3086              		.loc 1 455 12
 3087 01a6 334B     		ldr	r3, .L166
 3088 01a8 9B79     		ldrb	r3, [r3, #6]	@ zero_extendqisi2
 455:hardware/src/lcd.c **** 		{
 3089              		.loc 1 455 5
 3090 01aa 012B     		cmp	r3, #1
 3091 01ac 12D1     		bne	.L161
 458:hardware/src/lcd.c **** 			heaval=height;
 3092              		.loc 1 458 10
 3093 01ae BB88     		ldrh	r3, [r7, #4]	@ movhi
 3094 01b0 7B82     		strh	r3, [r7, #18]	@ movhi
 459:hardware/src/lcd.c **** 			vsaval=lcddev.width-width-1;
 3095              		.loc 1 459 10
 3096 01b2 3B88     		ldrh	r3, [r7]	@ movhi
 3097 01b4 3B82     		strh	r3, [r7, #16]	@ movhi
 460:hardware/src/lcd.c **** 			veaval=lcddev.width-sx-1;				
 3098              		.loc 1 460 17
 3099 01b6 2F4B     		ldr	r3, .L166
 3100 01b8 1A88     		ldrh	r2, [r3]
 460:hardware/src/lcd.c **** 			veaval=lcddev.width-sx-1;				
 3101              		.loc 1 460 23
 3102 01ba 7B88     		ldrh	r3, [r7, #2]	@ movhi
 3103 01bc D31A     		subs	r3, r2, r3
 3104 01be 9BB2     		uxth	r3, r3
 460:hardware/src/lcd.c **** 			veaval=lcddev.width-sx-1;				
 3105              		.loc 1 460 10
 3106 01c0 013B     		subs	r3, r3, #1
 3107 01c2 FB81     		strh	r3, [r7, #14]	@ movhi
 461:hardware/src/lcd.c **** 		}else
ARM GAS  /tmp/ccRHtd69.s 			page 73


 3108              		.loc 1 461 17
 3109 01c4 2B4B     		ldr	r3, .L166
 3110 01c6 1A88     		ldrh	r2, [r3]
 461:hardware/src/lcd.c **** 		}else
 3111              		.loc 1 461 23
 3112 01c8 FB88     		ldrh	r3, [r7, #6]	@ movhi
 3113 01ca D31A     		subs	r3, r2, r3
 3114 01cc 9BB2     		uxth	r3, r3
 461:hardware/src/lcd.c **** 		}else
 3115              		.loc 1 461 10
 3116 01ce 013B     		subs	r3, r3, #1
 3117 01d0 BB81     		strh	r3, [r7, #12]	@ movhi
 3118 01d2 07E0     		b	.L162
 3119              	.L161:
 464:hardware/src/lcd.c **** 			heaval=width;
 3120              		.loc 1 464 10
 3121 01d4 FB88     		ldrh	r3, [r7, #6]	@ movhi
 3122 01d6 7B82     		strh	r3, [r7, #18]	@ movhi
 465:hardware/src/lcd.c **** 			vsaval=sy;
 3123              		.loc 1 465 10
 3124 01d8 7B88     		ldrh	r3, [r7, #2]	@ movhi
 3125 01da 3B82     		strh	r3, [r7, #16]	@ movhi
 466:hardware/src/lcd.c **** 			veaval=height;
 3126              		.loc 1 466 10
 3127 01dc BB88     		ldrh	r3, [r7, #4]	@ movhi
 3128 01de FB81     		strh	r3, [r7, #14]	@ movhi
 467:hardware/src/lcd.c **** 		}
 3129              		.loc 1 467 10
 3130 01e0 3B88     		ldrh	r3, [r7]	@ movhi
 3131 01e2 BB81     		strh	r3, [r7, #12]	@ movhi
 3132              	.L162:
 469:hardware/src/lcd.c **** 		{
 3133              		.loc 1 469 13
 3134 01e4 234B     		ldr	r3, .L166
 3135 01e6 9B88     		ldrh	r3, [r3, #4]
 469:hardware/src/lcd.c **** 		{
 3136              		.loc 1 469 6
 3137 01e8 48F68912 		movw	r2, #35209
 3138 01ec 9342     		cmp	r3, r2
 3139 01ee 12D1     		bne	.L163
 471:hardware/src/lcd.c **** 			hsaval|=(heaval<<8);	//得到寄存器值.
 3140              		.loc 1 471 10
 3141 01f0 4423     		movs	r3, #68
 3142 01f2 FB75     		strb	r3, [r7, #23]
 471:hardware/src/lcd.c **** 			hsaval|=(heaval<<8);	//得到寄存器值.
 3143              		.loc 1 471 22
 3144 01f4 4423     		movs	r3, #68
 3145 01f6 BB75     		strb	r3, [r7, #22]
 472:hardware/src/lcd.c **** 			heaval=hsaval;
 3146              		.loc 1 472 19
 3147 01f8 3B8A     		ldrh	r3, [r7, #16]
 3148 01fa 1B02     		lsls	r3, r3, #8
 472:hardware/src/lcd.c **** 			heaval=hsaval;
 3149              		.loc 1 472 10
 3150 01fc 1AB2     		sxth	r2, r3
 3151 01fe B7F91230 		ldrsh	r3, [r7, #18]
 3152 0202 1343     		orrs	r3, r3, r2
ARM GAS  /tmp/ccRHtd69.s 			page 74


 3153 0204 1BB2     		sxth	r3, r3
 3154 0206 7B82     		strh	r3, [r7, #18]	@ movhi
 473:hardware/src/lcd.c **** 			vsareg=0X45;veareg=0X46;//垂直方向窗口寄存器	  
 3155              		.loc 1 473 10
 3156 0208 7B8A     		ldrh	r3, [r7, #18]	@ movhi
 3157 020a 3B82     		strh	r3, [r7, #16]	@ movhi
 474:hardware/src/lcd.c **** 		}else  //其他驱动IC
 3158              		.loc 1 474 10
 3159 020c 4523     		movs	r3, #69
 3160 020e 7B75     		strb	r3, [r7, #21]
 474:hardware/src/lcd.c **** 		}else  //其他驱动IC
 3161              		.loc 1 474 22
 3162 0210 4623     		movs	r3, #70
 3163 0212 3B75     		strb	r3, [r7, #20]
 3164 0214 07E0     		b	.L164
 3165              	.L163:
 477:hardware/src/lcd.c **** 			vsareg=0X52;veareg=0X53;//垂直方向窗口寄存器	  
 3166              		.loc 1 477 10
 3167 0216 5023     		movs	r3, #80
 3168 0218 FB75     		strb	r3, [r7, #23]
 477:hardware/src/lcd.c **** 			vsareg=0X52;veareg=0X53;//垂直方向窗口寄存器	  
 3169              		.loc 1 477 22
 3170 021a 5123     		movs	r3, #81
 3171 021c BB75     		strb	r3, [r7, #22]
 478:hardware/src/lcd.c **** 		}								  
 3172              		.loc 1 478 10
 3173 021e 5223     		movs	r3, #82
 3174 0220 7B75     		strb	r3, [r7, #21]
 478:hardware/src/lcd.c **** 		}								  
 3175              		.loc 1 478 22
 3176 0222 5323     		movs	r3, #83
 3177 0224 3B75     		strb	r3, [r7, #20]
 3178              	.L164:
 481:hardware/src/lcd.c **** 		LCD_WriteReg(heareg,heaval);
 3179              		.loc 1 481 3
 3180 0226 FB7D     		ldrb	r3, [r7, #23]	@ zero_extendqisi2
 3181 0228 9BB2     		uxth	r3, r3
 3182 022a 7A8A     		ldrh	r2, [r7, #18]
 3183 022c 1146     		mov	r1, r2
 3184 022e 1846     		mov	r0, r3
 3185 0230 FFF7FEFF 		bl	LCD_WriteReg
 482:hardware/src/lcd.c **** 		LCD_WriteReg(vsareg,vsaval);
 3186              		.loc 1 482 3
 3187 0234 BB7D     		ldrb	r3, [r7, #22]	@ zero_extendqisi2
 3188 0236 9BB2     		uxth	r3, r3
 3189 0238 3A8A     		ldrh	r2, [r7, #16]
 3190 023a 1146     		mov	r1, r2
 3191 023c 1846     		mov	r0, r3
 3192 023e FFF7FEFF 		bl	LCD_WriteReg
 483:hardware/src/lcd.c **** 		LCD_WriteReg(veareg,veaval);		
 3193              		.loc 1 483 3
 3194 0242 7B7D     		ldrb	r3, [r7, #21]	@ zero_extendqisi2
 3195 0244 9BB2     		uxth	r3, r3
 3196 0246 FA89     		ldrh	r2, [r7, #14]
 3197 0248 1146     		mov	r1, r2
 3198 024a 1846     		mov	r0, r3
 3199 024c FFF7FEFF 		bl	LCD_WriteReg
ARM GAS  /tmp/ccRHtd69.s 			page 75


 484:hardware/src/lcd.c **** 		LCD_SetCursor(sx,sy);	//设置光标位置
 3200              		.loc 1 484 3
 3201 0250 3B7D     		ldrb	r3, [r7, #20]	@ zero_extendqisi2
 3202 0252 9BB2     		uxth	r3, r3
 3203 0254 BA89     		ldrh	r2, [r7, #12]
 3204 0256 1146     		mov	r1, r2
 3205 0258 1846     		mov	r0, r3
 3206 025a FFF7FEFF 		bl	LCD_WriteReg
 485:hardware/src/lcd.c **** 	}
 3207              		.loc 1 485 3
 3208 025e BA88     		ldrh	r2, [r7, #4]
 3209 0260 FB88     		ldrh	r3, [r7, #6]
 3210 0262 1146     		mov	r1, r2
 3211 0264 1846     		mov	r0, r3
 3212 0266 FFF7FEFF 		bl	LCD_SetCursor
 3213              	.L165:
 3214              		.loc 1 487 1
 3215 026a 00BF     		nop
 3216 026c 1C37     		adds	r7, r7, #28
 3217              	.LCFI86:
 3218              		.cfi_def_cfa_offset 12
 3219 026e BD46     		mov	sp, r7
 3220              	.LCFI87:
 3221              		.cfi_def_cfa_register 13
 3222              		@ sp needed
 3223 0270 90BD     		pop	{r4, r7, pc}
 3224              	.L167:
 3225 0272 00BF     		.align	2
 3226              	.L166:
 3227 0274 00000000 		.word	lcddev
 3228              		.cfi_endproc
 3229              	.LFE83:
 3231              		.section	.rodata
 3232              		.align	2
 3233              	.LC0:
 3234 0000 204C4344 		.ascii	" LCD ID:%x\015\012\000"
 3234      2049443A 
 3234      25780D0A 
 3234      00
 3235              		.section	.text.LCD_Init,"ax",%progbits
 3236              		.align	1
 3237              		.global	LCD_Init
 3238              		.syntax unified
 3239              		.thumb
 3240              		.thumb_func
 3241              		.fpu softvfp
 3243              	LCD_Init:
 3244              	.LFB84:
 488:hardware/src/lcd.c **** //初始化lcd
 489:hardware/src/lcd.c **** //该初始化函数可以初始化各种ILI93XX液晶,但是其他函数是基于ILI9320的!!!
 490:hardware/src/lcd.c **** //在其他型号的驱动芯片上没有测试! 
 491:hardware/src/lcd.c **** void LCD_Init(void)
 492:hardware/src/lcd.c **** { 										  
 3245              		.loc 1 492 1
 3246              		.cfi_startproc
 3247              		@ args = 0, pretend = 0, frame = 120
 3248              		@ frame_needed = 1, uses_anonymous_args = 0
ARM GAS  /tmp/ccRHtd69.s 			page 76


 3249 0000 80B5     		push	{r7, lr}
 3250              	.LCFI88:
 3251              		.cfi_def_cfa_offset 8
 3252              		.cfi_offset 7, -8
 3253              		.cfi_offset 14, -4
 3254 0002 9EB0     		sub	sp, sp, #120
 3255              	.LCFI89:
 3256              		.cfi_def_cfa_offset 128
 3257 0004 00AF     		add	r7, sp, #0
 3258              	.LCFI90:
 3259              		.cfi_def_cfa_register 7
 493:hardware/src/lcd.c ****  	GPIO_InitTypeDef GPIO_InitStructure;
 494:hardware/src/lcd.c **** 	FSMC_NORSRAMInitTypeDef  FSMC_NORSRAMInitStructure;
 495:hardware/src/lcd.c ****     FSMC_NORSRAMTimingInitTypeDef  readWriteTiming; 
 496:hardware/src/lcd.c **** 	FSMC_NORSRAMTimingInitTypeDef  writeTiming;
 497:hardware/src/lcd.c **** 
 498:hardware/src/lcd.c ****     RCC_AHBPeriphClockCmd(RCC_AHBPeriph_FSMC,ENABLE);	//使能FSMC时钟
 3260              		.loc 1 498 5
 3261 0006 0121     		movs	r1, #1
 3262 0008 4FF48070 		mov	r0, #256
 3263 000c FFF7FEFF 		bl	RCC_AHBPeriphClockCmd
 499:hardware/src/lcd.c **** 	RCC_APB2PeriphClockCmd(RCC_APB2Periph_GPIOB|RCC_APB2Periph_GPIOD|RCC_APB2Periph_GPIOE|RCC_APB2Peri
 3264              		.loc 1 499 2
 3265 0010 0121     		movs	r1, #1
 3266 0012 40F26910 		movw	r0, #361
 3267 0016 FFF7FEFF 		bl	RCC_APB2PeriphClockCmd
 500:hardware/src/lcd.c **** 
 501:hardware/src/lcd.c ****  	GPIO_InitStructure.GPIO_Pin = GPIO_Pin_0;				 //PB0 推挽输出 背光
 3268              		.loc 1 501 31
 3269 001a 0123     		movs	r3, #1
 3270 001c A7F87430 		strh	r3, [r7, #116]	@ movhi
 502:hardware/src/lcd.c ****  	GPIO_InitStructure.GPIO_Mode = GPIO_Mode_Out_PP; 		 //推挽输出
 3271              		.loc 1 502 32
 3272 0020 1023     		movs	r3, #16
 3273 0022 87F87730 		strb	r3, [r7, #119]
 503:hardware/src/lcd.c ****  	GPIO_InitStructure.GPIO_Speed = GPIO_Speed_50MHz;
 3274              		.loc 1 503 33
 3275 0026 0323     		movs	r3, #3
 3276 0028 87F87630 		strb	r3, [r7, #118]
 504:hardware/src/lcd.c ****  	GPIO_Init(GPIOB, &GPIO_InitStructure);
 3277              		.loc 1 504 3
 3278 002c 07F17403 		add	r3, r7, #116
 3279 0030 1946     		mov	r1, r3
 3280 0032 A048     		ldr	r0, .L186
 3281 0034 FFF7FEFF 		bl	GPIO_Init
 505:hardware/src/lcd.c **** 
 506:hardware/src/lcd.c ****  	//PORTD复用推挽输出  
 507:hardware/src/lcd.c **** 	GPIO_InitStructure.GPIO_Pin = GPIO_Pin_0|GPIO_Pin_1|GPIO_Pin_4|GPIO_Pin_5|GPIO_Pin_8|GPIO_Pin_9|GP
 3282              		.loc 1 507 30
 3283 0038 4CF23373 		movw	r3, #50995
 3284 003c A7F87430 		strh	r3, [r7, #116]	@ movhi
 508:hardware/src/lcd.c ****  	GPIO_InitStructure.GPIO_Mode = GPIO_Mode_AF_PP; 		 //复用推挽输出   
 3285              		.loc 1 508 32
 3286 0040 1823     		movs	r3, #24
 3287 0042 87F87730 		strb	r3, [r7, #119]
 509:hardware/src/lcd.c ****  	GPIO_InitStructure.GPIO_Speed = GPIO_Speed_50MHz;
 3288              		.loc 1 509 33
ARM GAS  /tmp/ccRHtd69.s 			page 77


 3289 0046 0323     		movs	r3, #3
 3290 0048 87F87630 		strb	r3, [r7, #118]
 510:hardware/src/lcd.c ****  	GPIO_Init(GPIOD, &GPIO_InitStructure); 
 3291              		.loc 1 510 3
 3292 004c 07F17403 		add	r3, r7, #116
 3293 0050 1946     		mov	r1, r3
 3294 0052 9948     		ldr	r0, .L186+4
 3295 0054 FFF7FEFF 		bl	GPIO_Init
 511:hardware/src/lcd.c **** 	  
 512:hardware/src/lcd.c **** 	//PORTE复用推挽输出  
 513:hardware/src/lcd.c **** 	GPIO_InitStructure.GPIO_Pin = GPIO_Pin_7|GPIO_Pin_8|GPIO_Pin_9|GPIO_Pin_10|GPIO_Pin_11|GPIO_Pin_12
 3296              		.loc 1 513 30
 3297 0058 4FF68073 		movw	r3, #65408
 3298 005c A7F87430 		strh	r3, [r7, #116]	@ movhi
 514:hardware/src/lcd.c ****  	GPIO_InitStructure.GPIO_Mode = GPIO_Mode_AF_PP; 		 //复用推挽输出   
 3299              		.loc 1 514 32
 3300 0060 1823     		movs	r3, #24
 3301 0062 87F87730 		strb	r3, [r7, #119]
 515:hardware/src/lcd.c ****  	GPIO_InitStructure.GPIO_Speed = GPIO_Speed_50MHz;
 3302              		.loc 1 515 33
 3303 0066 0323     		movs	r3, #3
 3304 0068 87F87630 		strb	r3, [r7, #118]
 516:hardware/src/lcd.c ****  	GPIO_Init(GPIOE, &GPIO_InitStructure); 
 3305              		.loc 1 516 3
 3306 006c 07F17403 		add	r3, r7, #116
 3307 0070 1946     		mov	r1, r3
 3308 0072 9248     		ldr	r0, .L186+8
 3309 0074 FFF7FEFF 		bl	GPIO_Init
 517:hardware/src/lcd.c **** 	  
 518:hardware/src/lcd.c ****    	//	//PORTG12复用推挽输出 A0	
 519:hardware/src/lcd.c **** 	GPIO_InitStructure.GPIO_Pin = GPIO_Pin_0|GPIO_Pin_12;	 //	//PORTD复用推挽输出  
 3310              		.loc 1 519 30
 3311 0078 41F20103 		movw	r3, #4097
 3312 007c A7F87430 		strh	r3, [r7, #116]	@ movhi
 520:hardware/src/lcd.c ****  	GPIO_InitStructure.GPIO_Mode = GPIO_Mode_AF_PP; 		 //复用推挽输出   
 3313              		.loc 1 520 32
 3314 0080 1823     		movs	r3, #24
 3315 0082 87F87730 		strb	r3, [r7, #119]
 521:hardware/src/lcd.c ****  	GPIO_InitStructure.GPIO_Speed = GPIO_Speed_50MHz;
 3316              		.loc 1 521 33
 3317 0086 0323     		movs	r3, #3
 3318 0088 87F87630 		strb	r3, [r7, #118]
 522:hardware/src/lcd.c ****  	GPIO_Init(GPIOG, &GPIO_InitStructure); 
 3319              		.loc 1 522 3
 3320 008c 07F17403 		add	r3, r7, #116
 3321 0090 1946     		mov	r1, r3
 3322 0092 8B48     		ldr	r0, .L186+12
 3323 0094 FFF7FEFF 		bl	GPIO_Init
 523:hardware/src/lcd.c ****  
 524:hardware/src/lcd.c **** 	readWriteTiming.FSMC_AddressSetupTime = 0x01;	 //地址建立时间（ADDSET）为2个HCLK 1/36M=27ns
 3324              		.loc 1 524 40
 3325 0098 0123     		movs	r3, #1
 3326 009a FB61     		str	r3, [r7, #28]
 525:hardware/src/lcd.c ****     readWriteTiming.FSMC_AddressHoldTime = 0x00;	 //地址保持时间（ADDHLD）模式A未用到	
 3327              		.loc 1 525 42
 3328 009c 0023     		movs	r3, #0
 3329 009e 3B62     		str	r3, [r7, #32]
ARM GAS  /tmp/ccRHtd69.s 			page 78


 526:hardware/src/lcd.c ****     readWriteTiming.FSMC_DataSetupTime = 0x0f;		 // 数据保存时间为16个HCLK,因为液晶驱动IC的读数据的
 3330              		.loc 1 526 40
 3331 00a0 0F23     		movs	r3, #15
 3332 00a2 7B62     		str	r3, [r7, #36]
 527:hardware/src/lcd.c ****     readWriteTiming.FSMC_BusTurnAroundDuration = 0x00;
 3333              		.loc 1 527 48
 3334 00a4 0023     		movs	r3, #0
 3335 00a6 BB62     		str	r3, [r7, #40]
 528:hardware/src/lcd.c ****     readWriteTiming.FSMC_CLKDivision = 0x00;
 3336              		.loc 1 528 38
 3337 00a8 0023     		movs	r3, #0
 3338 00aa FB62     		str	r3, [r7, #44]
 529:hardware/src/lcd.c ****     readWriteTiming.FSMC_DataLatency = 0x00;
 3339              		.loc 1 529 38
 3340 00ac 0023     		movs	r3, #0
 3341 00ae 3B63     		str	r3, [r7, #48]
 530:hardware/src/lcd.c ****     readWriteTiming.FSMC_AccessMode = FSMC_AccessMode_A;	 //模式A 
 3342              		.loc 1 530 37
 3343 00b0 0023     		movs	r3, #0
 3344 00b2 7B63     		str	r3, [r7, #52]
 531:hardware/src/lcd.c ****     
 532:hardware/src/lcd.c **** 
 533:hardware/src/lcd.c **** 	writeTiming.FSMC_AddressSetupTime = 0x00;	 //地址建立时间（ADDSET）为1个HCLK  
 3345              		.loc 1 533 36
 3346 00b4 0023     		movs	r3, #0
 3347 00b6 3B60     		str	r3, [r7]
 534:hardware/src/lcd.c ****     writeTiming.FSMC_AddressHoldTime = 0x00;	 //地址保持时间（A		
 3348              		.loc 1 534 38
 3349 00b8 0023     		movs	r3, #0
 3350 00ba 7B60     		str	r3, [r7, #4]
 535:hardware/src/lcd.c ****     writeTiming.FSMC_DataSetupTime = 0x03;		 ////数据保存时间为4个HCLK	
 3351              		.loc 1 535 36
 3352 00bc 0323     		movs	r3, #3
 3353 00be BB60     		str	r3, [r7, #8]
 536:hardware/src/lcd.c ****     writeTiming.FSMC_BusTurnAroundDuration = 0x00;
 3354              		.loc 1 536 44
 3355 00c0 0023     		movs	r3, #0
 3356 00c2 FB60     		str	r3, [r7, #12]
 537:hardware/src/lcd.c ****     writeTiming.FSMC_CLKDivision = 0x00;
 3357              		.loc 1 537 34
 3358 00c4 0023     		movs	r3, #0
 3359 00c6 3B61     		str	r3, [r7, #16]
 538:hardware/src/lcd.c ****     writeTiming.FSMC_DataLatency = 0x00;
 3360              		.loc 1 538 34
 3361 00c8 0023     		movs	r3, #0
 3362 00ca 7B61     		str	r3, [r7, #20]
 539:hardware/src/lcd.c ****     writeTiming.FSMC_AccessMode = FSMC_AccessMode_A;	 //模式A 
 3363              		.loc 1 539 33
 3364 00cc 0023     		movs	r3, #0
 3365 00ce BB61     		str	r3, [r7, #24]
 540:hardware/src/lcd.c **** 
 541:hardware/src/lcd.c ****  
 542:hardware/src/lcd.c ****     FSMC_NORSRAMInitStructure.FSMC_Bank = FSMC_Bank1_NORSRAM4;//  这里我们使用NE4 ，也就对应BTCR[6]
 3366              		.loc 1 542 41
 3367 00d0 0623     		movs	r3, #6
 3368 00d2 BB63     		str	r3, [r7, #56]
 543:hardware/src/lcd.c ****     FSMC_NORSRAMInitStructure.FSMC_DataAddressMux = FSMC_DataAddressMux_Disable; // 不复用数据地址
ARM GAS  /tmp/ccRHtd69.s 			page 79


 3369              		.loc 1 543 51
 3370 00d4 0023     		movs	r3, #0
 3371 00d6 FB63     		str	r3, [r7, #60]
 544:hardware/src/lcd.c ****     FSMC_NORSRAMInitStructure.FSMC_MemoryType =FSMC_MemoryType_SRAM;// FSMC_MemoryType_SRAM;  //SRA
 3372              		.loc 1 544 47
 3373 00d8 0023     		movs	r3, #0
 3374 00da 3B64     		str	r3, [r7, #64]
 545:hardware/src/lcd.c ****     FSMC_NORSRAMInitStructure.FSMC_MemoryDataWidth = FSMC_MemoryDataWidth_16b;//存储器数据宽度为16b
 3375              		.loc 1 545 52
 3376 00dc 1023     		movs	r3, #16
 3377 00de 7B64     		str	r3, [r7, #68]
 546:hardware/src/lcd.c ****     FSMC_NORSRAMInitStructure.FSMC_BurstAccessMode =FSMC_BurstAccessMode_Disable;// FSMC_BurstAcces
 3378              		.loc 1 546 52
 3379 00e0 0023     		movs	r3, #0
 3380 00e2 BB64     		str	r3, [r7, #72]
 547:hardware/src/lcd.c ****     FSMC_NORSRAMInitStructure.FSMC_WaitSignalPolarity = FSMC_WaitSignalPolarity_Low;
 3381              		.loc 1 547 55
 3382 00e4 0023     		movs	r3, #0
 3383 00e6 3B65     		str	r3, [r7, #80]
 548:hardware/src/lcd.c **** 	FSMC_NORSRAMInitStructure.FSMC_AsynchronousWait=FSMC_AsynchronousWait_Disable; 
 3384              		.loc 1 548 49
 3385 00e8 0023     		movs	r3, #0
 3386 00ea FB64     		str	r3, [r7, #76]
 549:hardware/src/lcd.c ****     FSMC_NORSRAMInitStructure.FSMC_WrapMode = FSMC_WrapMode_Disable;   
 3387              		.loc 1 549 45
 3388 00ec 0023     		movs	r3, #0
 3389 00ee 7B65     		str	r3, [r7, #84]
 550:hardware/src/lcd.c ****     FSMC_NORSRAMInitStructure.FSMC_WaitSignalActive = FSMC_WaitSignalActive_BeforeWaitState;  
 3390              		.loc 1 550 53
 3391 00f0 0023     		movs	r3, #0
 3392 00f2 BB65     		str	r3, [r7, #88]
 551:hardware/src/lcd.c ****     FSMC_NORSRAMInitStructure.FSMC_WriteOperation = FSMC_WriteOperation_Enable;	//  存储器写使能
 3393              		.loc 1 551 51
 3394 00f4 4FF48053 		mov	r3, #4096
 3395 00f8 FB65     		str	r3, [r7, #92]
 552:hardware/src/lcd.c ****     FSMC_NORSRAMInitStructure.FSMC_WaitSignal = FSMC_WaitSignal_Disable;   
 3396              		.loc 1 552 47
 3397 00fa 0023     		movs	r3, #0
 3398 00fc 3B66     		str	r3, [r7, #96]
 553:hardware/src/lcd.c ****     FSMC_NORSRAMInitStructure.FSMC_ExtendedMode = FSMC_ExtendedMode_Enable; // 读写使用不同的时序
 3399              		.loc 1 553 49
 3400 00fe 4FF48043 		mov	r3, #16384
 3401 0102 7B66     		str	r3, [r7, #100]
 554:hardware/src/lcd.c ****     FSMC_NORSRAMInitStructure.FSMC_WriteBurst = FSMC_WriteBurst_Disable; 
 3402              		.loc 1 554 47
 3403 0104 0023     		movs	r3, #0
 3404 0106 BB66     		str	r3, [r7, #104]
 555:hardware/src/lcd.c ****     FSMC_NORSRAMInitStructure.FSMC_ReadWriteTimingStruct = &readWriteTiming; //读写时序
 3405              		.loc 1 555 58
 3406 0108 07F11C03 		add	r3, r7, #28
 3407 010c FB66     		str	r3, [r7, #108]
 556:hardware/src/lcd.c ****     FSMC_NORSRAMInitStructure.FSMC_WriteTimingStruct = &writeTiming;  //写时序
 3408              		.loc 1 556 54
 3409 010e 3B46     		mov	r3, r7
 3410 0110 3B67     		str	r3, [r7, #112]
 557:hardware/src/lcd.c **** 
 558:hardware/src/lcd.c ****     FSMC_NORSRAMInit(&FSMC_NORSRAMInitStructure);  //初始化FSMC配置
ARM GAS  /tmp/ccRHtd69.s 			page 80


 3411              		.loc 1 558 5
 3412 0112 07F13803 		add	r3, r7, #56
 3413 0116 1846     		mov	r0, r3
 3414 0118 FFF7FEFF 		bl	FSMC_NORSRAMInit
 559:hardware/src/lcd.c **** 
 560:hardware/src/lcd.c ****    	FSMC_NORSRAMCmd(FSMC_Bank1_NORSRAM4, ENABLE);  // 使能BANK1 
 3415              		.loc 1 560 5
 3416 011c 0121     		movs	r1, #1
 3417 011e 0620     		movs	r0, #6
 3418 0120 FFF7FEFF 		bl	FSMC_NORSRAMCmd
 561:hardware/src/lcd.c **** 				 
 562:hardware/src/lcd.c ****  	delay_ms(50); // delay 50 ms 
 3419              		.loc 1 562 3
 3420 0124 3220     		movs	r0, #50
 3421 0126 FFF7FEFF 		bl	delay_ms
 563:hardware/src/lcd.c ****  	LCD_WriteReg(0x0000,0x0001);
 3422              		.loc 1 563 3
 3423 012a 0121     		movs	r1, #1
 3424 012c 0020     		movs	r0, #0
 3425 012e FFF7FEFF 		bl	LCD_WriteReg
 564:hardware/src/lcd.c **** 	delay_ms(50); // delay 50 ms 
 3426              		.loc 1 564 2
 3427 0132 3220     		movs	r0, #50
 3428 0134 FFF7FEFF 		bl	delay_ms
 565:hardware/src/lcd.c ****   	lcddev.id = LCD_ReadReg(0x0000);   
 3429              		.loc 1 565 16
 3430 0138 0020     		movs	r0, #0
 3431 013a FFF7FEFF 		bl	LCD_ReadReg
 3432 013e 0346     		mov	r3, r0
 3433 0140 1A46     		mov	r2, r3
 3434              		.loc 1 565 14
 3435 0142 604B     		ldr	r3, .L186+16
 3436 0144 9A80     		strh	r2, [r3, #4]	@ movhi
 566:hardware/src/lcd.c ****   	if(lcddev.id<0XFF||lcddev.id==0XFFFF||lcddev.id==0X9300)//读到ID不正确,新增lcddev.id==0X9300判断
 3437              		.loc 1 566 13
 3438 0146 5F4B     		ldr	r3, .L186+16
 3439 0148 9B88     		ldrh	r3, [r3, #4]
 3440              		.loc 1 566 6
 3441 014a FE2B     		cmp	r3, #254
 3442 014c 0BD9     		bls	.L169
 3443              		.loc 1 566 29 discriminator 1
 3444 014e 5D4B     		ldr	r3, .L186+16
 3445 0150 9B88     		ldrh	r3, [r3, #4]
 3446              		.loc 1 566 21 discriminator 1
 3447 0152 4FF6FF72 		movw	r2, #65535
 3448 0156 9342     		cmp	r3, r2
 3449 0158 05D0     		beq	.L169
 3450              		.loc 1 566 48 discriminator 2
 3451 015a 5A4B     		ldr	r3, .L186+16
 3452 015c 9B88     		ldrh	r3, [r3, #4]
 3453              		.loc 1 566 40 discriminator 2
 3454 015e B3F5134F 		cmp	r3, #37632
 3455 0162 40F09880 		bne	.L170
 3456              	.L169:
 567:hardware/src/lcd.c **** 	{	
 568:hardware/src/lcd.c ****  		//尝试9341 ID的读取		
 569:hardware/src/lcd.c **** 		LCD_WR_REG(0XD3);				   
ARM GAS  /tmp/ccRHtd69.s 			page 81


 3457              		.loc 1 569 3
 3458 0166 D320     		movs	r0, #211
 3459 0168 FFF7FEFF 		bl	LCD_WR_REG
 570:hardware/src/lcd.c **** 		LCD_RD_DATA(); 				//dummy read 	
 3460              		.loc 1 570 3
 3461 016c FFF7FEFF 		bl	LCD_RD_DATA
 571:hardware/src/lcd.c ****  		LCD_RD_DATA();   	    	//读到0X00
 3462              		.loc 1 571 4
 3463 0170 FFF7FEFF 		bl	LCD_RD_DATA
 572:hardware/src/lcd.c ****   		lcddev.id=LCD_RD_DATA();   	//读取93								   
 3464              		.loc 1 572 15
 3465 0174 FFF7FEFF 		bl	LCD_RD_DATA
 3466 0178 0346     		mov	r3, r0
 3467 017a 1A46     		mov	r2, r3
 3468              		.loc 1 572 14
 3469 017c 514B     		ldr	r3, .L186+16
 3470 017e 9A80     		strh	r2, [r3, #4]	@ movhi
 573:hardware/src/lcd.c ****  		lcddev.id<<=8;
 3471              		.loc 1 573 13
 3472 0180 504B     		ldr	r3, .L186+16
 3473 0182 9B88     		ldrh	r3, [r3, #4]
 3474 0184 1B02     		lsls	r3, r3, #8
 3475 0186 9AB2     		uxth	r2, r3
 3476 0188 4E4B     		ldr	r3, .L186+16
 3477 018a 9A80     		strh	r2, [r3, #4]	@ movhi
 574:hardware/src/lcd.c **** 		lcddev.id|=LCD_RD_DATA();  	//读取41 	   			   
 3478              		.loc 1 574 14
 3479 018c FFF7FEFF 		bl	LCD_RD_DATA
 3480 0190 0346     		mov	r3, r0
 3481 0192 1A46     		mov	r2, r3
 3482              		.loc 1 574 12
 3483 0194 4B4B     		ldr	r3, .L186+16
 3484 0196 9B88     		ldrh	r3, [r3, #4]
 3485 0198 1343     		orrs	r3, r3, r2
 3486 019a 9AB2     		uxth	r2, r3
 3487 019c 494B     		ldr	r3, .L186+16
 3488 019e 9A80     		strh	r2, [r3, #4]	@ movhi
 575:hardware/src/lcd.c ****  		if(lcddev.id!=0X9341)		//非9341,尝试是不是6804
 3489              		.loc 1 575 13
 3490 01a0 484B     		ldr	r3, .L186+16
 3491 01a2 9B88     		ldrh	r3, [r3, #4]
 3492              		.loc 1 575 6
 3493 01a4 49F24132 		movw	r2, #37697
 3494 01a8 9342     		cmp	r3, r2
 3495 01aa 74D0     		beq	.L170
 576:hardware/src/lcd.c **** 		{	
 577:hardware/src/lcd.c ****  			LCD_WR_REG(0XBF);				   
 3496              		.loc 1 577 5
 3497 01ac BF20     		movs	r0, #191
 3498 01ae FFF7FEFF 		bl	LCD_WR_REG
 578:hardware/src/lcd.c **** 			LCD_RD_DATA(); 			//dummy read 	 
 3499              		.loc 1 578 4
 3500 01b2 FFF7FEFF 		bl	LCD_RD_DATA
 579:hardware/src/lcd.c **** 	 		LCD_RD_DATA();   	    //读回0X01			   
 3501              		.loc 1 579 5
 3502 01b6 FFF7FEFF 		bl	LCD_RD_DATA
 580:hardware/src/lcd.c **** 	 		LCD_RD_DATA(); 			//读回0XD0 			  	
ARM GAS  /tmp/ccRHtd69.s 			page 82


 3503              		.loc 1 580 5
 3504 01ba FFF7FEFF 		bl	LCD_RD_DATA
 581:hardware/src/lcd.c **** 	  		lcddev.id=LCD_RD_DATA();//这里读回0X68 
 3505              		.loc 1 581 16
 3506 01be FFF7FEFF 		bl	LCD_RD_DATA
 3507 01c2 0346     		mov	r3, r0
 3508 01c4 1A46     		mov	r2, r3
 3509              		.loc 1 581 15
 3510 01c6 3F4B     		ldr	r3, .L186+16
 3511 01c8 9A80     		strh	r2, [r3, #4]	@ movhi
 582:hardware/src/lcd.c **** 			lcddev.id<<=8;
 3512              		.loc 1 582 13
 3513 01ca 3E4B     		ldr	r3, .L186+16
 3514 01cc 9B88     		ldrh	r3, [r3, #4]
 3515 01ce 1B02     		lsls	r3, r3, #8
 3516 01d0 9AB2     		uxth	r2, r3
 3517 01d2 3C4B     		ldr	r3, .L186+16
 3518 01d4 9A80     		strh	r2, [r3, #4]	@ movhi
 583:hardware/src/lcd.c **** 	  		lcddev.id|=LCD_RD_DATA();//这里读回0X04	  
 3519              		.loc 1 583 17
 3520 01d6 FFF7FEFF 		bl	LCD_RD_DATA
 3521 01da 0346     		mov	r3, r0
 3522 01dc 1A46     		mov	r2, r3
 3523              		.loc 1 583 15
 3524 01de 394B     		ldr	r3, .L186+16
 3525 01e0 9B88     		ldrh	r3, [r3, #4]
 3526 01e2 1343     		orrs	r3, r3, r2
 3527 01e4 9AB2     		uxth	r2, r3
 3528 01e6 374B     		ldr	r3, .L186+16
 3529 01e8 9A80     		strh	r2, [r3, #4]	@ movhi
 584:hardware/src/lcd.c **** 			if(lcddev.id!=0X6804)	//也不是6804,尝试看看是不是NT35310
 3530              		.loc 1 584 13
 3531 01ea 364B     		ldr	r3, .L186+16
 3532 01ec 9B88     		ldrh	r3, [r3, #4]
 3533              		.loc 1 584 6
 3534 01ee 46F60402 		movw	r2, #26628
 3535 01f2 9342     		cmp	r3, r2
 3536 01f4 4FD0     		beq	.L170
 585:hardware/src/lcd.c **** 			{ 
 586:hardware/src/lcd.c **** 				LCD_WR_REG(0XD4);				   
 3537              		.loc 1 586 5
 3538 01f6 D420     		movs	r0, #212
 3539 01f8 FFF7FEFF 		bl	LCD_WR_REG
 587:hardware/src/lcd.c **** 				LCD_RD_DATA(); 				//dummy read  
 3540              		.loc 1 587 5
 3541 01fc FFF7FEFF 		bl	LCD_RD_DATA
 588:hardware/src/lcd.c **** 				LCD_RD_DATA();   			//读回0X01	 
 3542              		.loc 1 588 5
 3543 0200 FFF7FEFF 		bl	LCD_RD_DATA
 589:hardware/src/lcd.c **** 				lcddev.id=LCD_RD_DATA();	//读回0X53	
 3544              		.loc 1 589 15
 3545 0204 FFF7FEFF 		bl	LCD_RD_DATA
 3546 0208 0346     		mov	r3, r0
 3547 020a 1A46     		mov	r2, r3
 3548              		.loc 1 589 14
 3549 020c 2D4B     		ldr	r3, .L186+16
 3550 020e 9A80     		strh	r2, [r3, #4]	@ movhi
ARM GAS  /tmp/ccRHtd69.s 			page 83


 590:hardware/src/lcd.c **** 				lcddev.id<<=8;	 
 3551              		.loc 1 590 14
 3552 0210 2C4B     		ldr	r3, .L186+16
 3553 0212 9B88     		ldrh	r3, [r3, #4]
 3554 0214 1B02     		lsls	r3, r3, #8
 3555 0216 9AB2     		uxth	r2, r3
 3556 0218 2A4B     		ldr	r3, .L186+16
 3557 021a 9A80     		strh	r2, [r3, #4]	@ movhi
 591:hardware/src/lcd.c **** 				lcddev.id|=LCD_RD_DATA();	//这里读回0X10	 
 3558              		.loc 1 591 16
 3559 021c FFF7FEFF 		bl	LCD_RD_DATA
 3560 0220 0346     		mov	r3, r0
 3561 0222 1A46     		mov	r2, r3
 3562              		.loc 1 591 14
 3563 0224 274B     		ldr	r3, .L186+16
 3564 0226 9B88     		ldrh	r3, [r3, #4]
 3565 0228 1343     		orrs	r3, r3, r2
 3566 022a 9AB2     		uxth	r2, r3
 3567 022c 254B     		ldr	r3, .L186+16
 3568 022e 9A80     		strh	r2, [r3, #4]	@ movhi
 592:hardware/src/lcd.c **** 				if(lcddev.id!=0X5310)		//也不是NT35310,尝试看看是不是NT35510
 3569              		.loc 1 592 14
 3570 0230 244B     		ldr	r3, .L186+16
 3571 0232 9B88     		ldrh	r3, [r3, #4]
 3572              		.loc 1 592 7
 3573 0234 45F21032 		movw	r2, #21264
 3574 0238 9342     		cmp	r3, r2
 3575 023a 2CD0     		beq	.L170
 593:hardware/src/lcd.c **** 				{
 594:hardware/src/lcd.c **** 					LCD_WR_REG(0XDA00);	
 3576              		.loc 1 594 6
 3577 023c 4FF45A40 		mov	r0, #55808
 3578 0240 FFF7FEFF 		bl	LCD_WR_REG
 595:hardware/src/lcd.c **** 					LCD_RD_DATA();   		//读回0X00	 
 3579              		.loc 1 595 6
 3580 0244 FFF7FEFF 		bl	LCD_RD_DATA
 596:hardware/src/lcd.c **** 					LCD_WR_REG(0XDB00);	
 3581              		.loc 1 596 6
 3582 0248 4FF45B40 		mov	r0, #56064
 3583 024c FFF7FEFF 		bl	LCD_WR_REG
 597:hardware/src/lcd.c **** 					lcddev.id=LCD_RD_DATA();//读回0X80
 3584              		.loc 1 597 16
 3585 0250 FFF7FEFF 		bl	LCD_RD_DATA
 3586 0254 0346     		mov	r3, r0
 3587 0256 1A46     		mov	r2, r3
 3588              		.loc 1 597 15
 3589 0258 1A4B     		ldr	r3, .L186+16
 3590 025a 9A80     		strh	r2, [r3, #4]	@ movhi
 598:hardware/src/lcd.c **** 					lcddev.id<<=8;	
 3591              		.loc 1 598 15
 3592 025c 194B     		ldr	r3, .L186+16
 3593 025e 9B88     		ldrh	r3, [r3, #4]
 3594 0260 1B02     		lsls	r3, r3, #8
 3595 0262 9AB2     		uxth	r2, r3
 3596 0264 174B     		ldr	r3, .L186+16
 3597 0266 9A80     		strh	r2, [r3, #4]	@ movhi
 599:hardware/src/lcd.c **** 					LCD_WR_REG(0XDC00);	
ARM GAS  /tmp/ccRHtd69.s 			page 84


 3598              		.loc 1 599 6
 3599 0268 4FF45C40 		mov	r0, #56320
 3600 026c FFF7FEFF 		bl	LCD_WR_REG
 600:hardware/src/lcd.c **** 					lcddev.id|=LCD_RD_DATA();//读回0X00		
 3601              		.loc 1 600 17
 3602 0270 FFF7FEFF 		bl	LCD_RD_DATA
 3603 0274 0346     		mov	r3, r0
 3604 0276 1A46     		mov	r2, r3
 3605              		.loc 1 600 15
 3606 0278 124B     		ldr	r3, .L186+16
 3607 027a 9B88     		ldrh	r3, [r3, #4]
 3608 027c 1343     		orrs	r3, r3, r2
 3609 027e 9AB2     		uxth	r2, r3
 3610 0280 104B     		ldr	r3, .L186+16
 3611 0282 9A80     		strh	r2, [r3, #4]	@ movhi
 601:hardware/src/lcd.c **** 					if(lcddev.id==0x8000)lcddev.id=0x5510;//NT35510读回的ID是8000H,为方便区分,我们强制设置为5510
 3612              		.loc 1 601 15
 3613 0284 0F4B     		ldr	r3, .L186+16
 3614 0286 9B88     		ldrh	r3, [r3, #4]
 3615              		.loc 1 601 8
 3616 0288 B3F5004F 		cmp	r3, #32768
 3617 028c 03D1     		bne	.L170
 3618              		.loc 1 601 36 discriminator 1
 3619 028e 0D4B     		ldr	r3, .L186+16
 3620 0290 45F21052 		movw	r2, #21776
 3621 0294 9A80     		strh	r2, [r3, #4]	@ movhi
 3622              	.L170:
 602:hardware/src/lcd.c **** 				}
 603:hardware/src/lcd.c **** 			}
 604:hardware/src/lcd.c ****  		}  	
 605:hardware/src/lcd.c **** 	} 
 606:hardware/src/lcd.c ****  	printf(" LCD ID:%x\r\n",lcddev.id); //打印LCD ID  
 3623              		.loc 1 606 33
 3624 0296 0B4B     		ldr	r3, .L186+16
 3625 0298 9B88     		ldrh	r3, [r3, #4]
 3626              		.loc 1 606 3
 3627 029a 1946     		mov	r1, r3
 3628 029c 0A48     		ldr	r0, .L186+20
 3629 029e FFF7FEFF 		bl	printf
 607:hardware/src/lcd.c **** 	if(lcddev.id==0X9341)	//9341初始化
 3630              		.loc 1 607 11
 3631 02a2 084B     		ldr	r3, .L186+16
 3632 02a4 9B88     		ldrh	r3, [r3, #4]
 3633              		.loc 1 607 4
 3634 02a6 49F24132 		movw	r2, #37697
 3635 02aa 9342     		cmp	r3, r2
 3636 02ac 40F02481 		bne	.L171
 3637 02b0 0CE0     		b	.L187
 3638              	.L188:
 3639 02b2 00BF     		.align	2
 3640              	.L186:
 3641 02b4 000C0140 		.word	1073810432
 3642 02b8 00140140 		.word	1073812480
 3643 02bc 00180140 		.word	1073813504
 3644 02c0 00200140 		.word	1073815552
 3645 02c4 00000000 		.word	lcddev
 3646 02c8 00000000 		.word	.LC0
ARM GAS  /tmp/ccRHtd69.s 			page 85


 3647              	.L187:
 608:hardware/src/lcd.c **** 	{	 
 609:hardware/src/lcd.c **** 		LCD_WR_REG(0xCF);  
 3648              		.loc 1 609 3
 3649 02cc CF20     		movs	r0, #207
 3650 02ce FFF7FEFF 		bl	LCD_WR_REG
 610:hardware/src/lcd.c **** 		LCD_WR_DATA(0x00); 
 3651              		.loc 1 610 3
 3652 02d2 0020     		movs	r0, #0
 3653 02d4 FFF7FEFF 		bl	LCD_WR_DATA
 611:hardware/src/lcd.c **** 		LCD_WR_DATA(0xC1); 
 3654              		.loc 1 611 3
 3655 02d8 C120     		movs	r0, #193
 3656 02da FFF7FEFF 		bl	LCD_WR_DATA
 612:hardware/src/lcd.c **** 		LCD_WR_DATA(0X30); 
 3657              		.loc 1 612 3
 3658 02de 3020     		movs	r0, #48
 3659 02e0 FFF7FEFF 		bl	LCD_WR_DATA
 613:hardware/src/lcd.c **** 		LCD_WR_REG(0xED);  
 3660              		.loc 1 613 3
 3661 02e4 ED20     		movs	r0, #237
 3662 02e6 FFF7FEFF 		bl	LCD_WR_REG
 614:hardware/src/lcd.c **** 		LCD_WR_DATA(0x64); 
 3663              		.loc 1 614 3
 3664 02ea 6420     		movs	r0, #100
 3665 02ec FFF7FEFF 		bl	LCD_WR_DATA
 615:hardware/src/lcd.c **** 		LCD_WR_DATA(0x03); 
 3666              		.loc 1 615 3
 3667 02f0 0320     		movs	r0, #3
 3668 02f2 FFF7FEFF 		bl	LCD_WR_DATA
 616:hardware/src/lcd.c **** 		LCD_WR_DATA(0X12); 
 3669              		.loc 1 616 3
 3670 02f6 1220     		movs	r0, #18
 3671 02f8 FFF7FEFF 		bl	LCD_WR_DATA
 617:hardware/src/lcd.c **** 		LCD_WR_DATA(0X81); 
 3672              		.loc 1 617 3
 3673 02fc 8120     		movs	r0, #129
 3674 02fe FFF7FEFF 		bl	LCD_WR_DATA
 618:hardware/src/lcd.c **** 		LCD_WR_REG(0xE8);  
 3675              		.loc 1 618 3
 3676 0302 E820     		movs	r0, #232
 3677 0304 FFF7FEFF 		bl	LCD_WR_REG
 619:hardware/src/lcd.c **** 		LCD_WR_DATA(0x85); 
 3678              		.loc 1 619 3
 3679 0308 8520     		movs	r0, #133
 3680 030a FFF7FEFF 		bl	LCD_WR_DATA
 620:hardware/src/lcd.c **** 		LCD_WR_DATA(0x10); 
 3681              		.loc 1 620 3
 3682 030e 1020     		movs	r0, #16
 3683 0310 FFF7FEFF 		bl	LCD_WR_DATA
 621:hardware/src/lcd.c **** 		LCD_WR_DATA(0x7A); 
 3684              		.loc 1 621 3
 3685 0314 7A20     		movs	r0, #122
 3686 0316 FFF7FEFF 		bl	LCD_WR_DATA
 622:hardware/src/lcd.c **** 		LCD_WR_REG(0xCB);  
 3687              		.loc 1 622 3
 3688 031a CB20     		movs	r0, #203
ARM GAS  /tmp/ccRHtd69.s 			page 86


 3689 031c FFF7FEFF 		bl	LCD_WR_REG
 623:hardware/src/lcd.c **** 		LCD_WR_DATA(0x39); 
 3690              		.loc 1 623 3
 3691 0320 3920     		movs	r0, #57
 3692 0322 FFF7FEFF 		bl	LCD_WR_DATA
 624:hardware/src/lcd.c **** 		LCD_WR_DATA(0x2C); 
 3693              		.loc 1 624 3
 3694 0326 2C20     		movs	r0, #44
 3695 0328 FFF7FEFF 		bl	LCD_WR_DATA
 625:hardware/src/lcd.c **** 		LCD_WR_DATA(0x00); 
 3696              		.loc 1 625 3
 3697 032c 0020     		movs	r0, #0
 3698 032e FFF7FEFF 		bl	LCD_WR_DATA
 626:hardware/src/lcd.c **** 		LCD_WR_DATA(0x34); 
 3699              		.loc 1 626 3
 3700 0332 3420     		movs	r0, #52
 3701 0334 FFF7FEFF 		bl	LCD_WR_DATA
 627:hardware/src/lcd.c **** 		LCD_WR_DATA(0x02); 
 3702              		.loc 1 627 3
 3703 0338 0220     		movs	r0, #2
 3704 033a FFF7FEFF 		bl	LCD_WR_DATA
 628:hardware/src/lcd.c **** 		LCD_WR_REG(0xF7);  
 3705              		.loc 1 628 3
 3706 033e F720     		movs	r0, #247
 3707 0340 FFF7FEFF 		bl	LCD_WR_REG
 629:hardware/src/lcd.c **** 		LCD_WR_DATA(0x20); 
 3708              		.loc 1 629 3
 3709 0344 2020     		movs	r0, #32
 3710 0346 FFF7FEFF 		bl	LCD_WR_DATA
 630:hardware/src/lcd.c **** 		LCD_WR_REG(0xEA);  
 3711              		.loc 1 630 3
 3712 034a EA20     		movs	r0, #234
 3713 034c FFF7FEFF 		bl	LCD_WR_REG
 631:hardware/src/lcd.c **** 		LCD_WR_DATA(0x00); 
 3714              		.loc 1 631 3
 3715 0350 0020     		movs	r0, #0
 3716 0352 FFF7FEFF 		bl	LCD_WR_DATA
 632:hardware/src/lcd.c **** 		LCD_WR_DATA(0x00); 
 3717              		.loc 1 632 3
 3718 0356 0020     		movs	r0, #0
 3719 0358 FFF7FEFF 		bl	LCD_WR_DATA
 633:hardware/src/lcd.c **** 		LCD_WR_REG(0xC0);    //Power control 
 3720              		.loc 1 633 3
 3721 035c C020     		movs	r0, #192
 3722 035e FFF7FEFF 		bl	LCD_WR_REG
 634:hardware/src/lcd.c **** 		LCD_WR_DATA(0x1B);   //VRH[5:0] 
 3723              		.loc 1 634 3
 3724 0362 1B20     		movs	r0, #27
 3725 0364 FFF7FEFF 		bl	LCD_WR_DATA
 635:hardware/src/lcd.c **** 		LCD_WR_REG(0xC1);    //Power control 
 3726              		.loc 1 635 3
 3727 0368 C120     		movs	r0, #193
 3728 036a FFF7FEFF 		bl	LCD_WR_REG
 636:hardware/src/lcd.c **** 		LCD_WR_DATA(0x01);   //SAP[2:0];BT[3:0] 
 3729              		.loc 1 636 3
 3730 036e 0120     		movs	r0, #1
 3731 0370 FFF7FEFF 		bl	LCD_WR_DATA
ARM GAS  /tmp/ccRHtd69.s 			page 87


 637:hardware/src/lcd.c **** 		LCD_WR_REG(0xC5);    //VCM control 
 3732              		.loc 1 637 3
 3733 0374 C520     		movs	r0, #197
 3734 0376 FFF7FEFF 		bl	LCD_WR_REG
 638:hardware/src/lcd.c **** 		LCD_WR_DATA(0x30); 	 //3F
 3735              		.loc 1 638 3
 3736 037a 3020     		movs	r0, #48
 3737 037c FFF7FEFF 		bl	LCD_WR_DATA
 639:hardware/src/lcd.c **** 		LCD_WR_DATA(0x30); 	 //3C
 3738              		.loc 1 639 3
 3739 0380 3020     		movs	r0, #48
 3740 0382 FFF7FEFF 		bl	LCD_WR_DATA
 640:hardware/src/lcd.c **** 		LCD_WR_REG(0xC7);    //VCM control2 
 3741              		.loc 1 640 3
 3742 0386 C720     		movs	r0, #199
 3743 0388 FFF7FEFF 		bl	LCD_WR_REG
 641:hardware/src/lcd.c **** 		LCD_WR_DATA(0XB7); 
 3744              		.loc 1 641 3
 3745 038c B720     		movs	r0, #183
 3746 038e FFF7FEFF 		bl	LCD_WR_DATA
 642:hardware/src/lcd.c **** 		LCD_WR_REG(0x36);    // Memory Access Control 
 3747              		.loc 1 642 3
 3748 0392 3620     		movs	r0, #54
 3749 0394 FFF7FEFF 		bl	LCD_WR_REG
 643:hardware/src/lcd.c **** 		LCD_WR_DATA(0x48); 
 3750              		.loc 1 643 3
 3751 0398 4820     		movs	r0, #72
 3752 039a FFF7FEFF 		bl	LCD_WR_DATA
 644:hardware/src/lcd.c **** 		LCD_WR_REG(0x3A);   
 3753              		.loc 1 644 3
 3754 039e 3A20     		movs	r0, #58
 3755 03a0 FFF7FEFF 		bl	LCD_WR_REG
 645:hardware/src/lcd.c **** 		LCD_WR_DATA(0x55); 
 3756              		.loc 1 645 3
 3757 03a4 5520     		movs	r0, #85
 3758 03a6 FFF7FEFF 		bl	LCD_WR_DATA
 646:hardware/src/lcd.c **** 		LCD_WR_REG(0xB1);   
 3759              		.loc 1 646 3
 3760 03aa B120     		movs	r0, #177
 3761 03ac FFF7FEFF 		bl	LCD_WR_REG
 647:hardware/src/lcd.c **** 		LCD_WR_DATA(0x00);   
 3762              		.loc 1 647 3
 3763 03b0 0020     		movs	r0, #0
 3764 03b2 FFF7FEFF 		bl	LCD_WR_DATA
 648:hardware/src/lcd.c **** 		LCD_WR_DATA(0x1A); 
 3765              		.loc 1 648 3
 3766 03b6 1A20     		movs	r0, #26
 3767 03b8 FFF7FEFF 		bl	LCD_WR_DATA
 649:hardware/src/lcd.c **** 		LCD_WR_REG(0xB6);    // Display Function Control 
 3768              		.loc 1 649 3
 3769 03bc B620     		movs	r0, #182
 3770 03be FFF7FEFF 		bl	LCD_WR_REG
 650:hardware/src/lcd.c **** 		LCD_WR_DATA(0x0A); 
 3771              		.loc 1 650 3
 3772 03c2 0A20     		movs	r0, #10
 3773 03c4 FFF7FEFF 		bl	LCD_WR_DATA
 651:hardware/src/lcd.c **** 		LCD_WR_DATA(0xA2); 
ARM GAS  /tmp/ccRHtd69.s 			page 88


 3774              		.loc 1 651 3
 3775 03c8 A220     		movs	r0, #162
 3776 03ca FFF7FEFF 		bl	LCD_WR_DATA
 652:hardware/src/lcd.c **** 		LCD_WR_REG(0xF2);    // 3Gamma Function Disable 
 3777              		.loc 1 652 3
 3778 03ce F220     		movs	r0, #242
 3779 03d0 FFF7FEFF 		bl	LCD_WR_REG
 653:hardware/src/lcd.c **** 		LCD_WR_DATA(0x00); 
 3780              		.loc 1 653 3
 3781 03d4 0020     		movs	r0, #0
 3782 03d6 FFF7FEFF 		bl	LCD_WR_DATA
 654:hardware/src/lcd.c **** 		LCD_WR_REG(0x26);    //Gamma curve selected 
 3783              		.loc 1 654 3
 3784 03da 2620     		movs	r0, #38
 3785 03dc FFF7FEFF 		bl	LCD_WR_REG
 655:hardware/src/lcd.c **** 		LCD_WR_DATA(0x01); 
 3786              		.loc 1 655 3
 3787 03e0 0120     		movs	r0, #1
 3788 03e2 FFF7FEFF 		bl	LCD_WR_DATA
 656:hardware/src/lcd.c **** 		LCD_WR_REG(0xE0);    //Set Gamma 
 3789              		.loc 1 656 3
 3790 03e6 E020     		movs	r0, #224
 3791 03e8 FFF7FEFF 		bl	LCD_WR_REG
 657:hardware/src/lcd.c **** 		LCD_WR_DATA(0x0F); 
 3792              		.loc 1 657 3
 3793 03ec 0F20     		movs	r0, #15
 3794 03ee FFF7FEFF 		bl	LCD_WR_DATA
 658:hardware/src/lcd.c **** 		LCD_WR_DATA(0x2A); 
 3795              		.loc 1 658 3
 3796 03f2 2A20     		movs	r0, #42
 3797 03f4 FFF7FEFF 		bl	LCD_WR_DATA
 659:hardware/src/lcd.c **** 		LCD_WR_DATA(0x28); 
 3798              		.loc 1 659 3
 3799 03f8 2820     		movs	r0, #40
 3800 03fa FFF7FEFF 		bl	LCD_WR_DATA
 660:hardware/src/lcd.c **** 		LCD_WR_DATA(0x08); 
 3801              		.loc 1 660 3
 3802 03fe 0820     		movs	r0, #8
 3803 0400 FFF7FEFF 		bl	LCD_WR_DATA
 661:hardware/src/lcd.c **** 		LCD_WR_DATA(0x0E); 
 3804              		.loc 1 661 3
 3805 0404 0E20     		movs	r0, #14
 3806 0406 FFF7FEFF 		bl	LCD_WR_DATA
 662:hardware/src/lcd.c **** 		LCD_WR_DATA(0x08); 
 3807              		.loc 1 662 3
 3808 040a 0820     		movs	r0, #8
 3809 040c FFF7FEFF 		bl	LCD_WR_DATA
 663:hardware/src/lcd.c **** 		LCD_WR_DATA(0x54); 
 3810              		.loc 1 663 3
 3811 0410 5420     		movs	r0, #84
 3812 0412 FFF7FEFF 		bl	LCD_WR_DATA
 664:hardware/src/lcd.c **** 		LCD_WR_DATA(0XA9); 
 3813              		.loc 1 664 3
 3814 0416 A920     		movs	r0, #169
 3815 0418 FFF7FEFF 		bl	LCD_WR_DATA
 665:hardware/src/lcd.c **** 		LCD_WR_DATA(0x43); 
 3816              		.loc 1 665 3
ARM GAS  /tmp/ccRHtd69.s 			page 89


 3817 041c 4320     		movs	r0, #67
 3818 041e FFF7FEFF 		bl	LCD_WR_DATA
 666:hardware/src/lcd.c **** 		LCD_WR_DATA(0x0A); 
 3819              		.loc 1 666 3
 3820 0422 0A20     		movs	r0, #10
 3821 0424 FFF7FEFF 		bl	LCD_WR_DATA
 667:hardware/src/lcd.c **** 		LCD_WR_DATA(0x0F); 
 3822              		.loc 1 667 3
 3823 0428 0F20     		movs	r0, #15
 3824 042a FFF7FEFF 		bl	LCD_WR_DATA
 668:hardware/src/lcd.c **** 		LCD_WR_DATA(0x00); 
 3825              		.loc 1 668 3
 3826 042e 0020     		movs	r0, #0
 3827 0430 FFF7FEFF 		bl	LCD_WR_DATA
 669:hardware/src/lcd.c **** 		LCD_WR_DATA(0x00); 
 3828              		.loc 1 669 3
 3829 0434 0020     		movs	r0, #0
 3830 0436 FFF7FEFF 		bl	LCD_WR_DATA
 670:hardware/src/lcd.c **** 		LCD_WR_DATA(0x00); 
 3831              		.loc 1 670 3
 3832 043a 0020     		movs	r0, #0
 3833 043c FFF7FEFF 		bl	LCD_WR_DATA
 671:hardware/src/lcd.c **** 		LCD_WR_DATA(0x00); 		 
 3834              		.loc 1 671 3
 3835 0440 0020     		movs	r0, #0
 3836 0442 FFF7FEFF 		bl	LCD_WR_DATA
 672:hardware/src/lcd.c **** 		LCD_WR_REG(0XE1);    //Set Gamma 
 3837              		.loc 1 672 3
 3838 0446 E120     		movs	r0, #225
 3839 0448 FFF7FEFF 		bl	LCD_WR_REG
 673:hardware/src/lcd.c **** 		LCD_WR_DATA(0x00); 
 3840              		.loc 1 673 3
 3841 044c 0020     		movs	r0, #0
 3842 044e FFF7FEFF 		bl	LCD_WR_DATA
 674:hardware/src/lcd.c **** 		LCD_WR_DATA(0x15); 
 3843              		.loc 1 674 3
 3844 0452 1520     		movs	r0, #21
 3845 0454 FFF7FEFF 		bl	LCD_WR_DATA
 675:hardware/src/lcd.c **** 		LCD_WR_DATA(0x17); 
 3846              		.loc 1 675 3
 3847 0458 1720     		movs	r0, #23
 3848 045a FFF7FEFF 		bl	LCD_WR_DATA
 676:hardware/src/lcd.c **** 		LCD_WR_DATA(0x07); 
 3849              		.loc 1 676 3
 3850 045e 0720     		movs	r0, #7
 3851 0460 FFF7FEFF 		bl	LCD_WR_DATA
 677:hardware/src/lcd.c **** 		LCD_WR_DATA(0x11); 
 3852              		.loc 1 677 3
 3853 0464 1120     		movs	r0, #17
 3854 0466 FFF7FEFF 		bl	LCD_WR_DATA
 678:hardware/src/lcd.c **** 		LCD_WR_DATA(0x06); 
 3855              		.loc 1 678 3
 3856 046a 0620     		movs	r0, #6
 3857 046c FFF7FEFF 		bl	LCD_WR_DATA
 679:hardware/src/lcd.c **** 		LCD_WR_DATA(0x2B); 
 3858              		.loc 1 679 3
 3859 0470 2B20     		movs	r0, #43
ARM GAS  /tmp/ccRHtd69.s 			page 90


 3860 0472 FFF7FEFF 		bl	LCD_WR_DATA
 680:hardware/src/lcd.c **** 		LCD_WR_DATA(0x56); 
 3861              		.loc 1 680 3
 3862 0476 5620     		movs	r0, #86
 3863 0478 FFF7FEFF 		bl	LCD_WR_DATA
 681:hardware/src/lcd.c **** 		LCD_WR_DATA(0x3C); 
 3864              		.loc 1 681 3
 3865 047c 3C20     		movs	r0, #60
 3866 047e FFF7FEFF 		bl	LCD_WR_DATA
 682:hardware/src/lcd.c **** 		LCD_WR_DATA(0x05); 
 3867              		.loc 1 682 3
 3868 0482 0520     		movs	r0, #5
 3869 0484 FFF7FEFF 		bl	LCD_WR_DATA
 683:hardware/src/lcd.c **** 		LCD_WR_DATA(0x10); 
 3870              		.loc 1 683 3
 3871 0488 1020     		movs	r0, #16
 3872 048a FFF7FEFF 		bl	LCD_WR_DATA
 684:hardware/src/lcd.c **** 		LCD_WR_DATA(0x0F); 
 3873              		.loc 1 684 3
 3874 048e 0F20     		movs	r0, #15
 3875 0490 FFF7FEFF 		bl	LCD_WR_DATA
 685:hardware/src/lcd.c **** 		LCD_WR_DATA(0x3F); 
 3876              		.loc 1 685 3
 3877 0494 3F20     		movs	r0, #63
 3878 0496 FFF7FEFF 		bl	LCD_WR_DATA
 686:hardware/src/lcd.c **** 		LCD_WR_DATA(0x3F); 
 3879              		.loc 1 686 3
 3880 049a 3F20     		movs	r0, #63
 3881 049c FFF7FEFF 		bl	LCD_WR_DATA
 687:hardware/src/lcd.c **** 		LCD_WR_DATA(0x0F); 
 3882              		.loc 1 687 3
 3883 04a0 0F20     		movs	r0, #15
 3884 04a2 FFF7FEFF 		bl	LCD_WR_DATA
 688:hardware/src/lcd.c **** 		LCD_WR_REG(0x2B); 
 3885              		.loc 1 688 3
 3886 04a6 2B20     		movs	r0, #43
 3887 04a8 FFF7FEFF 		bl	LCD_WR_REG
 689:hardware/src/lcd.c **** 		LCD_WR_DATA(0x00);
 3888              		.loc 1 689 3
 3889 04ac 0020     		movs	r0, #0
 3890 04ae FFF7FEFF 		bl	LCD_WR_DATA
 690:hardware/src/lcd.c **** 		LCD_WR_DATA(0x00);
 3891              		.loc 1 690 3
 3892 04b2 0020     		movs	r0, #0
 3893 04b4 FFF7FEFF 		bl	LCD_WR_DATA
 691:hardware/src/lcd.c **** 		LCD_WR_DATA(0x01);
 3894              		.loc 1 691 3
 3895 04b8 0120     		movs	r0, #1
 3896 04ba FFF7FEFF 		bl	LCD_WR_DATA
 692:hardware/src/lcd.c **** 		LCD_WR_DATA(0x3f);
 3897              		.loc 1 692 3
 3898 04be 3F20     		movs	r0, #63
 3899 04c0 FFF7FEFF 		bl	LCD_WR_DATA
 693:hardware/src/lcd.c **** 		LCD_WR_REG(0x2A); 
 3900              		.loc 1 693 3
 3901 04c4 2A20     		movs	r0, #42
 3902 04c6 FFF7FEFF 		bl	LCD_WR_REG
ARM GAS  /tmp/ccRHtd69.s 			page 91


 694:hardware/src/lcd.c **** 		LCD_WR_DATA(0x00);
 3903              		.loc 1 694 3
 3904 04ca 0020     		movs	r0, #0
 3905 04cc FFF7FEFF 		bl	LCD_WR_DATA
 695:hardware/src/lcd.c **** 		LCD_WR_DATA(0x00);
 3906              		.loc 1 695 3
 3907 04d0 0020     		movs	r0, #0
 3908 04d2 FFF7FEFF 		bl	LCD_WR_DATA
 696:hardware/src/lcd.c **** 		LCD_WR_DATA(0x00);
 3909              		.loc 1 696 3
 3910 04d6 0020     		movs	r0, #0
 3911 04d8 FFF7FEFF 		bl	LCD_WR_DATA
 697:hardware/src/lcd.c **** 		LCD_WR_DATA(0xef);	 
 3912              		.loc 1 697 3
 3913 04dc EF20     		movs	r0, #239
 3914 04de FFF7FEFF 		bl	LCD_WR_DATA
 698:hardware/src/lcd.c **** 		LCD_WR_REG(0x11); //Exit Sleep
 3915              		.loc 1 698 3
 3916 04e2 1120     		movs	r0, #17
 3917 04e4 FFF7FEFF 		bl	LCD_WR_REG
 699:hardware/src/lcd.c **** 		delay_ms(120);
 3918              		.loc 1 699 3
 3919 04e8 7820     		movs	r0, #120
 3920 04ea FFF7FEFF 		bl	delay_ms
 700:hardware/src/lcd.c **** 		LCD_WR_REG(0x29); //display on	
 3921              		.loc 1 700 3
 3922 04ee 2920     		movs	r0, #41
 3923 04f0 FFF7FEFF 		bl	LCD_WR_REG
 3924 04f4 03F022B9 		b	.L172
 3925              	.L171:
 701:hardware/src/lcd.c **** 	}else if(lcddev.id==0x6804) //6804初始化
 3926              		.loc 1 701 17
 3927 04f8 584B     		ldr	r3, .L189
 3928 04fa 9B88     		ldrh	r3, [r3, #4]
 3929              		.loc 1 701 10
 3930 04fc 46F60402 		movw	r2, #26628
 3931 0500 9342     		cmp	r3, r2
 3932 0502 40F0AD80 		bne	.L173
 702:hardware/src/lcd.c **** 	{
 703:hardware/src/lcd.c **** 		LCD_WR_REG(0X11);
 3933              		.loc 1 703 3
 3934 0506 1120     		movs	r0, #17
 3935 0508 FFF7FEFF 		bl	LCD_WR_REG
 704:hardware/src/lcd.c **** 		delay_ms(20);
 3936              		.loc 1 704 3
 3937 050c 1420     		movs	r0, #20
 3938 050e FFF7FEFF 		bl	delay_ms
 705:hardware/src/lcd.c **** 		LCD_WR_REG(0XD0);//VCI1  VCL  VGH  VGL DDVDH VREG1OUT power amplitude setting
 3939              		.loc 1 705 3
 3940 0512 D020     		movs	r0, #208
 3941 0514 FFF7FEFF 		bl	LCD_WR_REG
 706:hardware/src/lcd.c **** 		LCD_WR_DATA(0X07); 
 3942              		.loc 1 706 3
 3943 0518 0720     		movs	r0, #7
 3944 051a FFF7FEFF 		bl	LCD_WR_DATA
 707:hardware/src/lcd.c **** 		LCD_WR_DATA(0X42); 
 3945              		.loc 1 707 3
ARM GAS  /tmp/ccRHtd69.s 			page 92


 3946 051e 4220     		movs	r0, #66
 3947 0520 FFF7FEFF 		bl	LCD_WR_DATA
 708:hardware/src/lcd.c **** 		LCD_WR_DATA(0X1D); 
 3948              		.loc 1 708 3
 3949 0524 1D20     		movs	r0, #29
 3950 0526 FFF7FEFF 		bl	LCD_WR_DATA
 709:hardware/src/lcd.c **** 		LCD_WR_REG(0XD1);//VCOMH VCOM_AC amplitude setting
 3951              		.loc 1 709 3
 3952 052a D120     		movs	r0, #209
 3953 052c FFF7FEFF 		bl	LCD_WR_REG
 710:hardware/src/lcd.c **** 		LCD_WR_DATA(0X00);
 3954              		.loc 1 710 3
 3955 0530 0020     		movs	r0, #0
 3956 0532 FFF7FEFF 		bl	LCD_WR_DATA
 711:hardware/src/lcd.c **** 		LCD_WR_DATA(0X1a);
 3957              		.loc 1 711 3
 3958 0536 1A20     		movs	r0, #26
 3959 0538 FFF7FEFF 		bl	LCD_WR_DATA
 712:hardware/src/lcd.c **** 		LCD_WR_DATA(0X09); 
 3960              		.loc 1 712 3
 3961 053c 0920     		movs	r0, #9
 3962 053e FFF7FEFF 		bl	LCD_WR_DATA
 713:hardware/src/lcd.c **** 		LCD_WR_REG(0XD2);//Operational Amplifier Circuit Constant Current Adjust , charge pump frequency 
 3963              		.loc 1 713 3
 3964 0542 D220     		movs	r0, #210
 3965 0544 FFF7FEFF 		bl	LCD_WR_REG
 714:hardware/src/lcd.c **** 		LCD_WR_DATA(0X01);
 3966              		.loc 1 714 3
 3967 0548 0120     		movs	r0, #1
 3968 054a FFF7FEFF 		bl	LCD_WR_DATA
 715:hardware/src/lcd.c **** 		LCD_WR_DATA(0X22);
 3969              		.loc 1 715 3
 3970 054e 2220     		movs	r0, #34
 3971 0550 FFF7FEFF 		bl	LCD_WR_DATA
 716:hardware/src/lcd.c **** 		LCD_WR_REG(0XC0);//REV SM GS 
 3972              		.loc 1 716 3
 3973 0554 C020     		movs	r0, #192
 3974 0556 FFF7FEFF 		bl	LCD_WR_REG
 717:hardware/src/lcd.c **** 		LCD_WR_DATA(0X10);
 3975              		.loc 1 717 3
 3976 055a 1020     		movs	r0, #16
 3977 055c FFF7FEFF 		bl	LCD_WR_DATA
 718:hardware/src/lcd.c **** 		LCD_WR_DATA(0X3B);
 3978              		.loc 1 718 3
 3979 0560 3B20     		movs	r0, #59
 3980 0562 FFF7FEFF 		bl	LCD_WR_DATA
 719:hardware/src/lcd.c **** 		LCD_WR_DATA(0X00);
 3981              		.loc 1 719 3
 3982 0566 0020     		movs	r0, #0
 3983 0568 FFF7FEFF 		bl	LCD_WR_DATA
 720:hardware/src/lcd.c **** 		LCD_WR_DATA(0X02);
 3984              		.loc 1 720 3
 3985 056c 0220     		movs	r0, #2
 3986 056e FFF7FEFF 		bl	LCD_WR_DATA
 721:hardware/src/lcd.c **** 		LCD_WR_DATA(0X11);
 3987              		.loc 1 721 3
 3988 0572 1120     		movs	r0, #17
ARM GAS  /tmp/ccRHtd69.s 			page 93


 3989 0574 FFF7FEFF 		bl	LCD_WR_DATA
 722:hardware/src/lcd.c **** 		
 723:hardware/src/lcd.c **** 		LCD_WR_REG(0XC5);// Frame rate setting = 72HZ  when setting 0x03
 3990              		.loc 1 723 3
 3991 0578 C520     		movs	r0, #197
 3992 057a FFF7FEFF 		bl	LCD_WR_REG
 724:hardware/src/lcd.c **** 		LCD_WR_DATA(0X03);
 3993              		.loc 1 724 3
 3994 057e 0320     		movs	r0, #3
 3995 0580 FFF7FEFF 		bl	LCD_WR_DATA
 725:hardware/src/lcd.c **** 		
 726:hardware/src/lcd.c **** 		LCD_WR_REG(0XC8);//Gamma setting
 3996              		.loc 1 726 3
 3997 0584 C820     		movs	r0, #200
 3998 0586 FFF7FEFF 		bl	LCD_WR_REG
 727:hardware/src/lcd.c **** 		LCD_WR_DATA(0X00);
 3999              		.loc 1 727 3
 4000 058a 0020     		movs	r0, #0
 4001 058c FFF7FEFF 		bl	LCD_WR_DATA
 728:hardware/src/lcd.c **** 		LCD_WR_DATA(0X25);
 4002              		.loc 1 728 3
 4003 0590 2520     		movs	r0, #37
 4004 0592 FFF7FEFF 		bl	LCD_WR_DATA
 729:hardware/src/lcd.c **** 		LCD_WR_DATA(0X21);
 4005              		.loc 1 729 3
 4006 0596 2120     		movs	r0, #33
 4007 0598 FFF7FEFF 		bl	LCD_WR_DATA
 730:hardware/src/lcd.c **** 		LCD_WR_DATA(0X05);
 4008              		.loc 1 730 3
 4009 059c 0520     		movs	r0, #5
 4010 059e FFF7FEFF 		bl	LCD_WR_DATA
 731:hardware/src/lcd.c **** 		LCD_WR_DATA(0X00);
 4011              		.loc 1 731 3
 4012 05a2 0020     		movs	r0, #0
 4013 05a4 FFF7FEFF 		bl	LCD_WR_DATA
 732:hardware/src/lcd.c **** 		LCD_WR_DATA(0X0a);
 4014              		.loc 1 732 3
 4015 05a8 0A20     		movs	r0, #10
 4016 05aa FFF7FEFF 		bl	LCD_WR_DATA
 733:hardware/src/lcd.c **** 		LCD_WR_DATA(0X65);
 4017              		.loc 1 733 3
 4018 05ae 6520     		movs	r0, #101
 4019 05b0 FFF7FEFF 		bl	LCD_WR_DATA
 734:hardware/src/lcd.c **** 		LCD_WR_DATA(0X25);
 4020              		.loc 1 734 3
 4021 05b4 2520     		movs	r0, #37
 4022 05b6 FFF7FEFF 		bl	LCD_WR_DATA
 735:hardware/src/lcd.c **** 		LCD_WR_DATA(0X77);
 4023              		.loc 1 735 3
 4024 05ba 7720     		movs	r0, #119
 4025 05bc FFF7FEFF 		bl	LCD_WR_DATA
 736:hardware/src/lcd.c **** 		LCD_WR_DATA(0X50);
 4026              		.loc 1 736 3
 4027 05c0 5020     		movs	r0, #80
 4028 05c2 FFF7FEFF 		bl	LCD_WR_DATA
 737:hardware/src/lcd.c **** 		LCD_WR_DATA(0X0f);
 4029              		.loc 1 737 3
ARM GAS  /tmp/ccRHtd69.s 			page 94


 4030 05c6 0F20     		movs	r0, #15
 4031 05c8 FFF7FEFF 		bl	LCD_WR_DATA
 738:hardware/src/lcd.c **** 		LCD_WR_DATA(0X00);	  
 4032              		.loc 1 738 3
 4033 05cc 0020     		movs	r0, #0
 4034 05ce FFF7FEFF 		bl	LCD_WR_DATA
 739:hardware/src/lcd.c **** 						  
 740:hardware/src/lcd.c ****    		LCD_WR_REG(0XF8);
 4035              		.loc 1 740 6
 4036 05d2 F820     		movs	r0, #248
 4037 05d4 FFF7FEFF 		bl	LCD_WR_REG
 741:hardware/src/lcd.c **** 		LCD_WR_DATA(0X01);	  
 4038              		.loc 1 741 3
 4039 05d8 0120     		movs	r0, #1
 4040 05da FFF7FEFF 		bl	LCD_WR_DATA
 742:hardware/src/lcd.c **** 
 743:hardware/src/lcd.c ****  		LCD_WR_REG(0XFE);
 4041              		.loc 1 743 4
 4042 05de FE20     		movs	r0, #254
 4043 05e0 FFF7FEFF 		bl	LCD_WR_REG
 744:hardware/src/lcd.c ****  		LCD_WR_DATA(0X00);
 4044              		.loc 1 744 4
 4045 05e4 0020     		movs	r0, #0
 4046 05e6 FFF7FEFF 		bl	LCD_WR_DATA
 745:hardware/src/lcd.c ****  		LCD_WR_DATA(0X02);
 4047              		.loc 1 745 4
 4048 05ea 0220     		movs	r0, #2
 4049 05ec FFF7FEFF 		bl	LCD_WR_DATA
 746:hardware/src/lcd.c **** 		
 747:hardware/src/lcd.c **** 		LCD_WR_REG(0X20);//Exit invert mode
 4050              		.loc 1 747 3
 4051 05f0 2020     		movs	r0, #32
 4052 05f2 FFF7FEFF 		bl	LCD_WR_REG
 748:hardware/src/lcd.c **** 
 749:hardware/src/lcd.c **** 		LCD_WR_REG(0X36);
 4053              		.loc 1 749 3
 4054 05f6 3620     		movs	r0, #54
 4055 05f8 FFF7FEFF 		bl	LCD_WR_REG
 750:hardware/src/lcd.c **** 		LCD_WR_DATA(0X08);//原来是a
 4056              		.loc 1 750 3
 4057 05fc 0820     		movs	r0, #8
 4058 05fe FFF7FEFF 		bl	LCD_WR_DATA
 751:hardware/src/lcd.c **** 		
 752:hardware/src/lcd.c **** 		LCD_WR_REG(0X3A);
 4059              		.loc 1 752 3
 4060 0602 3A20     		movs	r0, #58
 4061 0604 FFF7FEFF 		bl	LCD_WR_REG
 753:hardware/src/lcd.c **** 		LCD_WR_DATA(0X55);//16位模式	  
 4062              		.loc 1 753 3
 4063 0608 5520     		movs	r0, #85
 4064 060a FFF7FEFF 		bl	LCD_WR_DATA
 754:hardware/src/lcd.c **** 		LCD_WR_REG(0X2B);
 4065              		.loc 1 754 3
 4066 060e 2B20     		movs	r0, #43
 4067 0610 FFF7FEFF 		bl	LCD_WR_REG
 755:hardware/src/lcd.c **** 		LCD_WR_DATA(0X00);
 4068              		.loc 1 755 3
ARM GAS  /tmp/ccRHtd69.s 			page 95


 4069 0614 0020     		movs	r0, #0
 4070 0616 FFF7FEFF 		bl	LCD_WR_DATA
 756:hardware/src/lcd.c **** 		LCD_WR_DATA(0X00);
 4071              		.loc 1 756 3
 4072 061a 0020     		movs	r0, #0
 4073 061c FFF7FEFF 		bl	LCD_WR_DATA
 757:hardware/src/lcd.c **** 		LCD_WR_DATA(0X01);
 4074              		.loc 1 757 3
 4075 0620 0120     		movs	r0, #1
 4076 0622 FFF7FEFF 		bl	LCD_WR_DATA
 758:hardware/src/lcd.c **** 		LCD_WR_DATA(0X3F);
 4077              		.loc 1 758 3
 4078 0626 3F20     		movs	r0, #63
 4079 0628 FFF7FEFF 		bl	LCD_WR_DATA
 759:hardware/src/lcd.c **** 		
 760:hardware/src/lcd.c **** 		LCD_WR_REG(0X2A);
 4080              		.loc 1 760 3
 4081 062c 2A20     		movs	r0, #42
 4082 062e FFF7FEFF 		bl	LCD_WR_REG
 761:hardware/src/lcd.c **** 		LCD_WR_DATA(0X00);
 4083              		.loc 1 761 3
 4084 0632 0020     		movs	r0, #0
 4085 0634 FFF7FEFF 		bl	LCD_WR_DATA
 762:hardware/src/lcd.c **** 		LCD_WR_DATA(0X00);
 4086              		.loc 1 762 3
 4087 0638 0020     		movs	r0, #0
 4088 063a FFF7FEFF 		bl	LCD_WR_DATA
 763:hardware/src/lcd.c **** 		LCD_WR_DATA(0X01);
 4089              		.loc 1 763 3
 4090 063e 0120     		movs	r0, #1
 4091 0640 FFF7FEFF 		bl	LCD_WR_DATA
 764:hardware/src/lcd.c **** 		LCD_WR_DATA(0XDF);
 4092              		.loc 1 764 3
 4093 0644 DF20     		movs	r0, #223
 4094 0646 FFF7FEFF 		bl	LCD_WR_DATA
 765:hardware/src/lcd.c **** 		delay_ms(120);
 4095              		.loc 1 765 3
 4096 064a 7820     		movs	r0, #120
 4097 064c FFF7FEFF 		bl	delay_ms
 766:hardware/src/lcd.c **** 		LCD_WR_REG(0X29); 	 
 4098              		.loc 1 766 3
 4099 0650 2920     		movs	r0, #41
 4100 0652 FFF7FEFF 		bl	LCD_WR_REG
 4101 0656 03F071B8 		b	.L172
 4102              	.L190:
 4103 065a 00BF     		.align	2
 4104              	.L189:
 4105 065c 00000000 		.word	lcddev
 4106              	.L173:
 767:hardware/src/lcd.c ****  	}else if(lcddev.id==0x5310)
 4107              		.loc 1 767 18
 4108 0660 034B     		ldr	r3, .L191
 4109 0662 9B88     		ldrh	r3, [r3, #4]
 4110              		.loc 1 767 11
 4111 0664 45F21032 		movw	r2, #21264
 4112 0668 9342     		cmp	r3, r2
 4113 066a 40F07C87 		bne	.L174
ARM GAS  /tmp/ccRHtd69.s 			page 96


 4114 066e 01E0     		b	.L192
 4115              	.L193:
 4116              		.align	2
 4117              	.L191:
 4118 0670 00000000 		.word	lcddev
 4119              	.L192:
 768:hardware/src/lcd.c **** 	{ 
 769:hardware/src/lcd.c **** 		LCD_WR_REG(0xED);
 4120              		.loc 1 769 3
 4121 0674 ED20     		movs	r0, #237
 4122 0676 FFF7FEFF 		bl	LCD_WR_REG
 770:hardware/src/lcd.c **** 		LCD_WR_DATA(0x01);
 4123              		.loc 1 770 3
 4124 067a 0120     		movs	r0, #1
 4125 067c FFF7FEFF 		bl	LCD_WR_DATA
 771:hardware/src/lcd.c **** 		LCD_WR_DATA(0xFE);
 4126              		.loc 1 771 3
 4127 0680 FE20     		movs	r0, #254
 4128 0682 FFF7FEFF 		bl	LCD_WR_DATA
 772:hardware/src/lcd.c **** 
 773:hardware/src/lcd.c **** 		LCD_WR_REG(0xEE);
 4129              		.loc 1 773 3
 4130 0686 EE20     		movs	r0, #238
 4131 0688 FFF7FEFF 		bl	LCD_WR_REG
 774:hardware/src/lcd.c **** 		LCD_WR_DATA(0xDE);
 4132              		.loc 1 774 3
 4133 068c DE20     		movs	r0, #222
 4134 068e FFF7FEFF 		bl	LCD_WR_DATA
 775:hardware/src/lcd.c **** 		LCD_WR_DATA(0x21);
 4135              		.loc 1 775 3
 4136 0692 2120     		movs	r0, #33
 4137 0694 FFF7FEFF 		bl	LCD_WR_DATA
 776:hardware/src/lcd.c **** 
 777:hardware/src/lcd.c **** 		LCD_WR_REG(0xF1);
 4138              		.loc 1 777 3
 4139 0698 F120     		movs	r0, #241
 4140 069a FFF7FEFF 		bl	LCD_WR_REG
 778:hardware/src/lcd.c **** 		LCD_WR_DATA(0x01);
 4141              		.loc 1 778 3
 4142 069e 0120     		movs	r0, #1
 4143 06a0 FFF7FEFF 		bl	LCD_WR_DATA
 779:hardware/src/lcd.c **** 		LCD_WR_REG(0xDF);
 4144              		.loc 1 779 3
 4145 06a4 DF20     		movs	r0, #223
 4146 06a6 FFF7FEFF 		bl	LCD_WR_REG
 780:hardware/src/lcd.c **** 		LCD_WR_DATA(0x10);
 4147              		.loc 1 780 3
 4148 06aa 1020     		movs	r0, #16
 4149 06ac FFF7FEFF 		bl	LCD_WR_DATA
 781:hardware/src/lcd.c **** 
 782:hardware/src/lcd.c **** 		//VCOMvoltage//
 783:hardware/src/lcd.c **** 		LCD_WR_REG(0xC4);
 4150              		.loc 1 783 3
 4151 06b0 C420     		movs	r0, #196
 4152 06b2 FFF7FEFF 		bl	LCD_WR_REG
 784:hardware/src/lcd.c **** 		LCD_WR_DATA(0x8F);	  //5f
 4153              		.loc 1 784 3
ARM GAS  /tmp/ccRHtd69.s 			page 97


 4154 06b6 8F20     		movs	r0, #143
 4155 06b8 FFF7FEFF 		bl	LCD_WR_DATA
 785:hardware/src/lcd.c **** 
 786:hardware/src/lcd.c **** 		LCD_WR_REG(0xC6);
 4156              		.loc 1 786 3
 4157 06bc C620     		movs	r0, #198
 4158 06be FFF7FEFF 		bl	LCD_WR_REG
 787:hardware/src/lcd.c **** 		LCD_WR_DATA(0x00);
 4159              		.loc 1 787 3
 4160 06c2 0020     		movs	r0, #0
 4161 06c4 FFF7FEFF 		bl	LCD_WR_DATA
 788:hardware/src/lcd.c **** 		LCD_WR_DATA(0xE2);
 4162              		.loc 1 788 3
 4163 06c8 E220     		movs	r0, #226
 4164 06ca FFF7FEFF 		bl	LCD_WR_DATA
 789:hardware/src/lcd.c **** 		LCD_WR_DATA(0xE2);
 4165              		.loc 1 789 3
 4166 06ce E220     		movs	r0, #226
 4167 06d0 FFF7FEFF 		bl	LCD_WR_DATA
 790:hardware/src/lcd.c **** 		LCD_WR_DATA(0xE2);
 4168              		.loc 1 790 3
 4169 06d4 E220     		movs	r0, #226
 4170 06d6 FFF7FEFF 		bl	LCD_WR_DATA
 791:hardware/src/lcd.c **** 		LCD_WR_REG(0xBF);
 4171              		.loc 1 791 3
 4172 06da BF20     		movs	r0, #191
 4173 06dc FFF7FEFF 		bl	LCD_WR_REG
 792:hardware/src/lcd.c **** 		LCD_WR_DATA(0xAA);
 4174              		.loc 1 792 3
 4175 06e0 AA20     		movs	r0, #170
 4176 06e2 FFF7FEFF 		bl	LCD_WR_DATA
 793:hardware/src/lcd.c **** 
 794:hardware/src/lcd.c **** 		LCD_WR_REG(0xB0);
 4177              		.loc 1 794 3
 4178 06e6 B020     		movs	r0, #176
 4179 06e8 FFF7FEFF 		bl	LCD_WR_REG
 795:hardware/src/lcd.c **** 		LCD_WR_DATA(0x0D);
 4180              		.loc 1 795 3
 4181 06ec 0D20     		movs	r0, #13
 4182 06ee FFF7FEFF 		bl	LCD_WR_DATA
 796:hardware/src/lcd.c **** 		LCD_WR_DATA(0x00);
 4183              		.loc 1 796 3
 4184 06f2 0020     		movs	r0, #0
 4185 06f4 FFF7FEFF 		bl	LCD_WR_DATA
 797:hardware/src/lcd.c **** 		LCD_WR_DATA(0x0D);
 4186              		.loc 1 797 3
 4187 06f8 0D20     		movs	r0, #13
 4188 06fa FFF7FEFF 		bl	LCD_WR_DATA
 798:hardware/src/lcd.c **** 		LCD_WR_DATA(0x00);
 4189              		.loc 1 798 3
 4190 06fe 0020     		movs	r0, #0
 4191 0700 FFF7FEFF 		bl	LCD_WR_DATA
 799:hardware/src/lcd.c **** 		LCD_WR_DATA(0x11);
 4192              		.loc 1 799 3
 4193 0704 1120     		movs	r0, #17
 4194 0706 FFF7FEFF 		bl	LCD_WR_DATA
 800:hardware/src/lcd.c **** 		LCD_WR_DATA(0x00);
ARM GAS  /tmp/ccRHtd69.s 			page 98


 4195              		.loc 1 800 3
 4196 070a 0020     		movs	r0, #0
 4197 070c FFF7FEFF 		bl	LCD_WR_DATA
 801:hardware/src/lcd.c **** 		LCD_WR_DATA(0x19);
 4198              		.loc 1 801 3
 4199 0710 1920     		movs	r0, #25
 4200 0712 FFF7FEFF 		bl	LCD_WR_DATA
 802:hardware/src/lcd.c **** 		LCD_WR_DATA(0x00);
 4201              		.loc 1 802 3
 4202 0716 0020     		movs	r0, #0
 4203 0718 FFF7FEFF 		bl	LCD_WR_DATA
 803:hardware/src/lcd.c **** 		LCD_WR_DATA(0x21);
 4204              		.loc 1 803 3
 4205 071c 2120     		movs	r0, #33
 4206 071e FFF7FEFF 		bl	LCD_WR_DATA
 804:hardware/src/lcd.c **** 		LCD_WR_DATA(0x00);
 4207              		.loc 1 804 3
 4208 0722 0020     		movs	r0, #0
 4209 0724 FFF7FEFF 		bl	LCD_WR_DATA
 805:hardware/src/lcd.c **** 		LCD_WR_DATA(0x2D);
 4210              		.loc 1 805 3
 4211 0728 2D20     		movs	r0, #45
 4212 072a FFF7FEFF 		bl	LCD_WR_DATA
 806:hardware/src/lcd.c **** 		LCD_WR_DATA(0x00);
 4213              		.loc 1 806 3
 4214 072e 0020     		movs	r0, #0
 4215 0730 FFF7FEFF 		bl	LCD_WR_DATA
 807:hardware/src/lcd.c **** 		LCD_WR_DATA(0x3D);
 4216              		.loc 1 807 3
 4217 0734 3D20     		movs	r0, #61
 4218 0736 FFF7FEFF 		bl	LCD_WR_DATA
 808:hardware/src/lcd.c **** 		LCD_WR_DATA(0x00);
 4219              		.loc 1 808 3
 4220 073a 0020     		movs	r0, #0
 4221 073c FFF7FEFF 		bl	LCD_WR_DATA
 809:hardware/src/lcd.c **** 		LCD_WR_DATA(0x5D);
 4222              		.loc 1 809 3
 4223 0740 5D20     		movs	r0, #93
 4224 0742 FFF7FEFF 		bl	LCD_WR_DATA
 810:hardware/src/lcd.c **** 		LCD_WR_DATA(0x00);
 4225              		.loc 1 810 3
 4226 0746 0020     		movs	r0, #0
 4227 0748 FFF7FEFF 		bl	LCD_WR_DATA
 811:hardware/src/lcd.c **** 		LCD_WR_DATA(0x5D);
 4228              		.loc 1 811 3
 4229 074c 5D20     		movs	r0, #93
 4230 074e FFF7FEFF 		bl	LCD_WR_DATA
 812:hardware/src/lcd.c **** 		LCD_WR_DATA(0x00);
 4231              		.loc 1 812 3
 4232 0752 0020     		movs	r0, #0
 4233 0754 FFF7FEFF 		bl	LCD_WR_DATA
 813:hardware/src/lcd.c **** 
 814:hardware/src/lcd.c **** 		LCD_WR_REG(0xB1);
 4234              		.loc 1 814 3
 4235 0758 B120     		movs	r0, #177
 4236 075a FFF7FEFF 		bl	LCD_WR_REG
 815:hardware/src/lcd.c **** 		LCD_WR_DATA(0x80);
ARM GAS  /tmp/ccRHtd69.s 			page 99


 4237              		.loc 1 815 3
 4238 075e 8020     		movs	r0, #128
 4239 0760 FFF7FEFF 		bl	LCD_WR_DATA
 816:hardware/src/lcd.c **** 		LCD_WR_DATA(0x00);
 4240              		.loc 1 816 3
 4241 0764 0020     		movs	r0, #0
 4242 0766 FFF7FEFF 		bl	LCD_WR_DATA
 817:hardware/src/lcd.c **** 		LCD_WR_DATA(0x8B);
 4243              		.loc 1 817 3
 4244 076a 8B20     		movs	r0, #139
 4245 076c FFF7FEFF 		bl	LCD_WR_DATA
 818:hardware/src/lcd.c **** 		LCD_WR_DATA(0x00);
 4246              		.loc 1 818 3
 4247 0770 0020     		movs	r0, #0
 4248 0772 FFF7FEFF 		bl	LCD_WR_DATA
 819:hardware/src/lcd.c **** 		LCD_WR_DATA(0x96);
 4249              		.loc 1 819 3
 4250 0776 9620     		movs	r0, #150
 4251 0778 FFF7FEFF 		bl	LCD_WR_DATA
 820:hardware/src/lcd.c **** 		LCD_WR_DATA(0x00);
 4252              		.loc 1 820 3
 4253 077c 0020     		movs	r0, #0
 4254 077e FFF7FEFF 		bl	LCD_WR_DATA
 821:hardware/src/lcd.c **** 
 822:hardware/src/lcd.c **** 		LCD_WR_REG(0xB2);
 4255              		.loc 1 822 3
 4256 0782 B220     		movs	r0, #178
 4257 0784 FFF7FEFF 		bl	LCD_WR_REG
 823:hardware/src/lcd.c **** 		LCD_WR_DATA(0x00);
 4258              		.loc 1 823 3
 4259 0788 0020     		movs	r0, #0
 4260 078a FFF7FEFF 		bl	LCD_WR_DATA
 824:hardware/src/lcd.c **** 		LCD_WR_DATA(0x00);
 4261              		.loc 1 824 3
 4262 078e 0020     		movs	r0, #0
 4263 0790 FFF7FEFF 		bl	LCD_WR_DATA
 825:hardware/src/lcd.c **** 		LCD_WR_DATA(0x02);
 4264              		.loc 1 825 3
 4265 0794 0220     		movs	r0, #2
 4266 0796 FFF7FEFF 		bl	LCD_WR_DATA
 826:hardware/src/lcd.c **** 		LCD_WR_DATA(0x00);
 4267              		.loc 1 826 3
 4268 079a 0020     		movs	r0, #0
 4269 079c FFF7FEFF 		bl	LCD_WR_DATA
 827:hardware/src/lcd.c **** 		LCD_WR_DATA(0x03);
 4270              		.loc 1 827 3
 4271 07a0 0320     		movs	r0, #3
 4272 07a2 FFF7FEFF 		bl	LCD_WR_DATA
 828:hardware/src/lcd.c **** 		LCD_WR_DATA(0x00);
 4273              		.loc 1 828 3
 4274 07a6 0020     		movs	r0, #0
 4275 07a8 FFF7FEFF 		bl	LCD_WR_DATA
 829:hardware/src/lcd.c **** 
 830:hardware/src/lcd.c **** 		LCD_WR_REG(0xB3);
 4276              		.loc 1 830 3
 4277 07ac B320     		movs	r0, #179
 4278 07ae FFF7FEFF 		bl	LCD_WR_REG
ARM GAS  /tmp/ccRHtd69.s 			page 100


 831:hardware/src/lcd.c **** 		LCD_WR_DATA(0x00);
 4279              		.loc 1 831 3
 4280 07b2 0020     		movs	r0, #0
 4281 07b4 FFF7FEFF 		bl	LCD_WR_DATA
 832:hardware/src/lcd.c **** 		LCD_WR_DATA(0x00);
 4282              		.loc 1 832 3
 4283 07b8 0020     		movs	r0, #0
 4284 07ba FFF7FEFF 		bl	LCD_WR_DATA
 833:hardware/src/lcd.c **** 		LCD_WR_DATA(0x00);
 4285              		.loc 1 833 3
 4286 07be 0020     		movs	r0, #0
 4287 07c0 FFF7FEFF 		bl	LCD_WR_DATA
 834:hardware/src/lcd.c **** 		LCD_WR_DATA(0x00);
 4288              		.loc 1 834 3
 4289 07c4 0020     		movs	r0, #0
 4290 07c6 FFF7FEFF 		bl	LCD_WR_DATA
 835:hardware/src/lcd.c **** 		LCD_WR_DATA(0x00);
 4291              		.loc 1 835 3
 4292 07ca 0020     		movs	r0, #0
 4293 07cc FFF7FEFF 		bl	LCD_WR_DATA
 836:hardware/src/lcd.c **** 		LCD_WR_DATA(0x00);
 4294              		.loc 1 836 3
 4295 07d0 0020     		movs	r0, #0
 4296 07d2 FFF7FEFF 		bl	LCD_WR_DATA
 837:hardware/src/lcd.c **** 		LCD_WR_DATA(0x00);
 4297              		.loc 1 837 3
 4298 07d6 0020     		movs	r0, #0
 4299 07d8 FFF7FEFF 		bl	LCD_WR_DATA
 838:hardware/src/lcd.c **** 		LCD_WR_DATA(0x00);
 4300              		.loc 1 838 3
 4301 07dc 0020     		movs	r0, #0
 4302 07de FFF7FEFF 		bl	LCD_WR_DATA
 839:hardware/src/lcd.c **** 		LCD_WR_DATA(0x00);
 4303              		.loc 1 839 3
 4304 07e2 0020     		movs	r0, #0
 4305 07e4 FFF7FEFF 		bl	LCD_WR_DATA
 840:hardware/src/lcd.c **** 		LCD_WR_DATA(0x00);
 4306              		.loc 1 840 3
 4307 07e8 0020     		movs	r0, #0
 4308 07ea FFF7FEFF 		bl	LCD_WR_DATA
 841:hardware/src/lcd.c **** 		LCD_WR_DATA(0x00);
 4309              		.loc 1 841 3
 4310 07ee 0020     		movs	r0, #0
 4311 07f0 FFF7FEFF 		bl	LCD_WR_DATA
 842:hardware/src/lcd.c **** 		LCD_WR_DATA(0x00);
 4312              		.loc 1 842 3
 4313 07f4 0020     		movs	r0, #0
 4314 07f6 FFF7FEFF 		bl	LCD_WR_DATA
 843:hardware/src/lcd.c **** 		LCD_WR_DATA(0x00);
 4315              		.loc 1 843 3
 4316 07fa 0020     		movs	r0, #0
 4317 07fc FFF7FEFF 		bl	LCD_WR_DATA
 844:hardware/src/lcd.c **** 		LCD_WR_DATA(0x00);
 4318              		.loc 1 844 3
 4319 0800 0020     		movs	r0, #0
 4320 0802 FFF7FEFF 		bl	LCD_WR_DATA
 845:hardware/src/lcd.c **** 		LCD_WR_DATA(0x00);
ARM GAS  /tmp/ccRHtd69.s 			page 101


 4321              		.loc 1 845 3
 4322 0806 0020     		movs	r0, #0
 4323 0808 FFF7FEFF 		bl	LCD_WR_DATA
 846:hardware/src/lcd.c **** 		LCD_WR_DATA(0x00);
 4324              		.loc 1 846 3
 4325 080c 0020     		movs	r0, #0
 4326 080e FFF7FEFF 		bl	LCD_WR_DATA
 847:hardware/src/lcd.c **** 		LCD_WR_DATA(0x00);
 4327              		.loc 1 847 3
 4328 0812 0020     		movs	r0, #0
 4329 0814 FFF7FEFF 		bl	LCD_WR_DATA
 848:hardware/src/lcd.c **** 		LCD_WR_DATA(0x00);
 4330              		.loc 1 848 3
 4331 0818 0020     		movs	r0, #0
 4332 081a FFF7FEFF 		bl	LCD_WR_DATA
 849:hardware/src/lcd.c **** 		LCD_WR_DATA(0x00);
 4333              		.loc 1 849 3
 4334 081e 0020     		movs	r0, #0
 4335 0820 FFF7FEFF 		bl	LCD_WR_DATA
 850:hardware/src/lcd.c **** 		LCD_WR_DATA(0x00);
 4336              		.loc 1 850 3
 4337 0824 0020     		movs	r0, #0
 4338 0826 FFF7FEFF 		bl	LCD_WR_DATA
 851:hardware/src/lcd.c **** 		LCD_WR_DATA(0x00);
 4339              		.loc 1 851 3
 4340 082a 0020     		movs	r0, #0
 4341 082c FFF7FEFF 		bl	LCD_WR_DATA
 852:hardware/src/lcd.c **** 		LCD_WR_DATA(0x00);
 4342              		.loc 1 852 3
 4343 0830 0020     		movs	r0, #0
 4344 0832 FFF7FEFF 		bl	LCD_WR_DATA
 853:hardware/src/lcd.c **** 		LCD_WR_DATA(0x00);
 4345              		.loc 1 853 3
 4346 0836 0020     		movs	r0, #0
 4347 0838 FFF7FEFF 		bl	LCD_WR_DATA
 854:hardware/src/lcd.c **** 		LCD_WR_DATA(0x00);
 4348              		.loc 1 854 3
 4349 083c 0020     		movs	r0, #0
 4350 083e FFF7FEFF 		bl	LCD_WR_DATA
 855:hardware/src/lcd.c **** 
 856:hardware/src/lcd.c **** 		LCD_WR_REG(0xB4);
 4351              		.loc 1 856 3
 4352 0842 B420     		movs	r0, #180
 4353 0844 FFF7FEFF 		bl	LCD_WR_REG
 857:hardware/src/lcd.c **** 		LCD_WR_DATA(0x8B);
 4354              		.loc 1 857 3
 4355 0848 8B20     		movs	r0, #139
 4356 084a FFF7FEFF 		bl	LCD_WR_DATA
 858:hardware/src/lcd.c **** 		LCD_WR_DATA(0x00);
 4357              		.loc 1 858 3
 4358 084e 0020     		movs	r0, #0
 4359 0850 FFF7FEFF 		bl	LCD_WR_DATA
 859:hardware/src/lcd.c **** 		LCD_WR_DATA(0x96);
 4360              		.loc 1 859 3
 4361 0854 9620     		movs	r0, #150
 4362 0856 FFF7FEFF 		bl	LCD_WR_DATA
 860:hardware/src/lcd.c **** 		LCD_WR_DATA(0x00);
ARM GAS  /tmp/ccRHtd69.s 			page 102


 4363              		.loc 1 860 3
 4364 085a 0020     		movs	r0, #0
 4365 085c FFF7FEFF 		bl	LCD_WR_DATA
 861:hardware/src/lcd.c **** 		LCD_WR_DATA(0xA1);
 4366              		.loc 1 861 3
 4367 0860 A120     		movs	r0, #161
 4368 0862 FFF7FEFF 		bl	LCD_WR_DATA
 862:hardware/src/lcd.c **** 		LCD_WR_DATA(0x00);
 4369              		.loc 1 862 3
 4370 0866 0020     		movs	r0, #0
 4371 0868 FFF7FEFF 		bl	LCD_WR_DATA
 863:hardware/src/lcd.c **** 
 864:hardware/src/lcd.c **** 		LCD_WR_REG(0xB5);
 4372              		.loc 1 864 3
 4373 086c B520     		movs	r0, #181
 4374 086e FFF7FEFF 		bl	LCD_WR_REG
 865:hardware/src/lcd.c **** 		LCD_WR_DATA(0x02);
 4375              		.loc 1 865 3
 4376 0872 0220     		movs	r0, #2
 4377 0874 FFF7FEFF 		bl	LCD_WR_DATA
 866:hardware/src/lcd.c **** 		LCD_WR_DATA(0x00);
 4378              		.loc 1 866 3
 4379 0878 0020     		movs	r0, #0
 4380 087a FFF7FEFF 		bl	LCD_WR_DATA
 867:hardware/src/lcd.c **** 		LCD_WR_DATA(0x03);
 4381              		.loc 1 867 3
 4382 087e 0320     		movs	r0, #3
 4383 0880 FFF7FEFF 		bl	LCD_WR_DATA
 868:hardware/src/lcd.c **** 		LCD_WR_DATA(0x00);
 4384              		.loc 1 868 3
 4385 0884 0020     		movs	r0, #0
 4386 0886 FFF7FEFF 		bl	LCD_WR_DATA
 869:hardware/src/lcd.c **** 		LCD_WR_DATA(0x04);
 4387              		.loc 1 869 3
 4388 088a 0420     		movs	r0, #4
 4389 088c FFF7FEFF 		bl	LCD_WR_DATA
 870:hardware/src/lcd.c **** 		LCD_WR_DATA(0x00);
 4390              		.loc 1 870 3
 4391 0890 0020     		movs	r0, #0
 4392 0892 FFF7FEFF 		bl	LCD_WR_DATA
 871:hardware/src/lcd.c **** 
 872:hardware/src/lcd.c **** 		LCD_WR_REG(0xB6);
 4393              		.loc 1 872 3
 4394 0896 B620     		movs	r0, #182
 4395 0898 FFF7FEFF 		bl	LCD_WR_REG
 873:hardware/src/lcd.c **** 		LCD_WR_DATA(0x00);
 4396              		.loc 1 873 3
 4397 089c 0020     		movs	r0, #0
 4398 089e FFF7FEFF 		bl	LCD_WR_DATA
 874:hardware/src/lcd.c **** 		LCD_WR_DATA(0x00);
 4399              		.loc 1 874 3
 4400 08a2 0020     		movs	r0, #0
 4401 08a4 FFF7FEFF 		bl	LCD_WR_DATA
 875:hardware/src/lcd.c **** 
 876:hardware/src/lcd.c **** 		LCD_WR_REG(0xB7);
 4402              		.loc 1 876 3
 4403 08a8 B720     		movs	r0, #183
ARM GAS  /tmp/ccRHtd69.s 			page 103


 4404 08aa FFF7FEFF 		bl	LCD_WR_REG
 877:hardware/src/lcd.c **** 		LCD_WR_DATA(0x00);
 4405              		.loc 1 877 3
 4406 08ae 0020     		movs	r0, #0
 4407 08b0 FFF7FEFF 		bl	LCD_WR_DATA
 878:hardware/src/lcd.c **** 		LCD_WR_DATA(0x00);
 4408              		.loc 1 878 3
 4409 08b4 0020     		movs	r0, #0
 4410 08b6 FFF7FEFF 		bl	LCD_WR_DATA
 879:hardware/src/lcd.c **** 		LCD_WR_DATA(0x3F);
 4411              		.loc 1 879 3
 4412 08ba 3F20     		movs	r0, #63
 4413 08bc FFF7FEFF 		bl	LCD_WR_DATA
 880:hardware/src/lcd.c **** 		LCD_WR_DATA(0x00);
 4414              		.loc 1 880 3
 4415 08c0 0020     		movs	r0, #0
 4416 08c2 FFF7FEFF 		bl	LCD_WR_DATA
 881:hardware/src/lcd.c **** 		LCD_WR_DATA(0x5E);
 4417              		.loc 1 881 3
 4418 08c6 5E20     		movs	r0, #94
 4419 08c8 FFF7FEFF 		bl	LCD_WR_DATA
 882:hardware/src/lcd.c **** 		LCD_WR_DATA(0x00);
 4420              		.loc 1 882 3
 4421 08cc 0020     		movs	r0, #0
 4422 08ce FFF7FEFF 		bl	LCD_WR_DATA
 883:hardware/src/lcd.c **** 		LCD_WR_DATA(0x64);
 4423              		.loc 1 883 3
 4424 08d2 6420     		movs	r0, #100
 4425 08d4 FFF7FEFF 		bl	LCD_WR_DATA
 884:hardware/src/lcd.c **** 		LCD_WR_DATA(0x00);
 4426              		.loc 1 884 3
 4427 08d8 0020     		movs	r0, #0
 4428 08da FFF7FEFF 		bl	LCD_WR_DATA
 885:hardware/src/lcd.c **** 		LCD_WR_DATA(0x8C);
 4429              		.loc 1 885 3
 4430 08de 8C20     		movs	r0, #140
 4431 08e0 FFF7FEFF 		bl	LCD_WR_DATA
 886:hardware/src/lcd.c **** 		LCD_WR_DATA(0x00);
 4432              		.loc 1 886 3
 4433 08e4 0020     		movs	r0, #0
 4434 08e6 FFF7FEFF 		bl	LCD_WR_DATA
 887:hardware/src/lcd.c **** 		LCD_WR_DATA(0xAC);
 4435              		.loc 1 887 3
 4436 08ea AC20     		movs	r0, #172
 4437 08ec FFF7FEFF 		bl	LCD_WR_DATA
 888:hardware/src/lcd.c **** 		LCD_WR_DATA(0x00);
 4438              		.loc 1 888 3
 4439 08f0 0020     		movs	r0, #0
 4440 08f2 FFF7FEFF 		bl	LCD_WR_DATA
 889:hardware/src/lcd.c **** 		LCD_WR_DATA(0xDC);
 4441              		.loc 1 889 3
 4442 08f6 DC20     		movs	r0, #220
 4443 08f8 FFF7FEFF 		bl	LCD_WR_DATA
 890:hardware/src/lcd.c **** 		LCD_WR_DATA(0x00);
 4444              		.loc 1 890 3
 4445 08fc 0020     		movs	r0, #0
 4446 08fe FFF7FEFF 		bl	LCD_WR_DATA
ARM GAS  /tmp/ccRHtd69.s 			page 104


 891:hardware/src/lcd.c **** 		LCD_WR_DATA(0x70);
 4447              		.loc 1 891 3
 4448 0902 7020     		movs	r0, #112
 4449 0904 FFF7FEFF 		bl	LCD_WR_DATA
 892:hardware/src/lcd.c **** 		LCD_WR_DATA(0x00);
 4450              		.loc 1 892 3
 4451 0908 0020     		movs	r0, #0
 4452 090a FFF7FEFF 		bl	LCD_WR_DATA
 893:hardware/src/lcd.c **** 		LCD_WR_DATA(0x90);
 4453              		.loc 1 893 3
 4454 090e 9020     		movs	r0, #144
 4455 0910 FFF7FEFF 		bl	LCD_WR_DATA
 894:hardware/src/lcd.c **** 		LCD_WR_DATA(0x00);
 4456              		.loc 1 894 3
 4457 0914 0020     		movs	r0, #0
 4458 0916 FFF7FEFF 		bl	LCD_WR_DATA
 895:hardware/src/lcd.c **** 		LCD_WR_DATA(0xEB);
 4459              		.loc 1 895 3
 4460 091a EB20     		movs	r0, #235
 4461 091c FFF7FEFF 		bl	LCD_WR_DATA
 896:hardware/src/lcd.c **** 		LCD_WR_DATA(0x00);
 4462              		.loc 1 896 3
 4463 0920 0020     		movs	r0, #0
 4464 0922 FFF7FEFF 		bl	LCD_WR_DATA
 897:hardware/src/lcd.c **** 		LCD_WR_DATA(0xDC);
 4465              		.loc 1 897 3
 4466 0926 DC20     		movs	r0, #220
 4467 0928 FFF7FEFF 		bl	LCD_WR_DATA
 898:hardware/src/lcd.c **** 		LCD_WR_DATA(0x00);
 4468              		.loc 1 898 3
 4469 092c 0020     		movs	r0, #0
 4470 092e FFF7FEFF 		bl	LCD_WR_DATA
 899:hardware/src/lcd.c **** 
 900:hardware/src/lcd.c **** 		LCD_WR_REG(0xB8);
 4471              		.loc 1 900 3
 4472 0932 B820     		movs	r0, #184
 4473 0934 FFF7FEFF 		bl	LCD_WR_REG
 901:hardware/src/lcd.c **** 		LCD_WR_DATA(0x00);
 4474              		.loc 1 901 3
 4475 0938 0020     		movs	r0, #0
 4476 093a FFF7FEFF 		bl	LCD_WR_DATA
 902:hardware/src/lcd.c **** 		LCD_WR_DATA(0x00);
 4477              		.loc 1 902 3
 4478 093e 0020     		movs	r0, #0
 4479 0940 FFF7FEFF 		bl	LCD_WR_DATA
 903:hardware/src/lcd.c **** 		LCD_WR_DATA(0x00);
 4480              		.loc 1 903 3
 4481 0944 0020     		movs	r0, #0
 4482 0946 FFF7FEFF 		bl	LCD_WR_DATA
 904:hardware/src/lcd.c **** 		LCD_WR_DATA(0x00);
 4483              		.loc 1 904 3
 4484 094a 0020     		movs	r0, #0
 4485 094c FFF7FEFF 		bl	LCD_WR_DATA
 905:hardware/src/lcd.c **** 		LCD_WR_DATA(0x00);
 4486              		.loc 1 905 3
 4487 0950 0020     		movs	r0, #0
 4488 0952 FFF7FEFF 		bl	LCD_WR_DATA
ARM GAS  /tmp/ccRHtd69.s 			page 105


 906:hardware/src/lcd.c **** 		LCD_WR_DATA(0x00);
 4489              		.loc 1 906 3
 4490 0956 0020     		movs	r0, #0
 4491 0958 FFF7FEFF 		bl	LCD_WR_DATA
 907:hardware/src/lcd.c **** 		LCD_WR_DATA(0x00);
 4492              		.loc 1 907 3
 4493 095c 0020     		movs	r0, #0
 4494 095e FFF7FEFF 		bl	LCD_WR_DATA
 908:hardware/src/lcd.c **** 		LCD_WR_DATA(0x00);
 4495              		.loc 1 908 3
 4496 0962 0020     		movs	r0, #0
 4497 0964 FFF7FEFF 		bl	LCD_WR_DATA
 909:hardware/src/lcd.c **** 
 910:hardware/src/lcd.c **** 		LCD_WR_REG(0xBA);
 4498              		.loc 1 910 3
 4499 0968 BA20     		movs	r0, #186
 4500 096a FFF7FEFF 		bl	LCD_WR_REG
 911:hardware/src/lcd.c **** 		LCD_WR_DATA(0x24);
 4501              		.loc 1 911 3
 4502 096e 2420     		movs	r0, #36
 4503 0970 FFF7FEFF 		bl	LCD_WR_DATA
 912:hardware/src/lcd.c **** 		LCD_WR_DATA(0x00);
 4504              		.loc 1 912 3
 4505 0974 0020     		movs	r0, #0
 4506 0976 FFF7FEFF 		bl	LCD_WR_DATA
 913:hardware/src/lcd.c **** 		LCD_WR_DATA(0x00);
 4507              		.loc 1 913 3
 4508 097a 0020     		movs	r0, #0
 4509 097c FFF7FEFF 		bl	LCD_WR_DATA
 914:hardware/src/lcd.c **** 		LCD_WR_DATA(0x00);
 4510              		.loc 1 914 3
 4511 0980 0020     		movs	r0, #0
 4512 0982 FFF7FEFF 		bl	LCD_WR_DATA
 915:hardware/src/lcd.c **** 
 916:hardware/src/lcd.c **** 		LCD_WR_REG(0xC1);
 4513              		.loc 1 916 3
 4514 0986 C120     		movs	r0, #193
 4515 0988 FFF7FEFF 		bl	LCD_WR_REG
 917:hardware/src/lcd.c **** 		LCD_WR_DATA(0x20);
 4516              		.loc 1 917 3
 4517 098c 2020     		movs	r0, #32
 4518 098e FFF7FEFF 		bl	LCD_WR_DATA
 918:hardware/src/lcd.c **** 		LCD_WR_DATA(0x00);
 4519              		.loc 1 918 3
 4520 0992 0020     		movs	r0, #0
 4521 0994 FFF7FEFF 		bl	LCD_WR_DATA
 919:hardware/src/lcd.c **** 		LCD_WR_DATA(0x54);
 4522              		.loc 1 919 3
 4523 0998 5420     		movs	r0, #84
 4524 099a FFF7FEFF 		bl	LCD_WR_DATA
 920:hardware/src/lcd.c **** 		LCD_WR_DATA(0x00);
 4525              		.loc 1 920 3
 4526 099e 0020     		movs	r0, #0
 4527 09a0 FFF7FEFF 		bl	LCD_WR_DATA
 921:hardware/src/lcd.c **** 		LCD_WR_DATA(0xFF);
 4528              		.loc 1 921 3
 4529 09a4 FF20     		movs	r0, #255
ARM GAS  /tmp/ccRHtd69.s 			page 106


 4530 09a6 FFF7FEFF 		bl	LCD_WR_DATA
 922:hardware/src/lcd.c **** 		LCD_WR_DATA(0x00);
 4531              		.loc 1 922 3
 4532 09aa 0020     		movs	r0, #0
 4533 09ac FFF7FEFF 		bl	LCD_WR_DATA
 923:hardware/src/lcd.c **** 
 924:hardware/src/lcd.c **** 		LCD_WR_REG(0xC2);
 4534              		.loc 1 924 3
 4535 09b0 C220     		movs	r0, #194
 4536 09b2 FFF7FEFF 		bl	LCD_WR_REG
 925:hardware/src/lcd.c **** 		LCD_WR_DATA(0x0A);
 4537              		.loc 1 925 3
 4538 09b6 0A20     		movs	r0, #10
 4539 09b8 FFF7FEFF 		bl	LCD_WR_DATA
 926:hardware/src/lcd.c **** 		LCD_WR_DATA(0x00);
 4540              		.loc 1 926 3
 4541 09bc 0020     		movs	r0, #0
 4542 09be FFF7FEFF 		bl	LCD_WR_DATA
 927:hardware/src/lcd.c **** 		LCD_WR_DATA(0x04);
 4543              		.loc 1 927 3
 4544 09c2 0420     		movs	r0, #4
 4545 09c4 FFF7FEFF 		bl	LCD_WR_DATA
 928:hardware/src/lcd.c **** 		LCD_WR_DATA(0x00);
 4546              		.loc 1 928 3
 4547 09c8 0020     		movs	r0, #0
 4548 09ca FFF7FEFF 		bl	LCD_WR_DATA
 929:hardware/src/lcd.c **** 
 930:hardware/src/lcd.c **** 		LCD_WR_REG(0xC3);
 4549              		.loc 1 930 3
 4550 09ce C320     		movs	r0, #195
 4551 09d0 FFF7FEFF 		bl	LCD_WR_REG
 931:hardware/src/lcd.c **** 		LCD_WR_DATA(0x3C);
 4552              		.loc 1 931 3
 4553 09d4 3C20     		movs	r0, #60
 4554 09d6 FFF7FEFF 		bl	LCD_WR_DATA
 932:hardware/src/lcd.c **** 		LCD_WR_DATA(0x00);
 4555              		.loc 1 932 3
 4556 09da 0020     		movs	r0, #0
 4557 09dc FFF7FEFF 		bl	LCD_WR_DATA
 933:hardware/src/lcd.c **** 		LCD_WR_DATA(0x3A);
 4558              		.loc 1 933 3
 4559 09e0 3A20     		movs	r0, #58
 4560 09e2 FFF7FEFF 		bl	LCD_WR_DATA
 934:hardware/src/lcd.c **** 		LCD_WR_DATA(0x00);
 4561              		.loc 1 934 3
 4562 09e6 0020     		movs	r0, #0
 4563 09e8 FFF7FEFF 		bl	LCD_WR_DATA
 935:hardware/src/lcd.c **** 		LCD_WR_DATA(0x39);
 4564              		.loc 1 935 3
 4565 09ec 3920     		movs	r0, #57
 4566 09ee FFF7FEFF 		bl	LCD_WR_DATA
 936:hardware/src/lcd.c **** 		LCD_WR_DATA(0x00);
 4567              		.loc 1 936 3
 4568 09f2 0020     		movs	r0, #0
 4569 09f4 FFF7FEFF 		bl	LCD_WR_DATA
 937:hardware/src/lcd.c **** 		LCD_WR_DATA(0x37);
 4570              		.loc 1 937 3
ARM GAS  /tmp/ccRHtd69.s 			page 107


 4571 09f8 3720     		movs	r0, #55
 4572 09fa FFF7FEFF 		bl	LCD_WR_DATA
 938:hardware/src/lcd.c **** 		LCD_WR_DATA(0x00);
 4573              		.loc 1 938 3
 4574 09fe 0020     		movs	r0, #0
 4575 0a00 FFF7FEFF 		bl	LCD_WR_DATA
 939:hardware/src/lcd.c **** 		LCD_WR_DATA(0x3C);
 4576              		.loc 1 939 3
 4577 0a04 3C20     		movs	r0, #60
 4578 0a06 FFF7FEFF 		bl	LCD_WR_DATA
 940:hardware/src/lcd.c **** 		LCD_WR_DATA(0x00);
 4579              		.loc 1 940 3
 4580 0a0a 0020     		movs	r0, #0
 4581 0a0c FFF7FEFF 		bl	LCD_WR_DATA
 941:hardware/src/lcd.c **** 		LCD_WR_DATA(0x36);
 4582              		.loc 1 941 3
 4583 0a10 3620     		movs	r0, #54
 4584 0a12 FFF7FEFF 		bl	LCD_WR_DATA
 942:hardware/src/lcd.c **** 		LCD_WR_DATA(0x00);
 4585              		.loc 1 942 3
 4586 0a16 0020     		movs	r0, #0
 4587 0a18 FFF7FEFF 		bl	LCD_WR_DATA
 943:hardware/src/lcd.c **** 		LCD_WR_DATA(0x32);
 4588              		.loc 1 943 3
 4589 0a1c 3220     		movs	r0, #50
 4590 0a1e FFF7FEFF 		bl	LCD_WR_DATA
 944:hardware/src/lcd.c **** 		LCD_WR_DATA(0x00);
 4591              		.loc 1 944 3
 4592 0a22 0020     		movs	r0, #0
 4593 0a24 FFF7FEFF 		bl	LCD_WR_DATA
 945:hardware/src/lcd.c **** 		LCD_WR_DATA(0x2F);
 4594              		.loc 1 945 3
 4595 0a28 2F20     		movs	r0, #47
 4596 0a2a FFF7FEFF 		bl	LCD_WR_DATA
 946:hardware/src/lcd.c **** 		LCD_WR_DATA(0x00);
 4597              		.loc 1 946 3
 4598 0a2e 0020     		movs	r0, #0
 4599 0a30 FFF7FEFF 		bl	LCD_WR_DATA
 947:hardware/src/lcd.c **** 		LCD_WR_DATA(0x2C);
 4600              		.loc 1 947 3
 4601 0a34 2C20     		movs	r0, #44
 4602 0a36 FFF7FEFF 		bl	LCD_WR_DATA
 948:hardware/src/lcd.c **** 		LCD_WR_DATA(0x00);
 4603              		.loc 1 948 3
 4604 0a3a 0020     		movs	r0, #0
 4605 0a3c FFF7FEFF 		bl	LCD_WR_DATA
 949:hardware/src/lcd.c **** 		LCD_WR_DATA(0x29);
 4606              		.loc 1 949 3
 4607 0a40 2920     		movs	r0, #41
 4608 0a42 FFF7FEFF 		bl	LCD_WR_DATA
 950:hardware/src/lcd.c **** 		LCD_WR_DATA(0x00);
 4609              		.loc 1 950 3
 4610 0a46 0020     		movs	r0, #0
 4611 0a48 FFF7FEFF 		bl	LCD_WR_DATA
 951:hardware/src/lcd.c **** 		LCD_WR_DATA(0x26);
 4612              		.loc 1 951 3
 4613 0a4c 2620     		movs	r0, #38
ARM GAS  /tmp/ccRHtd69.s 			page 108


 4614 0a4e FFF7FEFF 		bl	LCD_WR_DATA
 952:hardware/src/lcd.c **** 		LCD_WR_DATA(0x00);
 4615              		.loc 1 952 3
 4616 0a52 0020     		movs	r0, #0
 4617 0a54 FFF7FEFF 		bl	LCD_WR_DATA
 953:hardware/src/lcd.c **** 		LCD_WR_DATA(0x24);
 4618              		.loc 1 953 3
 4619 0a58 2420     		movs	r0, #36
 4620 0a5a FFF7FEFF 		bl	LCD_WR_DATA
 954:hardware/src/lcd.c **** 		LCD_WR_DATA(0x00);
 4621              		.loc 1 954 3
 4622 0a5e 0020     		movs	r0, #0
 4623 0a60 FFF7FEFF 		bl	LCD_WR_DATA
 955:hardware/src/lcd.c **** 		LCD_WR_DATA(0x24);
 4624              		.loc 1 955 3
 4625 0a64 2420     		movs	r0, #36
 4626 0a66 FFF7FEFF 		bl	LCD_WR_DATA
 956:hardware/src/lcd.c **** 		LCD_WR_DATA(0x00);
 4627              		.loc 1 956 3
 4628 0a6a 0020     		movs	r0, #0
 4629 0a6c FFF7FEFF 		bl	LCD_WR_DATA
 957:hardware/src/lcd.c **** 		LCD_WR_DATA(0x23);
 4630              		.loc 1 957 3
 4631 0a70 2320     		movs	r0, #35
 4632 0a72 FFF7FEFF 		bl	LCD_WR_DATA
 958:hardware/src/lcd.c **** 		LCD_WR_DATA(0x00);
 4633              		.loc 1 958 3
 4634 0a76 0020     		movs	r0, #0
 4635 0a78 FFF7FEFF 		bl	LCD_WR_DATA
 959:hardware/src/lcd.c **** 		LCD_WR_DATA(0x3C);
 4636              		.loc 1 959 3
 4637 0a7c 3C20     		movs	r0, #60
 4638 0a7e FFF7FEFF 		bl	LCD_WR_DATA
 960:hardware/src/lcd.c **** 		LCD_WR_DATA(0x00);
 4639              		.loc 1 960 3
 4640 0a82 0020     		movs	r0, #0
 4641 0a84 FFF7FEFF 		bl	LCD_WR_DATA
 961:hardware/src/lcd.c **** 		LCD_WR_DATA(0x36);
 4642              		.loc 1 961 3
 4643 0a88 3620     		movs	r0, #54
 4644 0a8a FFF7FEFF 		bl	LCD_WR_DATA
 962:hardware/src/lcd.c **** 		LCD_WR_DATA(0x00);
 4645              		.loc 1 962 3
 4646 0a8e 0020     		movs	r0, #0
 4647 0a90 FFF7FEFF 		bl	LCD_WR_DATA
 963:hardware/src/lcd.c **** 		LCD_WR_DATA(0x32);
 4648              		.loc 1 963 3
 4649 0a94 3220     		movs	r0, #50
 4650 0a96 FFF7FEFF 		bl	LCD_WR_DATA
 964:hardware/src/lcd.c **** 		LCD_WR_DATA(0x00);
 4651              		.loc 1 964 3
 4652 0a9a 0020     		movs	r0, #0
 4653 0a9c FFF7FEFF 		bl	LCD_WR_DATA
 965:hardware/src/lcd.c **** 		LCD_WR_DATA(0x2F);
 4654              		.loc 1 965 3
 4655 0aa0 2F20     		movs	r0, #47
 4656 0aa2 FFF7FEFF 		bl	LCD_WR_DATA
ARM GAS  /tmp/ccRHtd69.s 			page 109


 966:hardware/src/lcd.c **** 		LCD_WR_DATA(0x00);
 4657              		.loc 1 966 3
 4658 0aa6 0020     		movs	r0, #0
 4659 0aa8 FFF7FEFF 		bl	LCD_WR_DATA
 967:hardware/src/lcd.c **** 		LCD_WR_DATA(0x2C);
 4660              		.loc 1 967 3
 4661 0aac 2C20     		movs	r0, #44
 4662 0aae FFF7FEFF 		bl	LCD_WR_DATA
 968:hardware/src/lcd.c **** 		LCD_WR_DATA(0x00);
 4663              		.loc 1 968 3
 4664 0ab2 0020     		movs	r0, #0
 4665 0ab4 FFF7FEFF 		bl	LCD_WR_DATA
 969:hardware/src/lcd.c **** 		LCD_WR_DATA(0x29);
 4666              		.loc 1 969 3
 4667 0ab8 2920     		movs	r0, #41
 4668 0aba FFF7FEFF 		bl	LCD_WR_DATA
 970:hardware/src/lcd.c **** 		LCD_WR_DATA(0x00);
 4669              		.loc 1 970 3
 4670 0abe 0020     		movs	r0, #0
 4671 0ac0 FFF7FEFF 		bl	LCD_WR_DATA
 971:hardware/src/lcd.c **** 		LCD_WR_DATA(0x26);
 4672              		.loc 1 971 3
 4673 0ac4 2620     		movs	r0, #38
 4674 0ac6 FFF7FEFF 		bl	LCD_WR_DATA
 972:hardware/src/lcd.c **** 		LCD_WR_DATA(0x00);
 4675              		.loc 1 972 3
 4676 0aca 0020     		movs	r0, #0
 4677 0acc FFF7FEFF 		bl	LCD_WR_DATA
 973:hardware/src/lcd.c **** 		LCD_WR_DATA(0x24);
 4678              		.loc 1 973 3
 4679 0ad0 2420     		movs	r0, #36
 4680 0ad2 FFF7FEFF 		bl	LCD_WR_DATA
 974:hardware/src/lcd.c **** 		LCD_WR_DATA(0x00);
 4681              		.loc 1 974 3
 4682 0ad6 0020     		movs	r0, #0
 4683 0ad8 FFF7FEFF 		bl	LCD_WR_DATA
 975:hardware/src/lcd.c **** 		LCD_WR_DATA(0x24);
 4684              		.loc 1 975 3
 4685 0adc 2420     		movs	r0, #36
 4686 0ade FFF7FEFF 		bl	LCD_WR_DATA
 976:hardware/src/lcd.c **** 		LCD_WR_DATA(0x00);
 4687              		.loc 1 976 3
 4688 0ae2 0020     		movs	r0, #0
 4689 0ae4 FFF7FEFF 		bl	LCD_WR_DATA
 977:hardware/src/lcd.c **** 		LCD_WR_DATA(0x23);
 4690              		.loc 1 977 3
 4691 0ae8 2320     		movs	r0, #35
 4692 0aea FFF7FEFF 		bl	LCD_WR_DATA
 978:hardware/src/lcd.c **** 		LCD_WR_DATA(0x00);
 4693              		.loc 1 978 3
 4694 0aee 0020     		movs	r0, #0
 4695 0af0 FFF7FEFF 		bl	LCD_WR_DATA
 979:hardware/src/lcd.c **** 
 980:hardware/src/lcd.c **** 		LCD_WR_REG(0xC4);
 4696              		.loc 1 980 3
 4697 0af4 C420     		movs	r0, #196
 4698 0af6 FFF7FEFF 		bl	LCD_WR_REG
ARM GAS  /tmp/ccRHtd69.s 			page 110


 981:hardware/src/lcd.c **** 		LCD_WR_DATA(0x62);
 4699              		.loc 1 981 3
 4700 0afa 6220     		movs	r0, #98
 4701 0afc FFF7FEFF 		bl	LCD_WR_DATA
 982:hardware/src/lcd.c **** 		LCD_WR_DATA(0x00);
 4702              		.loc 1 982 3
 4703 0b00 0020     		movs	r0, #0
 4704 0b02 FFF7FEFF 		bl	LCD_WR_DATA
 983:hardware/src/lcd.c **** 		LCD_WR_DATA(0x05);
 4705              		.loc 1 983 3
 4706 0b06 0520     		movs	r0, #5
 4707 0b08 FFF7FEFF 		bl	LCD_WR_DATA
 984:hardware/src/lcd.c **** 		LCD_WR_DATA(0x00);
 4708              		.loc 1 984 3
 4709 0b0c 0020     		movs	r0, #0
 4710 0b0e FFF7FEFF 		bl	LCD_WR_DATA
 985:hardware/src/lcd.c **** 		LCD_WR_DATA(0x84);
 4711              		.loc 1 985 3
 4712 0b12 8420     		movs	r0, #132
 4713 0b14 FFF7FEFF 		bl	LCD_WR_DATA
 986:hardware/src/lcd.c **** 		LCD_WR_DATA(0x00);
 4714              		.loc 1 986 3
 4715 0b18 0020     		movs	r0, #0
 4716 0b1a FFF7FEFF 		bl	LCD_WR_DATA
 987:hardware/src/lcd.c **** 		LCD_WR_DATA(0xF0);
 4717              		.loc 1 987 3
 4718 0b1e F020     		movs	r0, #240
 4719 0b20 FFF7FEFF 		bl	LCD_WR_DATA
 988:hardware/src/lcd.c **** 		LCD_WR_DATA(0x00);
 4720              		.loc 1 988 3
 4721 0b24 0020     		movs	r0, #0
 4722 0b26 FFF7FEFF 		bl	LCD_WR_DATA
 989:hardware/src/lcd.c **** 		LCD_WR_DATA(0x18);
 4723              		.loc 1 989 3
 4724 0b2a 1820     		movs	r0, #24
 4725 0b2c FFF7FEFF 		bl	LCD_WR_DATA
 990:hardware/src/lcd.c **** 		LCD_WR_DATA(0x00);
 4726              		.loc 1 990 3
 4727 0b30 0020     		movs	r0, #0
 4728 0b32 FFF7FEFF 		bl	LCD_WR_DATA
 991:hardware/src/lcd.c **** 		LCD_WR_DATA(0xA4);
 4729              		.loc 1 991 3
 4730 0b36 A420     		movs	r0, #164
 4731 0b38 FFF7FEFF 		bl	LCD_WR_DATA
 992:hardware/src/lcd.c **** 		LCD_WR_DATA(0x00);
 4732              		.loc 1 992 3
 4733 0b3c 0020     		movs	r0, #0
 4734 0b3e FFF7FEFF 		bl	LCD_WR_DATA
 993:hardware/src/lcd.c **** 		LCD_WR_DATA(0x18);
 4735              		.loc 1 993 3
 4736 0b42 1820     		movs	r0, #24
 4737 0b44 FFF7FEFF 		bl	LCD_WR_DATA
 994:hardware/src/lcd.c **** 		LCD_WR_DATA(0x00);
 4738              		.loc 1 994 3
 4739 0b48 0020     		movs	r0, #0
 4740 0b4a FFF7FEFF 		bl	LCD_WR_DATA
 995:hardware/src/lcd.c **** 		LCD_WR_DATA(0x50);
ARM GAS  /tmp/ccRHtd69.s 			page 111


 4741              		.loc 1 995 3
 4742 0b4e 5020     		movs	r0, #80
 4743 0b50 FFF7FEFF 		bl	LCD_WR_DATA
 996:hardware/src/lcd.c **** 		LCD_WR_DATA(0x00);
 4744              		.loc 1 996 3
 4745 0b54 0020     		movs	r0, #0
 4746 0b56 FFF7FEFF 		bl	LCD_WR_DATA
 997:hardware/src/lcd.c **** 		LCD_WR_DATA(0x0C);
 4747              		.loc 1 997 3
 4748 0b5a 0C20     		movs	r0, #12
 4749 0b5c FFF7FEFF 		bl	LCD_WR_DATA
 998:hardware/src/lcd.c **** 		LCD_WR_DATA(0x00);
 4750              		.loc 1 998 3
 4751 0b60 0020     		movs	r0, #0
 4752 0b62 FFF7FEFF 		bl	LCD_WR_DATA
 999:hardware/src/lcd.c **** 		LCD_WR_DATA(0x17);
 4753              		.loc 1 999 3
 4754 0b66 1720     		movs	r0, #23
 4755 0b68 FFF7FEFF 		bl	LCD_WR_DATA
1000:hardware/src/lcd.c **** 		LCD_WR_DATA(0x00);
 4756              		.loc 1 1000 3
 4757 0b6c 0020     		movs	r0, #0
 4758 0b6e FFF7FEFF 		bl	LCD_WR_DATA
1001:hardware/src/lcd.c **** 		LCD_WR_DATA(0x95);
 4759              		.loc 1 1001 3
 4760 0b72 9520     		movs	r0, #149
 4761 0b74 FFF7FEFF 		bl	LCD_WR_DATA
1002:hardware/src/lcd.c **** 		LCD_WR_DATA(0x00);
 4762              		.loc 1 1002 3
 4763 0b78 0020     		movs	r0, #0
 4764 0b7a FFF7FEFF 		bl	LCD_WR_DATA
1003:hardware/src/lcd.c **** 		LCD_WR_DATA(0xF3);
 4765              		.loc 1 1003 3
 4766 0b7e F320     		movs	r0, #243
 4767 0b80 FFF7FEFF 		bl	LCD_WR_DATA
1004:hardware/src/lcd.c **** 		LCD_WR_DATA(0x00);
 4768              		.loc 1 1004 3
 4769 0b84 0020     		movs	r0, #0
 4770 0b86 FFF7FEFF 		bl	LCD_WR_DATA
1005:hardware/src/lcd.c **** 		LCD_WR_DATA(0xE6);
 4771              		.loc 1 1005 3
 4772 0b8a E620     		movs	r0, #230
 4773 0b8c FFF7FEFF 		bl	LCD_WR_DATA
1006:hardware/src/lcd.c **** 		LCD_WR_DATA(0x00);
 4774              		.loc 1 1006 3
 4775 0b90 0020     		movs	r0, #0
 4776 0b92 FFF7FEFF 		bl	LCD_WR_DATA
1007:hardware/src/lcd.c **** 
1008:hardware/src/lcd.c **** 		LCD_WR_REG(0xC5);
 4777              		.loc 1 1008 3
 4778 0b96 C520     		movs	r0, #197
 4779 0b98 FFF7FEFF 		bl	LCD_WR_REG
1009:hardware/src/lcd.c **** 		LCD_WR_DATA(0x32);
 4780              		.loc 1 1009 3
 4781 0b9c 3220     		movs	r0, #50
 4782 0b9e FFF7FEFF 		bl	LCD_WR_DATA
1010:hardware/src/lcd.c **** 		LCD_WR_DATA(0x00);
ARM GAS  /tmp/ccRHtd69.s 			page 112


 4783              		.loc 1 1010 3
 4784 0ba2 0020     		movs	r0, #0
 4785 0ba4 FFF7FEFF 		bl	LCD_WR_DATA
1011:hardware/src/lcd.c **** 		LCD_WR_DATA(0x44);
 4786              		.loc 1 1011 3
 4787 0ba8 4420     		movs	r0, #68
 4788 0baa FFF7FEFF 		bl	LCD_WR_DATA
1012:hardware/src/lcd.c **** 		LCD_WR_DATA(0x00);
 4789              		.loc 1 1012 3
 4790 0bae 0020     		movs	r0, #0
 4791 0bb0 FFF7FEFF 		bl	LCD_WR_DATA
1013:hardware/src/lcd.c **** 		LCD_WR_DATA(0x65);
 4792              		.loc 1 1013 3
 4793 0bb4 6520     		movs	r0, #101
 4794 0bb6 FFF7FEFF 		bl	LCD_WR_DATA
1014:hardware/src/lcd.c **** 		LCD_WR_DATA(0x00);
 4795              		.loc 1 1014 3
 4796 0bba 0020     		movs	r0, #0
 4797 0bbc FFF7FEFF 		bl	LCD_WR_DATA
1015:hardware/src/lcd.c **** 		LCD_WR_DATA(0x76);
 4798              		.loc 1 1015 3
 4799 0bc0 7620     		movs	r0, #118
 4800 0bc2 FFF7FEFF 		bl	LCD_WR_DATA
1016:hardware/src/lcd.c **** 		LCD_WR_DATA(0x00);
 4801              		.loc 1 1016 3
 4802 0bc6 0020     		movs	r0, #0
 4803 0bc8 FFF7FEFF 		bl	LCD_WR_DATA
1017:hardware/src/lcd.c **** 		LCD_WR_DATA(0x88);
 4804              		.loc 1 1017 3
 4805 0bcc 8820     		movs	r0, #136
 4806 0bce FFF7FEFF 		bl	LCD_WR_DATA
1018:hardware/src/lcd.c **** 		LCD_WR_DATA(0x00);
 4807              		.loc 1 1018 3
 4808 0bd2 0020     		movs	r0, #0
 4809 0bd4 FFF7FEFF 		bl	LCD_WR_DATA
1019:hardware/src/lcd.c **** 
1020:hardware/src/lcd.c **** 		LCD_WR_REG(0xC6);
 4810              		.loc 1 1020 3
 4811 0bd8 C620     		movs	r0, #198
 4812 0bda FFF7FEFF 		bl	LCD_WR_REG
1021:hardware/src/lcd.c **** 		LCD_WR_DATA(0x20);
 4813              		.loc 1 1021 3
 4814 0bde 2020     		movs	r0, #32
 4815 0be0 FFF7FEFF 		bl	LCD_WR_DATA
1022:hardware/src/lcd.c **** 		LCD_WR_DATA(0x00);
 4816              		.loc 1 1022 3
 4817 0be4 0020     		movs	r0, #0
 4818 0be6 FFF7FEFF 		bl	LCD_WR_DATA
1023:hardware/src/lcd.c **** 		LCD_WR_DATA(0x17);
 4819              		.loc 1 1023 3
 4820 0bea 1720     		movs	r0, #23
 4821 0bec FFF7FEFF 		bl	LCD_WR_DATA
1024:hardware/src/lcd.c **** 		LCD_WR_DATA(0x00);
 4822              		.loc 1 1024 3
 4823 0bf0 0020     		movs	r0, #0
 4824 0bf2 FFF7FEFF 		bl	LCD_WR_DATA
1025:hardware/src/lcd.c **** 		LCD_WR_DATA(0x01);
ARM GAS  /tmp/ccRHtd69.s 			page 113


 4825              		.loc 1 1025 3
 4826 0bf6 0120     		movs	r0, #1
 4827 0bf8 FFF7FEFF 		bl	LCD_WR_DATA
1026:hardware/src/lcd.c **** 		LCD_WR_DATA(0x00);
 4828              		.loc 1 1026 3
 4829 0bfc 0020     		movs	r0, #0
 4830 0bfe FFF7FEFF 		bl	LCD_WR_DATA
1027:hardware/src/lcd.c **** 
1028:hardware/src/lcd.c **** 		LCD_WR_REG(0xC7);
 4831              		.loc 1 1028 3
 4832 0c02 C720     		movs	r0, #199
 4833 0c04 FFF7FEFF 		bl	LCD_WR_REG
1029:hardware/src/lcd.c **** 		LCD_WR_DATA(0x00);
 4834              		.loc 1 1029 3
 4835 0c08 0020     		movs	r0, #0
 4836 0c0a FFF7FEFF 		bl	LCD_WR_DATA
1030:hardware/src/lcd.c **** 		LCD_WR_DATA(0x00);
 4837              		.loc 1 1030 3
 4838 0c0e 0020     		movs	r0, #0
 4839 0c10 FFF7FEFF 		bl	LCD_WR_DATA
1031:hardware/src/lcd.c **** 		LCD_WR_DATA(0x00);
 4840              		.loc 1 1031 3
 4841 0c14 0020     		movs	r0, #0
 4842 0c16 FFF7FEFF 		bl	LCD_WR_DATA
1032:hardware/src/lcd.c **** 		LCD_WR_DATA(0x00);
 4843              		.loc 1 1032 3
 4844 0c1a 0020     		movs	r0, #0
 4845 0c1c FFF7FEFF 		bl	LCD_WR_DATA
1033:hardware/src/lcd.c **** 
1034:hardware/src/lcd.c **** 		LCD_WR_REG(0xC8);
 4846              		.loc 1 1034 3
 4847 0c20 C820     		movs	r0, #200
 4848 0c22 FFF7FEFF 		bl	LCD_WR_REG
1035:hardware/src/lcd.c **** 		LCD_WR_DATA(0x00);
 4849              		.loc 1 1035 3
 4850 0c26 0020     		movs	r0, #0
 4851 0c28 FFF7FEFF 		bl	LCD_WR_DATA
1036:hardware/src/lcd.c **** 		LCD_WR_DATA(0x00);
 4852              		.loc 1 1036 3
 4853 0c2c 0020     		movs	r0, #0
 4854 0c2e FFF7FEFF 		bl	LCD_WR_DATA
1037:hardware/src/lcd.c **** 		LCD_WR_DATA(0x00);
 4855              		.loc 1 1037 3
 4856 0c32 0020     		movs	r0, #0
 4857 0c34 FFF7FEFF 		bl	LCD_WR_DATA
1038:hardware/src/lcd.c **** 		LCD_WR_DATA(0x00);
 4858              		.loc 1 1038 3
 4859 0c38 0020     		movs	r0, #0
 4860 0c3a FFF7FEFF 		bl	LCD_WR_DATA
1039:hardware/src/lcd.c **** 
1040:hardware/src/lcd.c **** 		LCD_WR_REG(0xC9);
 4861              		.loc 1 1040 3
 4862 0c3e C920     		movs	r0, #201
 4863 0c40 FFF7FEFF 		bl	LCD_WR_REG
1041:hardware/src/lcd.c **** 		LCD_WR_DATA(0x00);
 4864              		.loc 1 1041 3
 4865 0c44 0020     		movs	r0, #0
ARM GAS  /tmp/ccRHtd69.s 			page 114


 4866 0c46 FFF7FEFF 		bl	LCD_WR_DATA
1042:hardware/src/lcd.c **** 		LCD_WR_DATA(0x00);
 4867              		.loc 1 1042 3
 4868 0c4a 0020     		movs	r0, #0
 4869 0c4c FFF7FEFF 		bl	LCD_WR_DATA
1043:hardware/src/lcd.c **** 		LCD_WR_DATA(0x00);
 4870              		.loc 1 1043 3
 4871 0c50 0020     		movs	r0, #0
 4872 0c52 FFF7FEFF 		bl	LCD_WR_DATA
1044:hardware/src/lcd.c **** 		LCD_WR_DATA(0x00);
 4873              		.loc 1 1044 3
 4874 0c56 0020     		movs	r0, #0
 4875 0c58 FFF7FEFF 		bl	LCD_WR_DATA
1045:hardware/src/lcd.c **** 		LCD_WR_DATA(0x00);
 4876              		.loc 1 1045 3
 4877 0c5c 0020     		movs	r0, #0
 4878 0c5e FFF7FEFF 		bl	LCD_WR_DATA
1046:hardware/src/lcd.c **** 		LCD_WR_DATA(0x00);
 4879              		.loc 1 1046 3
 4880 0c62 0020     		movs	r0, #0
 4881 0c64 FFF7FEFF 		bl	LCD_WR_DATA
1047:hardware/src/lcd.c **** 		LCD_WR_DATA(0x00);
 4882              		.loc 1 1047 3
 4883 0c68 0020     		movs	r0, #0
 4884 0c6a FFF7FEFF 		bl	LCD_WR_DATA
1048:hardware/src/lcd.c **** 		LCD_WR_DATA(0x00);
 4885              		.loc 1 1048 3
 4886 0c6e 0020     		movs	r0, #0
 4887 0c70 FFF7FEFF 		bl	LCD_WR_DATA
1049:hardware/src/lcd.c **** 		LCD_WR_DATA(0x00);
 4888              		.loc 1 1049 3
 4889 0c74 0020     		movs	r0, #0
 4890 0c76 FFF7FEFF 		bl	LCD_WR_DATA
1050:hardware/src/lcd.c **** 		LCD_WR_DATA(0x00);
 4891              		.loc 1 1050 3
 4892 0c7a 0020     		movs	r0, #0
 4893 0c7c FFF7FEFF 		bl	LCD_WR_DATA
1051:hardware/src/lcd.c **** 		LCD_WR_DATA(0x00);
 4894              		.loc 1 1051 3
 4895 0c80 0020     		movs	r0, #0
 4896 0c82 FFF7FEFF 		bl	LCD_WR_DATA
1052:hardware/src/lcd.c **** 		LCD_WR_DATA(0x00);
 4897              		.loc 1 1052 3
 4898 0c86 0020     		movs	r0, #0
 4899 0c88 FFF7FEFF 		bl	LCD_WR_DATA
1053:hardware/src/lcd.c **** 		LCD_WR_DATA(0x00);
 4900              		.loc 1 1053 3
 4901 0c8c 0020     		movs	r0, #0
 4902 0c8e FFF7FEFF 		bl	LCD_WR_DATA
1054:hardware/src/lcd.c **** 		LCD_WR_DATA(0x00);
 4903              		.loc 1 1054 3
 4904 0c92 0020     		movs	r0, #0
 4905 0c94 FFF7FEFF 		bl	LCD_WR_DATA
1055:hardware/src/lcd.c **** 		LCD_WR_DATA(0x00);
 4906              		.loc 1 1055 3
 4907 0c98 0020     		movs	r0, #0
 4908 0c9a FFF7FEFF 		bl	LCD_WR_DATA
ARM GAS  /tmp/ccRHtd69.s 			page 115


1056:hardware/src/lcd.c **** 		LCD_WR_DATA(0x00);
 4909              		.loc 1 1056 3
 4910 0c9e 0020     		movs	r0, #0
 4911 0ca0 FFF7FEFF 		bl	LCD_WR_DATA
1057:hardware/src/lcd.c **** 
1058:hardware/src/lcd.c **** 		LCD_WR_REG(0xE0);
 4912              		.loc 1 1058 3
 4913 0ca4 E020     		movs	r0, #224
 4914 0ca6 FFF7FEFF 		bl	LCD_WR_REG
1059:hardware/src/lcd.c **** 		LCD_WR_DATA(0x16);
 4915              		.loc 1 1059 3
 4916 0caa 1620     		movs	r0, #22
 4917 0cac FFF7FEFF 		bl	LCD_WR_DATA
1060:hardware/src/lcd.c **** 		LCD_WR_DATA(0x00);
 4918              		.loc 1 1060 3
 4919 0cb0 0020     		movs	r0, #0
 4920 0cb2 FFF7FEFF 		bl	LCD_WR_DATA
1061:hardware/src/lcd.c **** 		LCD_WR_DATA(0x1C);
 4921              		.loc 1 1061 3
 4922 0cb6 1C20     		movs	r0, #28
 4923 0cb8 FFF7FEFF 		bl	LCD_WR_DATA
1062:hardware/src/lcd.c **** 		LCD_WR_DATA(0x00);
 4924              		.loc 1 1062 3
 4925 0cbc 0020     		movs	r0, #0
 4926 0cbe FFF7FEFF 		bl	LCD_WR_DATA
1063:hardware/src/lcd.c **** 		LCD_WR_DATA(0x21);
 4927              		.loc 1 1063 3
 4928 0cc2 2120     		movs	r0, #33
 4929 0cc4 FFF7FEFF 		bl	LCD_WR_DATA
1064:hardware/src/lcd.c **** 		LCD_WR_DATA(0x00);
 4930              		.loc 1 1064 3
 4931 0cc8 0020     		movs	r0, #0
 4932 0cca FFF7FEFF 		bl	LCD_WR_DATA
1065:hardware/src/lcd.c **** 		LCD_WR_DATA(0x36);
 4933              		.loc 1 1065 3
 4934 0cce 3620     		movs	r0, #54
 4935 0cd0 FFF7FEFF 		bl	LCD_WR_DATA
1066:hardware/src/lcd.c **** 		LCD_WR_DATA(0x00);
 4936              		.loc 1 1066 3
 4937 0cd4 0020     		movs	r0, #0
 4938 0cd6 FFF7FEFF 		bl	LCD_WR_DATA
1067:hardware/src/lcd.c **** 		LCD_WR_DATA(0x46);
 4939              		.loc 1 1067 3
 4940 0cda 4620     		movs	r0, #70
 4941 0cdc FFF7FEFF 		bl	LCD_WR_DATA
1068:hardware/src/lcd.c **** 		LCD_WR_DATA(0x00);
 4942              		.loc 1 1068 3
 4943 0ce0 0020     		movs	r0, #0
 4944 0ce2 FFF7FEFF 		bl	LCD_WR_DATA
1069:hardware/src/lcd.c **** 		LCD_WR_DATA(0x52);
 4945              		.loc 1 1069 3
 4946 0ce6 5220     		movs	r0, #82
 4947 0ce8 FFF7FEFF 		bl	LCD_WR_DATA
1070:hardware/src/lcd.c **** 		LCD_WR_DATA(0x00);
 4948              		.loc 1 1070 3
 4949 0cec 0020     		movs	r0, #0
 4950 0cee FFF7FEFF 		bl	LCD_WR_DATA
ARM GAS  /tmp/ccRHtd69.s 			page 116


1071:hardware/src/lcd.c **** 		LCD_WR_DATA(0x64);
 4951              		.loc 1 1071 3
 4952 0cf2 6420     		movs	r0, #100
 4953 0cf4 FFF7FEFF 		bl	LCD_WR_DATA
1072:hardware/src/lcd.c **** 		LCD_WR_DATA(0x00);
 4954              		.loc 1 1072 3
 4955 0cf8 0020     		movs	r0, #0
 4956 0cfa FFF7FEFF 		bl	LCD_WR_DATA
1073:hardware/src/lcd.c **** 		LCD_WR_DATA(0x7A);
 4957              		.loc 1 1073 3
 4958 0cfe 7A20     		movs	r0, #122
 4959 0d00 FFF7FEFF 		bl	LCD_WR_DATA
1074:hardware/src/lcd.c **** 		LCD_WR_DATA(0x00);
 4960              		.loc 1 1074 3
 4961 0d04 0020     		movs	r0, #0
 4962 0d06 FFF7FEFF 		bl	LCD_WR_DATA
1075:hardware/src/lcd.c **** 		LCD_WR_DATA(0x8B);
 4963              		.loc 1 1075 3
 4964 0d0a 8B20     		movs	r0, #139
 4965 0d0c FFF7FEFF 		bl	LCD_WR_DATA
1076:hardware/src/lcd.c **** 		LCD_WR_DATA(0x00);
 4966              		.loc 1 1076 3
 4967 0d10 0020     		movs	r0, #0
 4968 0d12 FFF7FEFF 		bl	LCD_WR_DATA
1077:hardware/src/lcd.c **** 		LCD_WR_DATA(0x99);
 4969              		.loc 1 1077 3
 4970 0d16 9920     		movs	r0, #153
 4971 0d18 FFF7FEFF 		bl	LCD_WR_DATA
1078:hardware/src/lcd.c **** 		LCD_WR_DATA(0x00);
 4972              		.loc 1 1078 3
 4973 0d1c 0020     		movs	r0, #0
 4974 0d1e FFF7FEFF 		bl	LCD_WR_DATA
1079:hardware/src/lcd.c **** 		LCD_WR_DATA(0xA8);
 4975              		.loc 1 1079 3
 4976 0d22 A820     		movs	r0, #168
 4977 0d24 FFF7FEFF 		bl	LCD_WR_DATA
1080:hardware/src/lcd.c **** 		LCD_WR_DATA(0x00);
 4978              		.loc 1 1080 3
 4979 0d28 0020     		movs	r0, #0
 4980 0d2a FFF7FEFF 		bl	LCD_WR_DATA
1081:hardware/src/lcd.c **** 		LCD_WR_DATA(0xB9);
 4981              		.loc 1 1081 3
 4982 0d2e B920     		movs	r0, #185
 4983 0d30 FFF7FEFF 		bl	LCD_WR_DATA
1082:hardware/src/lcd.c **** 		LCD_WR_DATA(0x00);
 4984              		.loc 1 1082 3
 4985 0d34 0020     		movs	r0, #0
 4986 0d36 FFF7FEFF 		bl	LCD_WR_DATA
1083:hardware/src/lcd.c **** 		LCD_WR_DATA(0xC4);
 4987              		.loc 1 1083 3
 4988 0d3a C420     		movs	r0, #196
 4989 0d3c FFF7FEFF 		bl	LCD_WR_DATA
1084:hardware/src/lcd.c **** 		LCD_WR_DATA(0x00);
 4990              		.loc 1 1084 3
 4991 0d40 0020     		movs	r0, #0
 4992 0d42 FFF7FEFF 		bl	LCD_WR_DATA
1085:hardware/src/lcd.c **** 		LCD_WR_DATA(0xCA);
ARM GAS  /tmp/ccRHtd69.s 			page 117


 4993              		.loc 1 1085 3
 4994 0d46 CA20     		movs	r0, #202
 4995 0d48 FFF7FEFF 		bl	LCD_WR_DATA
1086:hardware/src/lcd.c **** 		LCD_WR_DATA(0x00);
 4996              		.loc 1 1086 3
 4997 0d4c 0020     		movs	r0, #0
 4998 0d4e FFF7FEFF 		bl	LCD_WR_DATA
1087:hardware/src/lcd.c **** 		LCD_WR_DATA(0xD2);
 4999              		.loc 1 1087 3
 5000 0d52 D220     		movs	r0, #210
 5001 0d54 FFF7FEFF 		bl	LCD_WR_DATA
1088:hardware/src/lcd.c **** 		LCD_WR_DATA(0x00);
 5002              		.loc 1 1088 3
 5003 0d58 0020     		movs	r0, #0
 5004 0d5a FFF7FEFF 		bl	LCD_WR_DATA
1089:hardware/src/lcd.c **** 		LCD_WR_DATA(0xD9);
 5005              		.loc 1 1089 3
 5006 0d5e D920     		movs	r0, #217
 5007 0d60 FFF7FEFF 		bl	LCD_WR_DATA
1090:hardware/src/lcd.c **** 		LCD_WR_DATA(0x00);
 5008              		.loc 1 1090 3
 5009 0d64 0020     		movs	r0, #0
 5010 0d66 FFF7FEFF 		bl	LCD_WR_DATA
1091:hardware/src/lcd.c **** 		LCD_WR_DATA(0xE0);
 5011              		.loc 1 1091 3
 5012 0d6a E020     		movs	r0, #224
 5013 0d6c FFF7FEFF 		bl	LCD_WR_DATA
1092:hardware/src/lcd.c **** 		LCD_WR_DATA(0x00);
 5014              		.loc 1 1092 3
 5015 0d70 0020     		movs	r0, #0
 5016 0d72 FFF7FEFF 		bl	LCD_WR_DATA
1093:hardware/src/lcd.c **** 		LCD_WR_DATA(0xF3);
 5017              		.loc 1 1093 3
 5018 0d76 F320     		movs	r0, #243
 5019 0d78 FFF7FEFF 		bl	LCD_WR_DATA
1094:hardware/src/lcd.c **** 		LCD_WR_DATA(0x00);
 5020              		.loc 1 1094 3
 5021 0d7c 0020     		movs	r0, #0
 5022 0d7e FFF7FEFF 		bl	LCD_WR_DATA
1095:hardware/src/lcd.c **** 
1096:hardware/src/lcd.c **** 		LCD_WR_REG(0xE1);
 5023              		.loc 1 1096 3
 5024 0d82 E120     		movs	r0, #225
 5025 0d84 FFF7FEFF 		bl	LCD_WR_REG
1097:hardware/src/lcd.c **** 		LCD_WR_DATA(0x16);
 5026              		.loc 1 1097 3
 5027 0d88 1620     		movs	r0, #22
 5028 0d8a FFF7FEFF 		bl	LCD_WR_DATA
1098:hardware/src/lcd.c **** 		LCD_WR_DATA(0x00);
 5029              		.loc 1 1098 3
 5030 0d8e 0020     		movs	r0, #0
 5031 0d90 FFF7FEFF 		bl	LCD_WR_DATA
1099:hardware/src/lcd.c **** 		LCD_WR_DATA(0x1C);
 5032              		.loc 1 1099 3
 5033 0d94 1C20     		movs	r0, #28
 5034 0d96 FFF7FEFF 		bl	LCD_WR_DATA
1100:hardware/src/lcd.c **** 		LCD_WR_DATA(0x00);
ARM GAS  /tmp/ccRHtd69.s 			page 118


 5035              		.loc 1 1100 3
 5036 0d9a 0020     		movs	r0, #0
 5037 0d9c FFF7FEFF 		bl	LCD_WR_DATA
1101:hardware/src/lcd.c **** 		LCD_WR_DATA(0x22);
 5038              		.loc 1 1101 3
 5039 0da0 2220     		movs	r0, #34
 5040 0da2 FFF7FEFF 		bl	LCD_WR_DATA
1102:hardware/src/lcd.c **** 		LCD_WR_DATA(0x00);
 5041              		.loc 1 1102 3
 5042 0da6 0020     		movs	r0, #0
 5043 0da8 FFF7FEFF 		bl	LCD_WR_DATA
1103:hardware/src/lcd.c **** 		LCD_WR_DATA(0x36);
 5044              		.loc 1 1103 3
 5045 0dac 3620     		movs	r0, #54
 5046 0dae FFF7FEFF 		bl	LCD_WR_DATA
1104:hardware/src/lcd.c **** 		LCD_WR_DATA(0x00);
 5047              		.loc 1 1104 3
 5048 0db2 0020     		movs	r0, #0
 5049 0db4 FFF7FEFF 		bl	LCD_WR_DATA
1105:hardware/src/lcd.c **** 		LCD_WR_DATA(0x45);
 5050              		.loc 1 1105 3
 5051 0db8 4520     		movs	r0, #69
 5052 0dba FFF7FEFF 		bl	LCD_WR_DATA
1106:hardware/src/lcd.c **** 		LCD_WR_DATA(0x00);
 5053              		.loc 1 1106 3
 5054 0dbe 0020     		movs	r0, #0
 5055 0dc0 FFF7FEFF 		bl	LCD_WR_DATA
1107:hardware/src/lcd.c **** 		LCD_WR_DATA(0x52);
 5056              		.loc 1 1107 3
 5057 0dc4 5220     		movs	r0, #82
 5058 0dc6 FFF7FEFF 		bl	LCD_WR_DATA
1108:hardware/src/lcd.c **** 		LCD_WR_DATA(0x00);
 5059              		.loc 1 1108 3
 5060 0dca 0020     		movs	r0, #0
 5061 0dcc FFF7FEFF 		bl	LCD_WR_DATA
1109:hardware/src/lcd.c **** 		LCD_WR_DATA(0x64);
 5062              		.loc 1 1109 3
 5063 0dd0 6420     		movs	r0, #100
 5064 0dd2 FFF7FEFF 		bl	LCD_WR_DATA
1110:hardware/src/lcd.c **** 		LCD_WR_DATA(0x00);
 5065              		.loc 1 1110 3
 5066 0dd6 0020     		movs	r0, #0
 5067 0dd8 FFF7FEFF 		bl	LCD_WR_DATA
1111:hardware/src/lcd.c **** 		LCD_WR_DATA(0x7A);
 5068              		.loc 1 1111 3
 5069 0ddc 7A20     		movs	r0, #122
 5070 0dde FFF7FEFF 		bl	LCD_WR_DATA
1112:hardware/src/lcd.c **** 		LCD_WR_DATA(0x00);
 5071              		.loc 1 1112 3
 5072 0de2 0020     		movs	r0, #0
 5073 0de4 FFF7FEFF 		bl	LCD_WR_DATA
1113:hardware/src/lcd.c **** 		LCD_WR_DATA(0x8B);
 5074              		.loc 1 1113 3
 5075 0de8 8B20     		movs	r0, #139
 5076 0dea FFF7FEFF 		bl	LCD_WR_DATA
1114:hardware/src/lcd.c **** 		LCD_WR_DATA(0x00);
 5077              		.loc 1 1114 3
ARM GAS  /tmp/ccRHtd69.s 			page 119


 5078 0dee 0020     		movs	r0, #0
 5079 0df0 FFF7FEFF 		bl	LCD_WR_DATA
1115:hardware/src/lcd.c **** 		LCD_WR_DATA(0x99);
 5080              		.loc 1 1115 3
 5081 0df4 9920     		movs	r0, #153
 5082 0df6 FFF7FEFF 		bl	LCD_WR_DATA
1116:hardware/src/lcd.c **** 		LCD_WR_DATA(0x00);
 5083              		.loc 1 1116 3
 5084 0dfa 0020     		movs	r0, #0
 5085 0dfc FFF7FEFF 		bl	LCD_WR_DATA
1117:hardware/src/lcd.c **** 		LCD_WR_DATA(0xA8);
 5086              		.loc 1 1117 3
 5087 0e00 A820     		movs	r0, #168
 5088 0e02 FFF7FEFF 		bl	LCD_WR_DATA
1118:hardware/src/lcd.c **** 		LCD_WR_DATA(0x00);
 5089              		.loc 1 1118 3
 5090 0e06 0020     		movs	r0, #0
 5091 0e08 FFF7FEFF 		bl	LCD_WR_DATA
1119:hardware/src/lcd.c **** 		LCD_WR_DATA(0xB9);
 5092              		.loc 1 1119 3
 5093 0e0c B920     		movs	r0, #185
 5094 0e0e FFF7FEFF 		bl	LCD_WR_DATA
1120:hardware/src/lcd.c **** 		LCD_WR_DATA(0x00);
 5095              		.loc 1 1120 3
 5096 0e12 0020     		movs	r0, #0
 5097 0e14 FFF7FEFF 		bl	LCD_WR_DATA
1121:hardware/src/lcd.c **** 		LCD_WR_DATA(0xC4);
 5098              		.loc 1 1121 3
 5099 0e18 C420     		movs	r0, #196
 5100 0e1a FFF7FEFF 		bl	LCD_WR_DATA
1122:hardware/src/lcd.c **** 		LCD_WR_DATA(0x00);
 5101              		.loc 1 1122 3
 5102 0e1e 0020     		movs	r0, #0
 5103 0e20 FFF7FEFF 		bl	LCD_WR_DATA
1123:hardware/src/lcd.c **** 		LCD_WR_DATA(0xCA);
 5104              		.loc 1 1123 3
 5105 0e24 CA20     		movs	r0, #202
 5106 0e26 FFF7FEFF 		bl	LCD_WR_DATA
1124:hardware/src/lcd.c **** 		LCD_WR_DATA(0x00);
 5107              		.loc 1 1124 3
 5108 0e2a 0020     		movs	r0, #0
 5109 0e2c FFF7FEFF 		bl	LCD_WR_DATA
1125:hardware/src/lcd.c **** 		LCD_WR_DATA(0xD2);
 5110              		.loc 1 1125 3
 5111 0e30 D220     		movs	r0, #210
 5112 0e32 FFF7FEFF 		bl	LCD_WR_DATA
1126:hardware/src/lcd.c **** 		LCD_WR_DATA(0x00);
 5113              		.loc 1 1126 3
 5114 0e36 0020     		movs	r0, #0
 5115 0e38 FFF7FEFF 		bl	LCD_WR_DATA
1127:hardware/src/lcd.c **** 		LCD_WR_DATA(0xD8);
 5116              		.loc 1 1127 3
 5117 0e3c D820     		movs	r0, #216
 5118 0e3e FFF7FEFF 		bl	LCD_WR_DATA
1128:hardware/src/lcd.c **** 		LCD_WR_DATA(0x00);
 5119              		.loc 1 1128 3
 5120 0e42 0020     		movs	r0, #0
ARM GAS  /tmp/ccRHtd69.s 			page 120


 5121 0e44 FFF7FEFF 		bl	LCD_WR_DATA
1129:hardware/src/lcd.c **** 		LCD_WR_DATA(0xE0);
 5122              		.loc 1 1129 3
 5123 0e48 E020     		movs	r0, #224
 5124 0e4a FFF7FEFF 		bl	LCD_WR_DATA
1130:hardware/src/lcd.c **** 		LCD_WR_DATA(0x00);
 5125              		.loc 1 1130 3
 5126 0e4e 0020     		movs	r0, #0
 5127 0e50 FFF7FEFF 		bl	LCD_WR_DATA
1131:hardware/src/lcd.c **** 		LCD_WR_DATA(0xF3);
 5128              		.loc 1 1131 3
 5129 0e54 F320     		movs	r0, #243
 5130 0e56 FFF7FEFF 		bl	LCD_WR_DATA
1132:hardware/src/lcd.c **** 		LCD_WR_DATA(0x00);
 5131              		.loc 1 1132 3
 5132 0e5a 0020     		movs	r0, #0
 5133 0e5c FFF7FEFF 		bl	LCD_WR_DATA
1133:hardware/src/lcd.c **** 
1134:hardware/src/lcd.c **** 		LCD_WR_REG(0xE2);
 5134              		.loc 1 1134 3
 5135 0e60 E220     		movs	r0, #226
 5136 0e62 FFF7FEFF 		bl	LCD_WR_REG
1135:hardware/src/lcd.c **** 		LCD_WR_DATA(0x05);
 5137              		.loc 1 1135 3
 5138 0e66 0520     		movs	r0, #5
 5139 0e68 FFF7FEFF 		bl	LCD_WR_DATA
1136:hardware/src/lcd.c **** 		LCD_WR_DATA(0x00);
 5140              		.loc 1 1136 3
 5141 0e6c 0020     		movs	r0, #0
 5142 0e6e FFF7FEFF 		bl	LCD_WR_DATA
1137:hardware/src/lcd.c **** 		LCD_WR_DATA(0x0B);
 5143              		.loc 1 1137 3
 5144 0e72 0B20     		movs	r0, #11
 5145 0e74 FFF7FEFF 		bl	LCD_WR_DATA
1138:hardware/src/lcd.c **** 		LCD_WR_DATA(0x00);
 5146              		.loc 1 1138 3
 5147 0e78 0020     		movs	r0, #0
 5148 0e7a FFF7FEFF 		bl	LCD_WR_DATA
1139:hardware/src/lcd.c **** 		LCD_WR_DATA(0x1B);
 5149              		.loc 1 1139 3
 5150 0e7e 1B20     		movs	r0, #27
 5151 0e80 FFF7FEFF 		bl	LCD_WR_DATA
1140:hardware/src/lcd.c **** 		LCD_WR_DATA(0x00);
 5152              		.loc 1 1140 3
 5153 0e84 0020     		movs	r0, #0
 5154 0e86 FFF7FEFF 		bl	LCD_WR_DATA
1141:hardware/src/lcd.c **** 		LCD_WR_DATA(0x34);
 5155              		.loc 1 1141 3
 5156 0e8a 3420     		movs	r0, #52
 5157 0e8c FFF7FEFF 		bl	LCD_WR_DATA
1142:hardware/src/lcd.c **** 		LCD_WR_DATA(0x00);
 5158              		.loc 1 1142 3
 5159 0e90 0020     		movs	r0, #0
 5160 0e92 FFF7FEFF 		bl	LCD_WR_DATA
1143:hardware/src/lcd.c **** 		LCD_WR_DATA(0x44);
 5161              		.loc 1 1143 3
 5162 0e96 4420     		movs	r0, #68
ARM GAS  /tmp/ccRHtd69.s 			page 121


 5163 0e98 FFF7FEFF 		bl	LCD_WR_DATA
1144:hardware/src/lcd.c **** 		LCD_WR_DATA(0x00);
 5164              		.loc 1 1144 3
 5165 0e9c 0020     		movs	r0, #0
 5166 0e9e FFF7FEFF 		bl	LCD_WR_DATA
1145:hardware/src/lcd.c **** 		LCD_WR_DATA(0x4F);
 5167              		.loc 1 1145 3
 5168 0ea2 4F20     		movs	r0, #79
 5169 0ea4 FFF7FEFF 		bl	LCD_WR_DATA
1146:hardware/src/lcd.c **** 		LCD_WR_DATA(0x00);
 5170              		.loc 1 1146 3
 5171 0ea8 0020     		movs	r0, #0
 5172 0eaa FFF7FEFF 		bl	LCD_WR_DATA
1147:hardware/src/lcd.c **** 		LCD_WR_DATA(0x61);
 5173              		.loc 1 1147 3
 5174 0eae 6120     		movs	r0, #97
 5175 0eb0 FFF7FEFF 		bl	LCD_WR_DATA
1148:hardware/src/lcd.c **** 		LCD_WR_DATA(0x00);
 5176              		.loc 1 1148 3
 5177 0eb4 0020     		movs	r0, #0
 5178 0eb6 FFF7FEFF 		bl	LCD_WR_DATA
1149:hardware/src/lcd.c **** 		LCD_WR_DATA(0x79);
 5179              		.loc 1 1149 3
 5180 0eba 7920     		movs	r0, #121
 5181 0ebc FFF7FEFF 		bl	LCD_WR_DATA
1150:hardware/src/lcd.c **** 		LCD_WR_DATA(0x00);
 5182              		.loc 1 1150 3
 5183 0ec0 0020     		movs	r0, #0
 5184 0ec2 FFF7FEFF 		bl	LCD_WR_DATA
1151:hardware/src/lcd.c **** 		LCD_WR_DATA(0x88);
 5185              		.loc 1 1151 3
 5186 0ec6 8820     		movs	r0, #136
 5187 0ec8 FFF7FEFF 		bl	LCD_WR_DATA
1152:hardware/src/lcd.c **** 		LCD_WR_DATA(0x00);
 5188              		.loc 1 1152 3
 5189 0ecc 0020     		movs	r0, #0
 5190 0ece FFF7FEFF 		bl	LCD_WR_DATA
1153:hardware/src/lcd.c **** 		LCD_WR_DATA(0x97);
 5191              		.loc 1 1153 3
 5192 0ed2 9720     		movs	r0, #151
 5193 0ed4 FFF7FEFF 		bl	LCD_WR_DATA
1154:hardware/src/lcd.c **** 		LCD_WR_DATA(0x00);
 5194              		.loc 1 1154 3
 5195 0ed8 0020     		movs	r0, #0
 5196 0eda FFF7FEFF 		bl	LCD_WR_DATA
1155:hardware/src/lcd.c **** 		LCD_WR_DATA(0xA6);
 5197              		.loc 1 1155 3
 5198 0ede A620     		movs	r0, #166
 5199 0ee0 FFF7FEFF 		bl	LCD_WR_DATA
1156:hardware/src/lcd.c **** 		LCD_WR_DATA(0x00);
 5200              		.loc 1 1156 3
 5201 0ee4 0020     		movs	r0, #0
 5202 0ee6 FFF7FEFF 		bl	LCD_WR_DATA
1157:hardware/src/lcd.c **** 		LCD_WR_DATA(0xB7);
 5203              		.loc 1 1157 3
 5204 0eea B720     		movs	r0, #183
 5205 0eec FFF7FEFF 		bl	LCD_WR_DATA
ARM GAS  /tmp/ccRHtd69.s 			page 122


1158:hardware/src/lcd.c **** 		LCD_WR_DATA(0x00);
 5206              		.loc 1 1158 3
 5207 0ef0 0020     		movs	r0, #0
 5208 0ef2 FFF7FEFF 		bl	LCD_WR_DATA
1159:hardware/src/lcd.c **** 		LCD_WR_DATA(0xC2);
 5209              		.loc 1 1159 3
 5210 0ef6 C220     		movs	r0, #194
 5211 0ef8 FFF7FEFF 		bl	LCD_WR_DATA
1160:hardware/src/lcd.c **** 		LCD_WR_DATA(0x00);
 5212              		.loc 1 1160 3
 5213 0efc 0020     		movs	r0, #0
 5214 0efe FFF7FEFF 		bl	LCD_WR_DATA
1161:hardware/src/lcd.c **** 		LCD_WR_DATA(0xC7);
 5215              		.loc 1 1161 3
 5216 0f02 C720     		movs	r0, #199
 5217 0f04 FFF7FEFF 		bl	LCD_WR_DATA
1162:hardware/src/lcd.c **** 		LCD_WR_DATA(0x00);
 5218              		.loc 1 1162 3
 5219 0f08 0020     		movs	r0, #0
 5220 0f0a FFF7FEFF 		bl	LCD_WR_DATA
1163:hardware/src/lcd.c **** 		LCD_WR_DATA(0xD1);
 5221              		.loc 1 1163 3
 5222 0f0e D120     		movs	r0, #209
 5223 0f10 FFF7FEFF 		bl	LCD_WR_DATA
1164:hardware/src/lcd.c **** 		LCD_WR_DATA(0x00);
 5224              		.loc 1 1164 3
 5225 0f14 0020     		movs	r0, #0
 5226 0f16 FFF7FEFF 		bl	LCD_WR_DATA
1165:hardware/src/lcd.c **** 		LCD_WR_DATA(0xD6);
 5227              		.loc 1 1165 3
 5228 0f1a D620     		movs	r0, #214
 5229 0f1c FFF7FEFF 		bl	LCD_WR_DATA
1166:hardware/src/lcd.c **** 		LCD_WR_DATA(0x00);
 5230              		.loc 1 1166 3
 5231 0f20 0020     		movs	r0, #0
 5232 0f22 FFF7FEFF 		bl	LCD_WR_DATA
1167:hardware/src/lcd.c **** 		LCD_WR_DATA(0xDD);
 5233              		.loc 1 1167 3
 5234 0f26 DD20     		movs	r0, #221
 5235 0f28 FFF7FEFF 		bl	LCD_WR_DATA
1168:hardware/src/lcd.c **** 		LCD_WR_DATA(0x00);
 5236              		.loc 1 1168 3
 5237 0f2c 0020     		movs	r0, #0
 5238 0f2e FFF7FEFF 		bl	LCD_WR_DATA
1169:hardware/src/lcd.c **** 		LCD_WR_DATA(0xF3);
 5239              		.loc 1 1169 3
 5240 0f32 F320     		movs	r0, #243
 5241 0f34 FFF7FEFF 		bl	LCD_WR_DATA
1170:hardware/src/lcd.c **** 		LCD_WR_DATA(0x00);
 5242              		.loc 1 1170 3
 5243 0f38 0020     		movs	r0, #0
 5244 0f3a FFF7FEFF 		bl	LCD_WR_DATA
1171:hardware/src/lcd.c **** 		LCD_WR_REG(0xE3);
 5245              		.loc 1 1171 3
 5246 0f3e E320     		movs	r0, #227
 5247 0f40 FFF7FEFF 		bl	LCD_WR_REG
1172:hardware/src/lcd.c **** 		LCD_WR_DATA(0x05);
ARM GAS  /tmp/ccRHtd69.s 			page 123


 5248              		.loc 1 1172 3
 5249 0f44 0520     		movs	r0, #5
 5250 0f46 FFF7FEFF 		bl	LCD_WR_DATA
1173:hardware/src/lcd.c **** 		LCD_WR_DATA(0x00);
 5251              		.loc 1 1173 3
 5252 0f4a 0020     		movs	r0, #0
 5253 0f4c FFF7FEFF 		bl	LCD_WR_DATA
1174:hardware/src/lcd.c **** 		LCD_WR_DATA(0xA);
 5254              		.loc 1 1174 3
 5255 0f50 0A20     		movs	r0, #10
 5256 0f52 FFF7FEFF 		bl	LCD_WR_DATA
1175:hardware/src/lcd.c **** 		LCD_WR_DATA(0x00);
 5257              		.loc 1 1175 3
 5258 0f56 0020     		movs	r0, #0
 5259 0f58 FFF7FEFF 		bl	LCD_WR_DATA
1176:hardware/src/lcd.c **** 		LCD_WR_DATA(0x1C);
 5260              		.loc 1 1176 3
 5261 0f5c 1C20     		movs	r0, #28
 5262 0f5e FFF7FEFF 		bl	LCD_WR_DATA
1177:hardware/src/lcd.c **** 		LCD_WR_DATA(0x00);
 5263              		.loc 1 1177 3
 5264 0f62 0020     		movs	r0, #0
 5265 0f64 FFF7FEFF 		bl	LCD_WR_DATA
1178:hardware/src/lcd.c **** 		LCD_WR_DATA(0x33);
 5266              		.loc 1 1178 3
 5267 0f68 3320     		movs	r0, #51
 5268 0f6a FFF7FEFF 		bl	LCD_WR_DATA
1179:hardware/src/lcd.c **** 		LCD_WR_DATA(0x00);
 5269              		.loc 1 1179 3
 5270 0f6e 0020     		movs	r0, #0
 5271 0f70 FFF7FEFF 		bl	LCD_WR_DATA
1180:hardware/src/lcd.c **** 		LCD_WR_DATA(0x44);
 5272              		.loc 1 1180 3
 5273 0f74 4420     		movs	r0, #68
 5274 0f76 FFF7FEFF 		bl	LCD_WR_DATA
1181:hardware/src/lcd.c **** 		LCD_WR_DATA(0x00);
 5275              		.loc 1 1181 3
 5276 0f7a 0020     		movs	r0, #0
 5277 0f7c FFF7FEFF 		bl	LCD_WR_DATA
1182:hardware/src/lcd.c **** 		LCD_WR_DATA(0x50);
 5278              		.loc 1 1182 3
 5279 0f80 5020     		movs	r0, #80
 5280 0f82 FFF7FEFF 		bl	LCD_WR_DATA
1183:hardware/src/lcd.c **** 		LCD_WR_DATA(0x00);
 5281              		.loc 1 1183 3
 5282 0f86 0020     		movs	r0, #0
 5283 0f88 FFF7FEFF 		bl	LCD_WR_DATA
1184:hardware/src/lcd.c **** 		LCD_WR_DATA(0x62);
 5284              		.loc 1 1184 3
 5285 0f8c 6220     		movs	r0, #98
 5286 0f8e FFF7FEFF 		bl	LCD_WR_DATA
1185:hardware/src/lcd.c **** 		LCD_WR_DATA(0x00);
 5287              		.loc 1 1185 3
 5288 0f92 0020     		movs	r0, #0
 5289 0f94 FFF7FEFF 		bl	LCD_WR_DATA
1186:hardware/src/lcd.c **** 		LCD_WR_DATA(0x78);
 5290              		.loc 1 1186 3
ARM GAS  /tmp/ccRHtd69.s 			page 124


 5291 0f98 7820     		movs	r0, #120
 5292 0f9a FFF7FEFF 		bl	LCD_WR_DATA
1187:hardware/src/lcd.c **** 		LCD_WR_DATA(0x00);
 5293              		.loc 1 1187 3
 5294 0f9e 0020     		movs	r0, #0
 5295 0fa0 FFF7FEFF 		bl	LCD_WR_DATA
1188:hardware/src/lcd.c **** 		LCD_WR_DATA(0x88);
 5296              		.loc 1 1188 3
 5297 0fa4 8820     		movs	r0, #136
 5298 0fa6 FFF7FEFF 		bl	LCD_WR_DATA
1189:hardware/src/lcd.c **** 		LCD_WR_DATA(0x00);
 5299              		.loc 1 1189 3
 5300 0faa 0020     		movs	r0, #0
 5301 0fac FFF7FEFF 		bl	LCD_WR_DATA
1190:hardware/src/lcd.c **** 		LCD_WR_DATA(0x97);
 5302              		.loc 1 1190 3
 5303 0fb0 9720     		movs	r0, #151
 5304 0fb2 FFF7FEFF 		bl	LCD_WR_DATA
1191:hardware/src/lcd.c **** 		LCD_WR_DATA(0x00);
 5305              		.loc 1 1191 3
 5306 0fb6 0020     		movs	r0, #0
 5307 0fb8 FFF7FEFF 		bl	LCD_WR_DATA
1192:hardware/src/lcd.c **** 		LCD_WR_DATA(0xA6);
 5308              		.loc 1 1192 3
 5309 0fbc A620     		movs	r0, #166
 5310 0fbe FFF7FEFF 		bl	LCD_WR_DATA
1193:hardware/src/lcd.c **** 		LCD_WR_DATA(0x00);
 5311              		.loc 1 1193 3
 5312 0fc2 0020     		movs	r0, #0
 5313 0fc4 FFF7FEFF 		bl	LCD_WR_DATA
1194:hardware/src/lcd.c **** 		LCD_WR_DATA(0xB7);
 5314              		.loc 1 1194 3
 5315 0fc8 B720     		movs	r0, #183
 5316 0fca FFF7FEFF 		bl	LCD_WR_DATA
1195:hardware/src/lcd.c **** 		LCD_WR_DATA(0x00);
 5317              		.loc 1 1195 3
 5318 0fce 0020     		movs	r0, #0
 5319 0fd0 FFF7FEFF 		bl	LCD_WR_DATA
1196:hardware/src/lcd.c **** 		LCD_WR_DATA(0xC2);
 5320              		.loc 1 1196 3
 5321 0fd4 C220     		movs	r0, #194
 5322 0fd6 FFF7FEFF 		bl	LCD_WR_DATA
1197:hardware/src/lcd.c **** 		LCD_WR_DATA(0x00);
 5323              		.loc 1 1197 3
 5324 0fda 0020     		movs	r0, #0
 5325 0fdc FFF7FEFF 		bl	LCD_WR_DATA
1198:hardware/src/lcd.c **** 		LCD_WR_DATA(0xC7);
 5326              		.loc 1 1198 3
 5327 0fe0 C720     		movs	r0, #199
 5328 0fe2 FFF7FEFF 		bl	LCD_WR_DATA
1199:hardware/src/lcd.c **** 		LCD_WR_DATA(0x00);
 5329              		.loc 1 1199 3
 5330 0fe6 0020     		movs	r0, #0
 5331 0fe8 FFF7FEFF 		bl	LCD_WR_DATA
1200:hardware/src/lcd.c **** 		LCD_WR_DATA(0xD1);
 5332              		.loc 1 1200 3
 5333 0fec D120     		movs	r0, #209
ARM GAS  /tmp/ccRHtd69.s 			page 125


 5334 0fee FFF7FEFF 		bl	LCD_WR_DATA
1201:hardware/src/lcd.c **** 		LCD_WR_DATA(0x00);
 5335              		.loc 1 1201 3
 5336 0ff2 0020     		movs	r0, #0
 5337 0ff4 FFF7FEFF 		bl	LCD_WR_DATA
1202:hardware/src/lcd.c **** 		LCD_WR_DATA(0xD5);
 5338              		.loc 1 1202 3
 5339 0ff8 D520     		movs	r0, #213
 5340 0ffa FFF7FEFF 		bl	LCD_WR_DATA
1203:hardware/src/lcd.c **** 		LCD_WR_DATA(0x00);
 5341              		.loc 1 1203 3
 5342 0ffe 0020     		movs	r0, #0
 5343 1000 FFF7FEFF 		bl	LCD_WR_DATA
1204:hardware/src/lcd.c **** 		LCD_WR_DATA(0xDD);
 5344              		.loc 1 1204 3
 5345 1004 DD20     		movs	r0, #221
 5346 1006 FFF7FEFF 		bl	LCD_WR_DATA
1205:hardware/src/lcd.c **** 		LCD_WR_DATA(0x00);
 5347              		.loc 1 1205 3
 5348 100a 0020     		movs	r0, #0
 5349 100c FFF7FEFF 		bl	LCD_WR_DATA
1206:hardware/src/lcd.c **** 		LCD_WR_DATA(0xF3);
 5350              		.loc 1 1206 3
 5351 1010 F320     		movs	r0, #243
 5352 1012 FFF7FEFF 		bl	LCD_WR_DATA
1207:hardware/src/lcd.c **** 		LCD_WR_DATA(0x00);
 5353              		.loc 1 1207 3
 5354 1016 0020     		movs	r0, #0
 5355 1018 FFF7FEFF 		bl	LCD_WR_DATA
1208:hardware/src/lcd.c **** 
1209:hardware/src/lcd.c **** 		LCD_WR_REG(0xE4);
 5356              		.loc 1 1209 3
 5357 101c E420     		movs	r0, #228
 5358 101e FFF7FEFF 		bl	LCD_WR_REG
1210:hardware/src/lcd.c **** 		LCD_WR_DATA(0x01);
 5359              		.loc 1 1210 3
 5360 1022 0120     		movs	r0, #1
 5361 1024 FFF7FEFF 		bl	LCD_WR_DATA
1211:hardware/src/lcd.c **** 		LCD_WR_DATA(0x00);
 5362              		.loc 1 1211 3
 5363 1028 0020     		movs	r0, #0
 5364 102a FFF7FEFF 		bl	LCD_WR_DATA
1212:hardware/src/lcd.c **** 		LCD_WR_DATA(0x01);
 5365              		.loc 1 1212 3
 5366 102e 0120     		movs	r0, #1
 5367 1030 FFF7FEFF 		bl	LCD_WR_DATA
1213:hardware/src/lcd.c **** 		LCD_WR_DATA(0x00);
 5368              		.loc 1 1213 3
 5369 1034 0020     		movs	r0, #0
 5370 1036 FFF7FEFF 		bl	LCD_WR_DATA
1214:hardware/src/lcd.c **** 		LCD_WR_DATA(0x02);
 5371              		.loc 1 1214 3
 5372 103a 0220     		movs	r0, #2
 5373 103c FFF7FEFF 		bl	LCD_WR_DATA
1215:hardware/src/lcd.c **** 		LCD_WR_DATA(0x00);
 5374              		.loc 1 1215 3
 5375 1040 0020     		movs	r0, #0
ARM GAS  /tmp/ccRHtd69.s 			page 126


 5376 1042 FFF7FEFF 		bl	LCD_WR_DATA
1216:hardware/src/lcd.c **** 		LCD_WR_DATA(0x2A);
 5377              		.loc 1 1216 3
 5378 1046 2A20     		movs	r0, #42
 5379 1048 FFF7FEFF 		bl	LCD_WR_DATA
1217:hardware/src/lcd.c **** 		LCD_WR_DATA(0x00);
 5380              		.loc 1 1217 3
 5381 104c 0020     		movs	r0, #0
 5382 104e FFF7FEFF 		bl	LCD_WR_DATA
1218:hardware/src/lcd.c **** 		LCD_WR_DATA(0x3C);
 5383              		.loc 1 1218 3
 5384 1052 3C20     		movs	r0, #60
 5385 1054 FFF7FEFF 		bl	LCD_WR_DATA
1219:hardware/src/lcd.c **** 		LCD_WR_DATA(0x00);
 5386              		.loc 1 1219 3
 5387 1058 0020     		movs	r0, #0
 5388 105a FFF7FEFF 		bl	LCD_WR_DATA
1220:hardware/src/lcd.c **** 		LCD_WR_DATA(0x4B);
 5389              		.loc 1 1220 3
 5390 105e 4B20     		movs	r0, #75
 5391 1060 FFF7FEFF 		bl	LCD_WR_DATA
1221:hardware/src/lcd.c **** 		LCD_WR_DATA(0x00);
 5392              		.loc 1 1221 3
 5393 1064 0020     		movs	r0, #0
 5394 1066 FFF7FEFF 		bl	LCD_WR_DATA
1222:hardware/src/lcd.c **** 		LCD_WR_DATA(0x5D);
 5395              		.loc 1 1222 3
 5396 106a 5D20     		movs	r0, #93
 5397 106c FFF7FEFF 		bl	LCD_WR_DATA
1223:hardware/src/lcd.c **** 		LCD_WR_DATA(0x00);
 5398              		.loc 1 1223 3
 5399 1070 0020     		movs	r0, #0
 5400 1072 FFF7FEFF 		bl	LCD_WR_DATA
1224:hardware/src/lcd.c **** 		LCD_WR_DATA(0x74);
 5401              		.loc 1 1224 3
 5402 1076 7420     		movs	r0, #116
 5403 1078 FFF7FEFF 		bl	LCD_WR_DATA
1225:hardware/src/lcd.c **** 		LCD_WR_DATA(0x00);
 5404              		.loc 1 1225 3
 5405 107c 0020     		movs	r0, #0
 5406 107e FFF7FEFF 		bl	LCD_WR_DATA
1226:hardware/src/lcd.c **** 		LCD_WR_DATA(0x84);
 5407              		.loc 1 1226 3
 5408 1082 8420     		movs	r0, #132
 5409 1084 FFF7FEFF 		bl	LCD_WR_DATA
1227:hardware/src/lcd.c **** 		LCD_WR_DATA(0x00);
 5410              		.loc 1 1227 3
 5411 1088 0020     		movs	r0, #0
 5412 108a FFF7FEFF 		bl	LCD_WR_DATA
1228:hardware/src/lcd.c **** 		LCD_WR_DATA(0x93);
 5413              		.loc 1 1228 3
 5414 108e 9320     		movs	r0, #147
 5415 1090 FFF7FEFF 		bl	LCD_WR_DATA
1229:hardware/src/lcd.c **** 		LCD_WR_DATA(0x00);
 5416              		.loc 1 1229 3
 5417 1094 0020     		movs	r0, #0
 5418 1096 FFF7FEFF 		bl	LCD_WR_DATA
ARM GAS  /tmp/ccRHtd69.s 			page 127


1230:hardware/src/lcd.c **** 		LCD_WR_DATA(0xA2);
 5419              		.loc 1 1230 3
 5420 109a A220     		movs	r0, #162
 5421 109c FFF7FEFF 		bl	LCD_WR_DATA
1231:hardware/src/lcd.c **** 		LCD_WR_DATA(0x00);
 5422              		.loc 1 1231 3
 5423 10a0 0020     		movs	r0, #0
 5424 10a2 FFF7FEFF 		bl	LCD_WR_DATA
1232:hardware/src/lcd.c **** 		LCD_WR_DATA(0xB3);
 5425              		.loc 1 1232 3
 5426 10a6 B320     		movs	r0, #179
 5427 10a8 FFF7FEFF 		bl	LCD_WR_DATA
1233:hardware/src/lcd.c **** 		LCD_WR_DATA(0x00);
 5428              		.loc 1 1233 3
 5429 10ac 0020     		movs	r0, #0
 5430 10ae FFF7FEFF 		bl	LCD_WR_DATA
1234:hardware/src/lcd.c **** 		LCD_WR_DATA(0xBE);
 5431              		.loc 1 1234 3
 5432 10b2 BE20     		movs	r0, #190
 5433 10b4 FFF7FEFF 		bl	LCD_WR_DATA
1235:hardware/src/lcd.c **** 		LCD_WR_DATA(0x00);
 5434              		.loc 1 1235 3
 5435 10b8 0020     		movs	r0, #0
 5436 10ba FFF7FEFF 		bl	LCD_WR_DATA
1236:hardware/src/lcd.c **** 		LCD_WR_DATA(0xC4);
 5437              		.loc 1 1236 3
 5438 10be C420     		movs	r0, #196
 5439 10c0 FFF7FEFF 		bl	LCD_WR_DATA
1237:hardware/src/lcd.c **** 		LCD_WR_DATA(0x00);
 5440              		.loc 1 1237 3
 5441 10c4 0020     		movs	r0, #0
 5442 10c6 FFF7FEFF 		bl	LCD_WR_DATA
1238:hardware/src/lcd.c **** 		LCD_WR_DATA(0xCD);
 5443              		.loc 1 1238 3
 5444 10ca CD20     		movs	r0, #205
 5445 10cc FFF7FEFF 		bl	LCD_WR_DATA
1239:hardware/src/lcd.c **** 		LCD_WR_DATA(0x00);
 5446              		.loc 1 1239 3
 5447 10d0 0020     		movs	r0, #0
 5448 10d2 FFF7FEFF 		bl	LCD_WR_DATA
1240:hardware/src/lcd.c **** 		LCD_WR_DATA(0xD3);
 5449              		.loc 1 1240 3
 5450 10d6 D320     		movs	r0, #211
 5451 10d8 FFF7FEFF 		bl	LCD_WR_DATA
1241:hardware/src/lcd.c **** 		LCD_WR_DATA(0x00);
 5452              		.loc 1 1241 3
 5453 10dc 0020     		movs	r0, #0
 5454 10de FFF7FEFF 		bl	LCD_WR_DATA
1242:hardware/src/lcd.c **** 		LCD_WR_DATA(0xDD);
 5455              		.loc 1 1242 3
 5456 10e2 DD20     		movs	r0, #221
 5457 10e4 FFF7FEFF 		bl	LCD_WR_DATA
1243:hardware/src/lcd.c **** 		LCD_WR_DATA(0x00);
 5458              		.loc 1 1243 3
 5459 10e8 0020     		movs	r0, #0
 5460 10ea FFF7FEFF 		bl	LCD_WR_DATA
1244:hardware/src/lcd.c **** 		LCD_WR_DATA(0xF3);
ARM GAS  /tmp/ccRHtd69.s 			page 128


 5461              		.loc 1 1244 3
 5462 10ee F320     		movs	r0, #243
 5463 10f0 FFF7FEFF 		bl	LCD_WR_DATA
1245:hardware/src/lcd.c **** 		LCD_WR_DATA(0x00);
 5464              		.loc 1 1245 3
 5465 10f4 0020     		movs	r0, #0
 5466 10f6 FFF7FEFF 		bl	LCD_WR_DATA
1246:hardware/src/lcd.c **** 		LCD_WR_REG(0xE5);
 5467              		.loc 1 1246 3
 5468 10fa E520     		movs	r0, #229
 5469 10fc FFF7FEFF 		bl	LCD_WR_REG
1247:hardware/src/lcd.c **** 		LCD_WR_DATA(0x00);
 5470              		.loc 1 1247 3
 5471 1100 0020     		movs	r0, #0
 5472 1102 FFF7FEFF 		bl	LCD_WR_DATA
1248:hardware/src/lcd.c **** 		LCD_WR_DATA(0x00);
 5473              		.loc 1 1248 3
 5474 1106 0020     		movs	r0, #0
 5475 1108 FFF7FEFF 		bl	LCD_WR_DATA
1249:hardware/src/lcd.c **** 		LCD_WR_DATA(0x00);
 5476              		.loc 1 1249 3
 5477 110c 0020     		movs	r0, #0
 5478 110e FFF7FEFF 		bl	LCD_WR_DATA
1250:hardware/src/lcd.c **** 		LCD_WR_DATA(0x00);
 5479              		.loc 1 1250 3
 5480 1112 0020     		movs	r0, #0
 5481 1114 FFF7FEFF 		bl	LCD_WR_DATA
1251:hardware/src/lcd.c **** 		LCD_WR_DATA(0x02);
 5482              		.loc 1 1251 3
 5483 1118 0220     		movs	r0, #2
 5484 111a FFF7FEFF 		bl	LCD_WR_DATA
1252:hardware/src/lcd.c **** 		LCD_WR_DATA(0x00);
 5485              		.loc 1 1252 3
 5486 111e 0020     		movs	r0, #0
 5487 1120 FFF7FEFF 		bl	LCD_WR_DATA
1253:hardware/src/lcd.c **** 		LCD_WR_DATA(0x29);
 5488              		.loc 1 1253 3
 5489 1124 2920     		movs	r0, #41
 5490 1126 FFF7FEFF 		bl	LCD_WR_DATA
1254:hardware/src/lcd.c **** 		LCD_WR_DATA(0x00);
 5491              		.loc 1 1254 3
 5492 112a 0020     		movs	r0, #0
 5493 112c FFF7FEFF 		bl	LCD_WR_DATA
1255:hardware/src/lcd.c **** 		LCD_WR_DATA(0x3C);
 5494              		.loc 1 1255 3
 5495 1130 3C20     		movs	r0, #60
 5496 1132 FFF7FEFF 		bl	LCD_WR_DATA
1256:hardware/src/lcd.c **** 		LCD_WR_DATA(0x00);
 5497              		.loc 1 1256 3
 5498 1136 0020     		movs	r0, #0
 5499 1138 FFF7FEFF 		bl	LCD_WR_DATA
1257:hardware/src/lcd.c **** 		LCD_WR_DATA(0x4B);
 5500              		.loc 1 1257 3
 5501 113c 4B20     		movs	r0, #75
 5502 113e FFF7FEFF 		bl	LCD_WR_DATA
1258:hardware/src/lcd.c **** 		LCD_WR_DATA(0x00);
 5503              		.loc 1 1258 3
ARM GAS  /tmp/ccRHtd69.s 			page 129


 5504 1142 0020     		movs	r0, #0
 5505 1144 FFF7FEFF 		bl	LCD_WR_DATA
1259:hardware/src/lcd.c **** 		LCD_WR_DATA(0x5D);
 5506              		.loc 1 1259 3
 5507 1148 5D20     		movs	r0, #93
 5508 114a FFF7FEFF 		bl	LCD_WR_DATA
1260:hardware/src/lcd.c **** 		LCD_WR_DATA(0x00);
 5509              		.loc 1 1260 3
 5510 114e 0020     		movs	r0, #0
 5511 1150 FFF7FEFF 		bl	LCD_WR_DATA
1261:hardware/src/lcd.c **** 		LCD_WR_DATA(0x74);
 5512              		.loc 1 1261 3
 5513 1154 7420     		movs	r0, #116
 5514 1156 FFF7FEFF 		bl	LCD_WR_DATA
1262:hardware/src/lcd.c **** 		LCD_WR_DATA(0x00);
 5515              		.loc 1 1262 3
 5516 115a 0020     		movs	r0, #0
 5517 115c FFF7FEFF 		bl	LCD_WR_DATA
1263:hardware/src/lcd.c **** 		LCD_WR_DATA(0x84);
 5518              		.loc 1 1263 3
 5519 1160 8420     		movs	r0, #132
 5520 1162 FFF7FEFF 		bl	LCD_WR_DATA
1264:hardware/src/lcd.c **** 		LCD_WR_DATA(0x00);
 5521              		.loc 1 1264 3
 5522 1166 0020     		movs	r0, #0
 5523 1168 FFF7FEFF 		bl	LCD_WR_DATA
1265:hardware/src/lcd.c **** 		LCD_WR_DATA(0x93);
 5524              		.loc 1 1265 3
 5525 116c 9320     		movs	r0, #147
 5526 116e FFF7FEFF 		bl	LCD_WR_DATA
1266:hardware/src/lcd.c **** 		LCD_WR_DATA(0x00);
 5527              		.loc 1 1266 3
 5528 1172 0020     		movs	r0, #0
 5529 1174 FFF7FEFF 		bl	LCD_WR_DATA
1267:hardware/src/lcd.c **** 		LCD_WR_DATA(0xA2);
 5530              		.loc 1 1267 3
 5531 1178 A220     		movs	r0, #162
 5532 117a FFF7FEFF 		bl	LCD_WR_DATA
1268:hardware/src/lcd.c **** 		LCD_WR_DATA(0x00);
 5533              		.loc 1 1268 3
 5534 117e 0020     		movs	r0, #0
 5535 1180 FFF7FEFF 		bl	LCD_WR_DATA
1269:hardware/src/lcd.c **** 		LCD_WR_DATA(0xB3);
 5536              		.loc 1 1269 3
 5537 1184 B320     		movs	r0, #179
 5538 1186 FFF7FEFF 		bl	LCD_WR_DATA
1270:hardware/src/lcd.c **** 		LCD_WR_DATA(0x00);
 5539              		.loc 1 1270 3
 5540 118a 0020     		movs	r0, #0
 5541 118c FFF7FEFF 		bl	LCD_WR_DATA
1271:hardware/src/lcd.c **** 		LCD_WR_DATA(0xBE);
 5542              		.loc 1 1271 3
 5543 1190 BE20     		movs	r0, #190
 5544 1192 FFF7FEFF 		bl	LCD_WR_DATA
1272:hardware/src/lcd.c **** 		LCD_WR_DATA(0x00);
 5545              		.loc 1 1272 3
 5546 1196 0020     		movs	r0, #0
ARM GAS  /tmp/ccRHtd69.s 			page 130


 5547 1198 FFF7FEFF 		bl	LCD_WR_DATA
1273:hardware/src/lcd.c **** 		LCD_WR_DATA(0xC4);
 5548              		.loc 1 1273 3
 5549 119c C420     		movs	r0, #196
 5550 119e FFF7FEFF 		bl	LCD_WR_DATA
1274:hardware/src/lcd.c **** 		LCD_WR_DATA(0x00);
 5551              		.loc 1 1274 3
 5552 11a2 0020     		movs	r0, #0
 5553 11a4 FFF7FEFF 		bl	LCD_WR_DATA
1275:hardware/src/lcd.c **** 		LCD_WR_DATA(0xCD);
 5554              		.loc 1 1275 3
 5555 11a8 CD20     		movs	r0, #205
 5556 11aa FFF7FEFF 		bl	LCD_WR_DATA
1276:hardware/src/lcd.c **** 		LCD_WR_DATA(0x00);
 5557              		.loc 1 1276 3
 5558 11ae 0020     		movs	r0, #0
 5559 11b0 FFF7FEFF 		bl	LCD_WR_DATA
1277:hardware/src/lcd.c **** 		LCD_WR_DATA(0xD3);
 5560              		.loc 1 1277 3
 5561 11b4 D320     		movs	r0, #211
 5562 11b6 FFF7FEFF 		bl	LCD_WR_DATA
1278:hardware/src/lcd.c **** 		LCD_WR_DATA(0x00);
 5563              		.loc 1 1278 3
 5564 11ba 0020     		movs	r0, #0
 5565 11bc FFF7FEFF 		bl	LCD_WR_DATA
1279:hardware/src/lcd.c **** 		LCD_WR_DATA(0xDC);
 5566              		.loc 1 1279 3
 5567 11c0 DC20     		movs	r0, #220
 5568 11c2 FFF7FEFF 		bl	LCD_WR_DATA
1280:hardware/src/lcd.c **** 		LCD_WR_DATA(0x00);
 5569              		.loc 1 1280 3
 5570 11c6 0020     		movs	r0, #0
 5571 11c8 FFF7FEFF 		bl	LCD_WR_DATA
1281:hardware/src/lcd.c **** 		LCD_WR_DATA(0xF3);
 5572              		.loc 1 1281 3
 5573 11cc F320     		movs	r0, #243
 5574 11ce FFF7FEFF 		bl	LCD_WR_DATA
1282:hardware/src/lcd.c **** 		LCD_WR_DATA(0x00);
 5575              		.loc 1 1282 3
 5576 11d2 0020     		movs	r0, #0
 5577 11d4 FFF7FEFF 		bl	LCD_WR_DATA
1283:hardware/src/lcd.c **** 
1284:hardware/src/lcd.c **** 		LCD_WR_REG(0xE6);
 5578              		.loc 1 1284 3
 5579 11d8 E620     		movs	r0, #230
 5580 11da FFF7FEFF 		bl	LCD_WR_REG
1285:hardware/src/lcd.c **** 		LCD_WR_DATA(0x11);
 5581              		.loc 1 1285 3
 5582 11de 1120     		movs	r0, #17
 5583 11e0 FFF7FEFF 		bl	LCD_WR_DATA
1286:hardware/src/lcd.c **** 		LCD_WR_DATA(0x00);
 5584              		.loc 1 1286 3
 5585 11e4 0020     		movs	r0, #0
 5586 11e6 FFF7FEFF 		bl	LCD_WR_DATA
1287:hardware/src/lcd.c **** 		LCD_WR_DATA(0x34);
 5587              		.loc 1 1287 3
 5588 11ea 3420     		movs	r0, #52
ARM GAS  /tmp/ccRHtd69.s 			page 131


 5589 11ec FFF7FEFF 		bl	LCD_WR_DATA
1288:hardware/src/lcd.c **** 		LCD_WR_DATA(0x00);
 5590              		.loc 1 1288 3
 5591 11f0 0020     		movs	r0, #0
 5592 11f2 FFF7FEFF 		bl	LCD_WR_DATA
1289:hardware/src/lcd.c **** 		LCD_WR_DATA(0x56);
 5593              		.loc 1 1289 3
 5594 11f6 5620     		movs	r0, #86
 5595 11f8 FFF7FEFF 		bl	LCD_WR_DATA
1290:hardware/src/lcd.c **** 		LCD_WR_DATA(0x00);
 5596              		.loc 1 1290 3
 5597 11fc 0020     		movs	r0, #0
 5598 11fe FFF7FEFF 		bl	LCD_WR_DATA
1291:hardware/src/lcd.c **** 		LCD_WR_DATA(0x76);
 5599              		.loc 1 1291 3
 5600 1202 7620     		movs	r0, #118
 5601 1204 FFF7FEFF 		bl	LCD_WR_DATA
1292:hardware/src/lcd.c **** 		LCD_WR_DATA(0x00);
 5602              		.loc 1 1292 3
 5603 1208 0020     		movs	r0, #0
 5604 120a FFF7FEFF 		bl	LCD_WR_DATA
1293:hardware/src/lcd.c **** 		LCD_WR_DATA(0x77);
 5605              		.loc 1 1293 3
 5606 120e 7720     		movs	r0, #119
 5607 1210 FFF7FEFF 		bl	LCD_WR_DATA
1294:hardware/src/lcd.c **** 		LCD_WR_DATA(0x00);
 5608              		.loc 1 1294 3
 5609 1214 0020     		movs	r0, #0
 5610 1216 FFF7FEFF 		bl	LCD_WR_DATA
1295:hardware/src/lcd.c **** 		LCD_WR_DATA(0x66);
 5611              		.loc 1 1295 3
 5612 121a 6620     		movs	r0, #102
 5613 121c FFF7FEFF 		bl	LCD_WR_DATA
1296:hardware/src/lcd.c **** 		LCD_WR_DATA(0x00);
 5614              		.loc 1 1296 3
 5615 1220 0020     		movs	r0, #0
 5616 1222 FFF7FEFF 		bl	LCD_WR_DATA
1297:hardware/src/lcd.c **** 		LCD_WR_DATA(0x88);
 5617              		.loc 1 1297 3
 5618 1226 8820     		movs	r0, #136
 5619 1228 FFF7FEFF 		bl	LCD_WR_DATA
1298:hardware/src/lcd.c **** 		LCD_WR_DATA(0x00);
 5620              		.loc 1 1298 3
 5621 122c 0020     		movs	r0, #0
 5622 122e FFF7FEFF 		bl	LCD_WR_DATA
1299:hardware/src/lcd.c **** 		LCD_WR_DATA(0x99);
 5623              		.loc 1 1299 3
 5624 1232 9920     		movs	r0, #153
 5625 1234 FFF7FEFF 		bl	LCD_WR_DATA
1300:hardware/src/lcd.c **** 		LCD_WR_DATA(0x00);
 5626              		.loc 1 1300 3
 5627 1238 0020     		movs	r0, #0
 5628 123a FFF7FEFF 		bl	LCD_WR_DATA
1301:hardware/src/lcd.c **** 		LCD_WR_DATA(0xBB);
 5629              		.loc 1 1301 3
 5630 123e BB20     		movs	r0, #187
 5631 1240 FFF7FEFF 		bl	LCD_WR_DATA
ARM GAS  /tmp/ccRHtd69.s 			page 132


1302:hardware/src/lcd.c **** 		LCD_WR_DATA(0x00);
 5632              		.loc 1 1302 3
 5633 1244 0020     		movs	r0, #0
 5634 1246 FFF7FEFF 		bl	LCD_WR_DATA
1303:hardware/src/lcd.c **** 		LCD_WR_DATA(0x99);
 5635              		.loc 1 1303 3
 5636 124a 9920     		movs	r0, #153
 5637 124c FFF7FEFF 		bl	LCD_WR_DATA
1304:hardware/src/lcd.c **** 		LCD_WR_DATA(0x00);
 5638              		.loc 1 1304 3
 5639 1250 0020     		movs	r0, #0
 5640 1252 FFF7FEFF 		bl	LCD_WR_DATA
1305:hardware/src/lcd.c **** 		LCD_WR_DATA(0x66);
 5641              		.loc 1 1305 3
 5642 1256 6620     		movs	r0, #102
 5643 1258 FFF7FEFF 		bl	LCD_WR_DATA
1306:hardware/src/lcd.c **** 		LCD_WR_DATA(0x00);
 5644              		.loc 1 1306 3
 5645 125c 0020     		movs	r0, #0
 5646 125e FFF7FEFF 		bl	LCD_WR_DATA
1307:hardware/src/lcd.c **** 		LCD_WR_DATA(0x55);
 5647              		.loc 1 1307 3
 5648 1262 5520     		movs	r0, #85
 5649 1264 FFF7FEFF 		bl	LCD_WR_DATA
1308:hardware/src/lcd.c **** 		LCD_WR_DATA(0x00);
 5650              		.loc 1 1308 3
 5651 1268 0020     		movs	r0, #0
 5652 126a FFF7FEFF 		bl	LCD_WR_DATA
1309:hardware/src/lcd.c **** 		LCD_WR_DATA(0x55);
 5653              		.loc 1 1309 3
 5654 126e 5520     		movs	r0, #85
 5655 1270 FFF7FEFF 		bl	LCD_WR_DATA
1310:hardware/src/lcd.c **** 		LCD_WR_DATA(0x00);
 5656              		.loc 1 1310 3
 5657 1274 0020     		movs	r0, #0
 5658 1276 FFF7FEFF 		bl	LCD_WR_DATA
1311:hardware/src/lcd.c **** 		LCD_WR_DATA(0x45);
 5659              		.loc 1 1311 3
 5660 127a 4520     		movs	r0, #69
 5661 127c FFF7FEFF 		bl	LCD_WR_DATA
1312:hardware/src/lcd.c **** 		LCD_WR_DATA(0x00);
 5662              		.loc 1 1312 3
 5663 1280 0020     		movs	r0, #0
 5664 1282 FFF7FEFF 		bl	LCD_WR_DATA
1313:hardware/src/lcd.c **** 		LCD_WR_DATA(0x43);
 5665              		.loc 1 1313 3
 5666 1286 4320     		movs	r0, #67
 5667 1288 FFF7FEFF 		bl	LCD_WR_DATA
1314:hardware/src/lcd.c **** 		LCD_WR_DATA(0x00);
 5668              		.loc 1 1314 3
 5669 128c 0020     		movs	r0, #0
 5670 128e FFF7FEFF 		bl	LCD_WR_DATA
1315:hardware/src/lcd.c **** 		LCD_WR_DATA(0x44);
 5671              		.loc 1 1315 3
 5672 1292 4420     		movs	r0, #68
 5673 1294 FFF7FEFF 		bl	LCD_WR_DATA
1316:hardware/src/lcd.c **** 		LCD_WR_DATA(0x00);
ARM GAS  /tmp/ccRHtd69.s 			page 133


 5674              		.loc 1 1316 3
 5675 1298 0020     		movs	r0, #0
 5676 129a FFF7FEFF 		bl	LCD_WR_DATA
1317:hardware/src/lcd.c **** 
1318:hardware/src/lcd.c **** 		LCD_WR_REG(0xE7);
 5677              		.loc 1 1318 3
 5678 129e E720     		movs	r0, #231
 5679 12a0 FFF7FEFF 		bl	LCD_WR_REG
1319:hardware/src/lcd.c **** 		LCD_WR_DATA(0x32);
 5680              		.loc 1 1319 3
 5681 12a4 3220     		movs	r0, #50
 5682 12a6 FFF7FEFF 		bl	LCD_WR_DATA
1320:hardware/src/lcd.c **** 		LCD_WR_DATA(0x00);
 5683              		.loc 1 1320 3
 5684 12aa 0020     		movs	r0, #0
 5685 12ac FFF7FEFF 		bl	LCD_WR_DATA
1321:hardware/src/lcd.c **** 		LCD_WR_DATA(0x55);
 5686              		.loc 1 1321 3
 5687 12b0 5520     		movs	r0, #85
 5688 12b2 FFF7FEFF 		bl	LCD_WR_DATA
1322:hardware/src/lcd.c **** 		LCD_WR_DATA(0x00);
 5689              		.loc 1 1322 3
 5690 12b6 0020     		movs	r0, #0
 5691 12b8 FFF7FEFF 		bl	LCD_WR_DATA
1323:hardware/src/lcd.c **** 		LCD_WR_DATA(0x76);
 5692              		.loc 1 1323 3
 5693 12bc 7620     		movs	r0, #118
 5694 12be FFF7FEFF 		bl	LCD_WR_DATA
1324:hardware/src/lcd.c **** 		LCD_WR_DATA(0x00);
 5695              		.loc 1 1324 3
 5696 12c2 0020     		movs	r0, #0
 5697 12c4 FFF7FEFF 		bl	LCD_WR_DATA
1325:hardware/src/lcd.c **** 		LCD_WR_DATA(0x66);
 5698              		.loc 1 1325 3
 5699 12c8 6620     		movs	r0, #102
 5700 12ca FFF7FEFF 		bl	LCD_WR_DATA
1326:hardware/src/lcd.c **** 		LCD_WR_DATA(0x00);
 5701              		.loc 1 1326 3
 5702 12ce 0020     		movs	r0, #0
 5703 12d0 FFF7FEFF 		bl	LCD_WR_DATA
1327:hardware/src/lcd.c **** 		LCD_WR_DATA(0x67);
 5704              		.loc 1 1327 3
 5705 12d4 6720     		movs	r0, #103
 5706 12d6 FFF7FEFF 		bl	LCD_WR_DATA
1328:hardware/src/lcd.c **** 		LCD_WR_DATA(0x00);
 5707              		.loc 1 1328 3
 5708 12da 0020     		movs	r0, #0
 5709 12dc FFF7FEFF 		bl	LCD_WR_DATA
1329:hardware/src/lcd.c **** 		LCD_WR_DATA(0x67);
 5710              		.loc 1 1329 3
 5711 12e0 6720     		movs	r0, #103
 5712 12e2 FFF7FEFF 		bl	LCD_WR_DATA
1330:hardware/src/lcd.c **** 		LCD_WR_DATA(0x00);
 5713              		.loc 1 1330 3
 5714 12e6 0020     		movs	r0, #0
 5715 12e8 FFF7FEFF 		bl	LCD_WR_DATA
1331:hardware/src/lcd.c **** 		LCD_WR_DATA(0x87);
ARM GAS  /tmp/ccRHtd69.s 			page 134


 5716              		.loc 1 1331 3
 5717 12ec 8720     		movs	r0, #135
 5718 12ee FFF7FEFF 		bl	LCD_WR_DATA
1332:hardware/src/lcd.c **** 		LCD_WR_DATA(0x00);
 5719              		.loc 1 1332 3
 5720 12f2 0020     		movs	r0, #0
 5721 12f4 FFF7FEFF 		bl	LCD_WR_DATA
1333:hardware/src/lcd.c **** 		LCD_WR_DATA(0x99);
 5722              		.loc 1 1333 3
 5723 12f8 9920     		movs	r0, #153
 5724 12fa FFF7FEFF 		bl	LCD_WR_DATA
1334:hardware/src/lcd.c **** 		LCD_WR_DATA(0x00);
 5725              		.loc 1 1334 3
 5726 12fe 0020     		movs	r0, #0
 5727 1300 FFF7FEFF 		bl	LCD_WR_DATA
1335:hardware/src/lcd.c **** 		LCD_WR_DATA(0xBB);
 5728              		.loc 1 1335 3
 5729 1304 BB20     		movs	r0, #187
 5730 1306 FFF7FEFF 		bl	LCD_WR_DATA
1336:hardware/src/lcd.c **** 		LCD_WR_DATA(0x00);
 5731              		.loc 1 1336 3
 5732 130a 0020     		movs	r0, #0
 5733 130c FFF7FEFF 		bl	LCD_WR_DATA
1337:hardware/src/lcd.c **** 		LCD_WR_DATA(0x99);
 5734              		.loc 1 1337 3
 5735 1310 9920     		movs	r0, #153
 5736 1312 FFF7FEFF 		bl	LCD_WR_DATA
1338:hardware/src/lcd.c **** 		LCD_WR_DATA(0x00);
 5737              		.loc 1 1338 3
 5738 1316 0020     		movs	r0, #0
 5739 1318 FFF7FEFF 		bl	LCD_WR_DATA
1339:hardware/src/lcd.c **** 		LCD_WR_DATA(0x77);
 5740              		.loc 1 1339 3
 5741 131c 7720     		movs	r0, #119
 5742 131e FFF7FEFF 		bl	LCD_WR_DATA
1340:hardware/src/lcd.c **** 		LCD_WR_DATA(0x00);
 5743              		.loc 1 1340 3
 5744 1322 0020     		movs	r0, #0
 5745 1324 FFF7FEFF 		bl	LCD_WR_DATA
1341:hardware/src/lcd.c **** 		LCD_WR_DATA(0x44);
 5746              		.loc 1 1341 3
 5747 1328 4420     		movs	r0, #68
 5748 132a FFF7FEFF 		bl	LCD_WR_DATA
1342:hardware/src/lcd.c **** 		LCD_WR_DATA(0x00);
 5749              		.loc 1 1342 3
 5750 132e 0020     		movs	r0, #0
 5751 1330 FFF7FEFF 		bl	LCD_WR_DATA
1343:hardware/src/lcd.c **** 		LCD_WR_DATA(0x56);
 5752              		.loc 1 1343 3
 5753 1334 5620     		movs	r0, #86
 5754 1336 FFF7FEFF 		bl	LCD_WR_DATA
1344:hardware/src/lcd.c **** 		LCD_WR_DATA(0x00);
 5755              		.loc 1 1344 3
 5756 133a 0020     		movs	r0, #0
 5757 133c FFF7FEFF 		bl	LCD_WR_DATA
1345:hardware/src/lcd.c **** 		LCD_WR_DATA(0x23); 
 5758              		.loc 1 1345 3
ARM GAS  /tmp/ccRHtd69.s 			page 135


 5759 1340 2320     		movs	r0, #35
 5760 1342 FFF7FEFF 		bl	LCD_WR_DATA
1346:hardware/src/lcd.c **** 		LCD_WR_DATA(0x00);
 5761              		.loc 1 1346 3
 5762 1346 0020     		movs	r0, #0
 5763 1348 FFF7FEFF 		bl	LCD_WR_DATA
1347:hardware/src/lcd.c **** 		LCD_WR_DATA(0x33);
 5764              		.loc 1 1347 3
 5765 134c 3320     		movs	r0, #51
 5766 134e FFF7FEFF 		bl	LCD_WR_DATA
1348:hardware/src/lcd.c **** 		LCD_WR_DATA(0x00);
 5767              		.loc 1 1348 3
 5768 1352 0020     		movs	r0, #0
 5769 1354 FFF7FEFF 		bl	LCD_WR_DATA
1349:hardware/src/lcd.c **** 		LCD_WR_DATA(0x45);
 5770              		.loc 1 1349 3
 5771 1358 4520     		movs	r0, #69
 5772 135a FFF7FEFF 		bl	LCD_WR_DATA
1350:hardware/src/lcd.c **** 		LCD_WR_DATA(0x00);
 5773              		.loc 1 1350 3
 5774 135e 0020     		movs	r0, #0
 5775 1360 FFF7FEFF 		bl	LCD_WR_DATA
1351:hardware/src/lcd.c **** 
1352:hardware/src/lcd.c **** 		LCD_WR_REG(0xE8);
 5776              		.loc 1 1352 3
 5777 1364 E820     		movs	r0, #232
 5778 1366 FFF7FEFF 		bl	LCD_WR_REG
1353:hardware/src/lcd.c **** 		LCD_WR_DATA(0x00);
 5779              		.loc 1 1353 3
 5780 136a 0020     		movs	r0, #0
 5781 136c FFF7FEFF 		bl	LCD_WR_DATA
1354:hardware/src/lcd.c **** 		LCD_WR_DATA(0x00);
 5782              		.loc 1 1354 3
 5783 1370 0020     		movs	r0, #0
 5784 1372 FFF7FEFF 		bl	LCD_WR_DATA
1355:hardware/src/lcd.c **** 		LCD_WR_DATA(0x99);
 5785              		.loc 1 1355 3
 5786 1376 9920     		movs	r0, #153
 5787 1378 FFF7FEFF 		bl	LCD_WR_DATA
1356:hardware/src/lcd.c **** 		LCD_WR_DATA(0x00);
 5788              		.loc 1 1356 3
 5789 137c 0020     		movs	r0, #0
 5790 137e FFF7FEFF 		bl	LCD_WR_DATA
1357:hardware/src/lcd.c **** 		LCD_WR_DATA(0x87);
 5791              		.loc 1 1357 3
 5792 1382 8720     		movs	r0, #135
 5793 1384 FFF7FEFF 		bl	LCD_WR_DATA
1358:hardware/src/lcd.c **** 		LCD_WR_DATA(0x00);
 5794              		.loc 1 1358 3
 5795 1388 0020     		movs	r0, #0
 5796 138a FFF7FEFF 		bl	LCD_WR_DATA
1359:hardware/src/lcd.c **** 		LCD_WR_DATA(0x88);
 5797              		.loc 1 1359 3
 5798 138e 8820     		movs	r0, #136
 5799 1390 FFF7FEFF 		bl	LCD_WR_DATA
1360:hardware/src/lcd.c **** 		LCD_WR_DATA(0x00);
 5800              		.loc 1 1360 3
ARM GAS  /tmp/ccRHtd69.s 			page 136


 5801 1394 0020     		movs	r0, #0
 5802 1396 FFF7FEFF 		bl	LCD_WR_DATA
1361:hardware/src/lcd.c **** 		LCD_WR_DATA(0x77);
 5803              		.loc 1 1361 3
 5804 139a 7720     		movs	r0, #119
 5805 139c FFF7FEFF 		bl	LCD_WR_DATA
1362:hardware/src/lcd.c **** 		LCD_WR_DATA(0x00);
 5806              		.loc 1 1362 3
 5807 13a0 0020     		movs	r0, #0
 5808 13a2 FFF7FEFF 		bl	LCD_WR_DATA
1363:hardware/src/lcd.c **** 		LCD_WR_DATA(0x66);
 5809              		.loc 1 1363 3
 5810 13a6 6620     		movs	r0, #102
 5811 13a8 FFF7FEFF 		bl	LCD_WR_DATA
1364:hardware/src/lcd.c **** 		LCD_WR_DATA(0x00);
 5812              		.loc 1 1364 3
 5813 13ac 0020     		movs	r0, #0
 5814 13ae FFF7FEFF 		bl	LCD_WR_DATA
1365:hardware/src/lcd.c **** 		LCD_WR_DATA(0x88);
 5815              		.loc 1 1365 3
 5816 13b2 8820     		movs	r0, #136
 5817 13b4 FFF7FEFF 		bl	LCD_WR_DATA
1366:hardware/src/lcd.c **** 		LCD_WR_DATA(0x00);
 5818              		.loc 1 1366 3
 5819 13b8 0020     		movs	r0, #0
 5820 13ba FFF7FEFF 		bl	LCD_WR_DATA
1367:hardware/src/lcd.c **** 		LCD_WR_DATA(0xAA);
 5821              		.loc 1 1367 3
 5822 13be AA20     		movs	r0, #170
 5823 13c0 FFF7FEFF 		bl	LCD_WR_DATA
1368:hardware/src/lcd.c **** 		LCD_WR_DATA(0x00);
 5824              		.loc 1 1368 3
 5825 13c4 0020     		movs	r0, #0
 5826 13c6 FFF7FEFF 		bl	LCD_WR_DATA
1369:hardware/src/lcd.c **** 		LCD_WR_DATA(0xBB);
 5827              		.loc 1 1369 3
 5828 13ca BB20     		movs	r0, #187
 5829 13cc FFF7FEFF 		bl	LCD_WR_DATA
1370:hardware/src/lcd.c **** 		LCD_WR_DATA(0x00);
 5830              		.loc 1 1370 3
 5831 13d0 0020     		movs	r0, #0
 5832 13d2 FFF7FEFF 		bl	LCD_WR_DATA
1371:hardware/src/lcd.c **** 		LCD_WR_DATA(0x99);
 5833              		.loc 1 1371 3
 5834 13d6 9920     		movs	r0, #153
 5835 13d8 FFF7FEFF 		bl	LCD_WR_DATA
1372:hardware/src/lcd.c **** 		LCD_WR_DATA(0x00);
 5836              		.loc 1 1372 3
 5837 13dc 0020     		movs	r0, #0
 5838 13de FFF7FEFF 		bl	LCD_WR_DATA
1373:hardware/src/lcd.c **** 		LCD_WR_DATA(0x66);
 5839              		.loc 1 1373 3
 5840 13e2 6620     		movs	r0, #102
 5841 13e4 FFF7FEFF 		bl	LCD_WR_DATA
1374:hardware/src/lcd.c **** 		LCD_WR_DATA(0x00);
 5842              		.loc 1 1374 3
 5843 13e8 0020     		movs	r0, #0
ARM GAS  /tmp/ccRHtd69.s 			page 137


 5844 13ea FFF7FEFF 		bl	LCD_WR_DATA
1375:hardware/src/lcd.c **** 		LCD_WR_DATA(0x55);
 5845              		.loc 1 1375 3
 5846 13ee 5520     		movs	r0, #85
 5847 13f0 FFF7FEFF 		bl	LCD_WR_DATA
1376:hardware/src/lcd.c **** 		LCD_WR_DATA(0x00);
 5848              		.loc 1 1376 3
 5849 13f4 0020     		movs	r0, #0
 5850 13f6 FFF7FEFF 		bl	LCD_WR_DATA
1377:hardware/src/lcd.c **** 		LCD_WR_DATA(0x55);
 5851              		.loc 1 1377 3
 5852 13fa 5520     		movs	r0, #85
 5853 13fc FFF7FEFF 		bl	LCD_WR_DATA
1378:hardware/src/lcd.c **** 		LCD_WR_DATA(0x00);
 5854              		.loc 1 1378 3
 5855 1400 0020     		movs	r0, #0
 5856 1402 FFF7FEFF 		bl	LCD_WR_DATA
1379:hardware/src/lcd.c **** 		LCD_WR_DATA(0x44);
 5857              		.loc 1 1379 3
 5858 1406 4420     		movs	r0, #68
 5859 1408 FFF7FEFF 		bl	LCD_WR_DATA
1380:hardware/src/lcd.c **** 		LCD_WR_DATA(0x00);
 5860              		.loc 1 1380 3
 5861 140c 0020     		movs	r0, #0
 5862 140e FFF7FEFF 		bl	LCD_WR_DATA
1381:hardware/src/lcd.c **** 		LCD_WR_DATA(0x44);
 5863              		.loc 1 1381 3
 5864 1412 4420     		movs	r0, #68
 5865 1414 FFF7FEFF 		bl	LCD_WR_DATA
1382:hardware/src/lcd.c **** 		LCD_WR_DATA(0x00);
 5866              		.loc 1 1382 3
 5867 1418 0020     		movs	r0, #0
 5868 141a FFF7FEFF 		bl	LCD_WR_DATA
1383:hardware/src/lcd.c **** 		LCD_WR_DATA(0x55);
 5869              		.loc 1 1383 3
 5870 141e 5520     		movs	r0, #85
 5871 1420 FFF7FEFF 		bl	LCD_WR_DATA
1384:hardware/src/lcd.c **** 		LCD_WR_DATA(0x00);
 5872              		.loc 1 1384 3
 5873 1424 0020     		movs	r0, #0
 5874 1426 FFF7FEFF 		bl	LCD_WR_DATA
1385:hardware/src/lcd.c **** 
1386:hardware/src/lcd.c **** 		LCD_WR_REG(0xE9);
 5875              		.loc 1 1386 3
 5876 142a E920     		movs	r0, #233
 5877 142c FFF7FEFF 		bl	LCD_WR_REG
1387:hardware/src/lcd.c **** 		LCD_WR_DATA(0xAA);
 5878              		.loc 1 1387 3
 5879 1430 AA20     		movs	r0, #170
 5880 1432 FFF7FEFF 		bl	LCD_WR_DATA
1388:hardware/src/lcd.c **** 		LCD_WR_DATA(0x00);
 5881              		.loc 1 1388 3
 5882 1436 0020     		movs	r0, #0
 5883 1438 FFF7FEFF 		bl	LCD_WR_DATA
1389:hardware/src/lcd.c **** 		LCD_WR_DATA(0x00);
 5884              		.loc 1 1389 3
 5885 143c 0020     		movs	r0, #0
ARM GAS  /tmp/ccRHtd69.s 			page 138


 5886 143e FFF7FEFF 		bl	LCD_WR_DATA
1390:hardware/src/lcd.c **** 		LCD_WR_DATA(0x00);
 5887              		.loc 1 1390 3
 5888 1442 0020     		movs	r0, #0
 5889 1444 FFF7FEFF 		bl	LCD_WR_DATA
1391:hardware/src/lcd.c **** 
1392:hardware/src/lcd.c **** 		LCD_WR_REG(0x00);
 5890              		.loc 1 1392 3
 5891 1448 0020     		movs	r0, #0
 5892 144a FFF7FEFF 		bl	LCD_WR_REG
1393:hardware/src/lcd.c **** 		LCD_WR_DATA(0xAA);
 5893              		.loc 1 1393 3
 5894 144e AA20     		movs	r0, #170
 5895 1450 FFF7FEFF 		bl	LCD_WR_DATA
1394:hardware/src/lcd.c **** 
1395:hardware/src/lcd.c **** 		LCD_WR_REG(0xCF);
 5896              		.loc 1 1395 3
 5897 1454 CF20     		movs	r0, #207
 5898 1456 FFF7FEFF 		bl	LCD_WR_REG
1396:hardware/src/lcd.c **** 		LCD_WR_DATA(0x00);
 5899              		.loc 1 1396 3
 5900 145a 0020     		movs	r0, #0
 5901 145c FFF7FEFF 		bl	LCD_WR_DATA
1397:hardware/src/lcd.c **** 		LCD_WR_DATA(0x00);
 5902              		.loc 1 1397 3
 5903 1460 0020     		movs	r0, #0
 5904 1462 FFF7FEFF 		bl	LCD_WR_DATA
1398:hardware/src/lcd.c **** 		LCD_WR_DATA(0x00);
 5905              		.loc 1 1398 3
 5906 1466 0020     		movs	r0, #0
 5907 1468 FFF7FEFF 		bl	LCD_WR_DATA
1399:hardware/src/lcd.c **** 		LCD_WR_DATA(0x00);
 5908              		.loc 1 1399 3
 5909 146c 0020     		movs	r0, #0
 5910 146e FFF7FEFF 		bl	LCD_WR_DATA
1400:hardware/src/lcd.c **** 		LCD_WR_DATA(0x00);
 5911              		.loc 1 1400 3
 5912 1472 0020     		movs	r0, #0
 5913 1474 FFF7FEFF 		bl	LCD_WR_DATA
1401:hardware/src/lcd.c **** 		LCD_WR_DATA(0x00);
 5914              		.loc 1 1401 3
 5915 1478 0020     		movs	r0, #0
 5916 147a FFF7FEFF 		bl	LCD_WR_DATA
1402:hardware/src/lcd.c **** 		LCD_WR_DATA(0x00);
 5917              		.loc 1 1402 3
 5918 147e 0020     		movs	r0, #0
 5919 1480 FFF7FEFF 		bl	LCD_WR_DATA
1403:hardware/src/lcd.c **** 		LCD_WR_DATA(0x00);
 5920              		.loc 1 1403 3
 5921 1484 0020     		movs	r0, #0
 5922 1486 FFF7FEFF 		bl	LCD_WR_DATA
1404:hardware/src/lcd.c **** 		LCD_WR_DATA(0x00);
 5923              		.loc 1 1404 3
 5924 148a 0020     		movs	r0, #0
 5925 148c FFF7FEFF 		bl	LCD_WR_DATA
1405:hardware/src/lcd.c **** 		LCD_WR_DATA(0x00);
 5926              		.loc 1 1405 3
ARM GAS  /tmp/ccRHtd69.s 			page 139


 5927 1490 0020     		movs	r0, #0
 5928 1492 FFF7FEFF 		bl	LCD_WR_DATA
1406:hardware/src/lcd.c **** 		LCD_WR_DATA(0x00);
 5929              		.loc 1 1406 3
 5930 1496 0020     		movs	r0, #0
 5931 1498 FFF7FEFF 		bl	LCD_WR_DATA
1407:hardware/src/lcd.c **** 		LCD_WR_DATA(0x00);
 5932              		.loc 1 1407 3
 5933 149c 0020     		movs	r0, #0
 5934 149e FFF7FEFF 		bl	LCD_WR_DATA
1408:hardware/src/lcd.c **** 		LCD_WR_DATA(0x00);
 5935              		.loc 1 1408 3
 5936 14a2 0020     		movs	r0, #0
 5937 14a4 FFF7FEFF 		bl	LCD_WR_DATA
1409:hardware/src/lcd.c **** 		LCD_WR_DATA(0x00);
 5938              		.loc 1 1409 3
 5939 14a8 0020     		movs	r0, #0
 5940 14aa FFF7FEFF 		bl	LCD_WR_DATA
1410:hardware/src/lcd.c **** 		LCD_WR_DATA(0x00);
 5941              		.loc 1 1410 3
 5942 14ae 0020     		movs	r0, #0
 5943 14b0 FFF7FEFF 		bl	LCD_WR_DATA
1411:hardware/src/lcd.c **** 		LCD_WR_DATA(0x00);
 5944              		.loc 1 1411 3
 5945 14b4 0020     		movs	r0, #0
 5946 14b6 FFF7FEFF 		bl	LCD_WR_DATA
1412:hardware/src/lcd.c **** 		LCD_WR_DATA(0x00);
 5947              		.loc 1 1412 3
 5948 14ba 0020     		movs	r0, #0
 5949 14bc FFF7FEFF 		bl	LCD_WR_DATA
1413:hardware/src/lcd.c **** 
1414:hardware/src/lcd.c **** 		LCD_WR_REG(0xF0);
 5950              		.loc 1 1414 3
 5951 14c0 F020     		movs	r0, #240
 5952 14c2 FFF7FEFF 		bl	LCD_WR_REG
1415:hardware/src/lcd.c **** 		LCD_WR_DATA(0x00);
 5953              		.loc 1 1415 3
 5954 14c6 0020     		movs	r0, #0
 5955 14c8 FFF7FEFF 		bl	LCD_WR_DATA
1416:hardware/src/lcd.c **** 		LCD_WR_DATA(0x50);
 5956              		.loc 1 1416 3
 5957 14cc 5020     		movs	r0, #80
 5958 14ce FFF7FEFF 		bl	LCD_WR_DATA
1417:hardware/src/lcd.c **** 		LCD_WR_DATA(0x00);
 5959              		.loc 1 1417 3
 5960 14d2 0020     		movs	r0, #0
 5961 14d4 FFF7FEFF 		bl	LCD_WR_DATA
1418:hardware/src/lcd.c **** 		LCD_WR_DATA(0x00);
 5962              		.loc 1 1418 3
 5963 14d8 0020     		movs	r0, #0
 5964 14da FFF7FEFF 		bl	LCD_WR_DATA
1419:hardware/src/lcd.c **** 		LCD_WR_DATA(0x00);
 5965              		.loc 1 1419 3
 5966 14de 0020     		movs	r0, #0
 5967 14e0 FFF7FEFF 		bl	LCD_WR_DATA
1420:hardware/src/lcd.c **** 
1421:hardware/src/lcd.c **** 		LCD_WR_REG(0xF3);
ARM GAS  /tmp/ccRHtd69.s 			page 140


 5968              		.loc 1 1421 3
 5969 14e4 F320     		movs	r0, #243
 5970 14e6 FFF7FEFF 		bl	LCD_WR_REG
1422:hardware/src/lcd.c **** 		LCD_WR_DATA(0x00);
 5971              		.loc 1 1422 3
 5972 14ea 0020     		movs	r0, #0
 5973 14ec FFF7FEFF 		bl	LCD_WR_DATA
1423:hardware/src/lcd.c **** 
1424:hardware/src/lcd.c **** 		LCD_WR_REG(0xF9);
 5974              		.loc 1 1424 3
 5975 14f0 F920     		movs	r0, #249
 5976 14f2 FFF7FEFF 		bl	LCD_WR_REG
1425:hardware/src/lcd.c **** 		LCD_WR_DATA(0x06);
 5977              		.loc 1 1425 3
 5978 14f6 0620     		movs	r0, #6
 5979 14f8 FFF7FEFF 		bl	LCD_WR_DATA
1426:hardware/src/lcd.c **** 		LCD_WR_DATA(0x10);
 5980              		.loc 1 1426 3
 5981 14fc 1020     		movs	r0, #16
 5982 14fe FFF7FEFF 		bl	LCD_WR_DATA
1427:hardware/src/lcd.c **** 		LCD_WR_DATA(0x29);
 5983              		.loc 1 1427 3
 5984 1502 2920     		movs	r0, #41
 5985 1504 FFF7FEFF 		bl	LCD_WR_DATA
1428:hardware/src/lcd.c **** 		LCD_WR_DATA(0x00);
 5986              		.loc 1 1428 3
 5987 1508 0020     		movs	r0, #0
 5988 150a FFF7FEFF 		bl	LCD_WR_DATA
1429:hardware/src/lcd.c **** 
1430:hardware/src/lcd.c **** 		LCD_WR_REG(0x3A);
 5989              		.loc 1 1430 3
 5990 150e 3A20     		movs	r0, #58
 5991 1510 FFF7FEFF 		bl	LCD_WR_REG
1431:hardware/src/lcd.c **** 		LCD_WR_DATA(0x55);	//66
 5992              		.loc 1 1431 3
 5993 1514 5520     		movs	r0, #85
 5994 1516 FFF7FEFF 		bl	LCD_WR_DATA
1432:hardware/src/lcd.c **** 
1433:hardware/src/lcd.c **** 		LCD_WR_REG(0x11);
 5995              		.loc 1 1433 3
 5996 151a 1120     		movs	r0, #17
 5997 151c FFF7FEFF 		bl	LCD_WR_REG
1434:hardware/src/lcd.c **** 		delay_ms(100);
 5998              		.loc 1 1434 3
 5999 1520 6420     		movs	r0, #100
 6000 1522 FFF7FEFF 		bl	delay_ms
1435:hardware/src/lcd.c **** 		LCD_WR_REG(0x29);
 6001              		.loc 1 1435 3
 6002 1526 2920     		movs	r0, #41
 6003 1528 FFF7FEFF 		bl	LCD_WR_REG
1436:hardware/src/lcd.c **** 		LCD_WR_REG(0x35);
 6004              		.loc 1 1436 3
 6005 152c 3520     		movs	r0, #53
 6006 152e FFF7FEFF 		bl	LCD_WR_REG
1437:hardware/src/lcd.c **** 		LCD_WR_DATA(0x00);
 6007              		.loc 1 1437 3
 6008 1532 0020     		movs	r0, #0
ARM GAS  /tmp/ccRHtd69.s 			page 141


 6009 1534 FFF7FEFF 		bl	LCD_WR_DATA
1438:hardware/src/lcd.c **** 
1439:hardware/src/lcd.c **** 		LCD_WR_REG(0x51);
 6010              		.loc 1 1439 3
 6011 1538 5120     		movs	r0, #81
 6012 153a FFF7FEFF 		bl	LCD_WR_REG
1440:hardware/src/lcd.c **** 		LCD_WR_DATA(0xFF);
 6013              		.loc 1 1440 3
 6014 153e FF20     		movs	r0, #255
 6015 1540 FFF7FEFF 		bl	LCD_WR_DATA
1441:hardware/src/lcd.c **** 		LCD_WR_REG(0x53);
 6016              		.loc 1 1441 3
 6017 1544 5320     		movs	r0, #83
 6018 1546 FFF7FEFF 		bl	LCD_WR_REG
1442:hardware/src/lcd.c **** 		LCD_WR_DATA(0x2C);
 6019              		.loc 1 1442 3
 6020 154a 2C20     		movs	r0, #44
 6021 154c FFF7FEFF 		bl	LCD_WR_DATA
1443:hardware/src/lcd.c **** 		LCD_WR_REG(0x55);
 6022              		.loc 1 1443 3
 6023 1550 5520     		movs	r0, #85
 6024 1552 FFF7FEFF 		bl	LCD_WR_REG
1444:hardware/src/lcd.c **** 		LCD_WR_DATA(0x82);
 6025              		.loc 1 1444 3
 6026 1556 8220     		movs	r0, #130
 6027 1558 FFF7FEFF 		bl	LCD_WR_DATA
1445:hardware/src/lcd.c **** 		LCD_WR_REG(0x2c);
 6028              		.loc 1 1445 3
 6029 155c 2C20     		movs	r0, #44
 6030 155e FFF7FEFF 		bl	LCD_WR_REG
 6031 1562 02F0EBB8 		b	.L172
 6032              	.L174:
1446:hardware/src/lcd.c **** 	}else if(lcddev.id==0x5510)
 6033              		.loc 1 1446 17
 6034 1566 044B     		ldr	r3, .L194
 6035 1568 9B88     		ldrh	r3, [r3, #4]
 6036              		.loc 1 1446 10
 6037 156a 45F21052 		movw	r2, #21776
 6038 156e 9342     		cmp	r3, r2
 6039 1570 40F08287 		bne	.L175
 6040 1574 02E0     		b	.L195
 6041              	.L196:
 6042 1576 00BF     		.align	2
 6043              	.L194:
 6044 1578 00000000 		.word	lcddev
 6045              	.L195:
1447:hardware/src/lcd.c **** 	{
1448:hardware/src/lcd.c **** 		LCD_WriteReg(0xF000,0x55);
 6046              		.loc 1 1448 3
 6047 157c 5521     		movs	r1, #85
 6048 157e 4FF47040 		mov	r0, #61440
 6049 1582 FFF7FEFF 		bl	LCD_WriteReg
1449:hardware/src/lcd.c **** 		LCD_WriteReg(0xF001,0xAA);
 6050              		.loc 1 1449 3
 6051 1586 AA21     		movs	r1, #170
 6052 1588 4FF20100 		movw	r0, #61441
 6053 158c FFF7FEFF 		bl	LCD_WriteReg
ARM GAS  /tmp/ccRHtd69.s 			page 142


1450:hardware/src/lcd.c **** 		LCD_WriteReg(0xF002,0x52);
 6054              		.loc 1 1450 3
 6055 1590 5221     		movs	r1, #82
 6056 1592 4FF20200 		movw	r0, #61442
 6057 1596 FFF7FEFF 		bl	LCD_WriteReg
1451:hardware/src/lcd.c **** 		LCD_WriteReg(0xF003,0x08);
 6058              		.loc 1 1451 3
 6059 159a 0821     		movs	r1, #8
 6060 159c 4FF20300 		movw	r0, #61443
 6061 15a0 FFF7FEFF 		bl	LCD_WriteReg
1452:hardware/src/lcd.c **** 		LCD_WriteReg(0xF004,0x01);
 6062              		.loc 1 1452 3
 6063 15a4 0121     		movs	r1, #1
 6064 15a6 4FF20400 		movw	r0, #61444
 6065 15aa FFF7FEFF 		bl	LCD_WriteReg
1453:hardware/src/lcd.c **** 		//AVDD Set AVDD 5.2V
1454:hardware/src/lcd.c **** 		LCD_WriteReg(0xB000,0x0D);
 6066              		.loc 1 1454 3
 6067 15ae 0D21     		movs	r1, #13
 6068 15b0 4FF43040 		mov	r0, #45056
 6069 15b4 FFF7FEFF 		bl	LCD_WriteReg
1455:hardware/src/lcd.c **** 		LCD_WriteReg(0xB001,0x0D);
 6070              		.loc 1 1455 3
 6071 15b8 0D21     		movs	r1, #13
 6072 15ba 4BF20100 		movw	r0, #45057
 6073 15be FFF7FEFF 		bl	LCD_WriteReg
1456:hardware/src/lcd.c **** 		LCD_WriteReg(0xB002,0x0D);
 6074              		.loc 1 1456 3
 6075 15c2 0D21     		movs	r1, #13
 6076 15c4 4BF20200 		movw	r0, #45058
 6077 15c8 FFF7FEFF 		bl	LCD_WriteReg
1457:hardware/src/lcd.c **** 		//AVDD ratio
1458:hardware/src/lcd.c **** 		LCD_WriteReg(0xB600,0x34);
 6078              		.loc 1 1458 3
 6079 15cc 3421     		movs	r1, #52
 6080 15ce 4FF43640 		mov	r0, #46592
 6081 15d2 FFF7FEFF 		bl	LCD_WriteReg
1459:hardware/src/lcd.c **** 		LCD_WriteReg(0xB601,0x34);
 6082              		.loc 1 1459 3
 6083 15d6 3421     		movs	r1, #52
 6084 15d8 4BF20160 		movw	r0, #46593
 6085 15dc FFF7FEFF 		bl	LCD_WriteReg
1460:hardware/src/lcd.c **** 		LCD_WriteReg(0xB602,0x34);
 6086              		.loc 1 1460 3
 6087 15e0 3421     		movs	r1, #52
 6088 15e2 4BF20260 		movw	r0, #46594
 6089 15e6 FFF7FEFF 		bl	LCD_WriteReg
1461:hardware/src/lcd.c **** 		//AVEE -5.2V
1462:hardware/src/lcd.c **** 		LCD_WriteReg(0xB100,0x0D);
 6090              		.loc 1 1462 3
 6091 15ea 0D21     		movs	r1, #13
 6092 15ec 4FF43140 		mov	r0, #45312
 6093 15f0 FFF7FEFF 		bl	LCD_WriteReg
1463:hardware/src/lcd.c **** 		LCD_WriteReg(0xB101,0x0D);
 6094              		.loc 1 1463 3
 6095 15f4 0D21     		movs	r1, #13
 6096 15f6 4BF20110 		movw	r0, #45313
ARM GAS  /tmp/ccRHtd69.s 			page 143


 6097 15fa FFF7FEFF 		bl	LCD_WriteReg
1464:hardware/src/lcd.c **** 		LCD_WriteReg(0xB102,0x0D);
 6098              		.loc 1 1464 3
 6099 15fe 0D21     		movs	r1, #13
 6100 1600 4BF20210 		movw	r0, #45314
 6101 1604 FFF7FEFF 		bl	LCD_WriteReg
1465:hardware/src/lcd.c **** 		//AVEE ratio
1466:hardware/src/lcd.c **** 		LCD_WriteReg(0xB700,0x34);
 6102              		.loc 1 1466 3
 6103 1608 3421     		movs	r1, #52
 6104 160a 4FF43740 		mov	r0, #46848
 6105 160e FFF7FEFF 		bl	LCD_WriteReg
1467:hardware/src/lcd.c **** 		LCD_WriteReg(0xB701,0x34);
 6106              		.loc 1 1467 3
 6107 1612 3421     		movs	r1, #52
 6108 1614 4BF20170 		movw	r0, #46849
 6109 1618 FFF7FEFF 		bl	LCD_WriteReg
1468:hardware/src/lcd.c **** 		LCD_WriteReg(0xB702,0x34);
 6110              		.loc 1 1468 3
 6111 161c 3421     		movs	r1, #52
 6112 161e 4BF20270 		movw	r0, #46850
 6113 1622 FFF7FEFF 		bl	LCD_WriteReg
1469:hardware/src/lcd.c **** 		//VCL -2.5V
1470:hardware/src/lcd.c **** 		LCD_WriteReg(0xB200,0x00);
 6114              		.loc 1 1470 3
 6115 1626 0021     		movs	r1, #0
 6116 1628 4FF43240 		mov	r0, #45568
 6117 162c FFF7FEFF 		bl	LCD_WriteReg
1471:hardware/src/lcd.c **** 		LCD_WriteReg(0xB201,0x00);
 6118              		.loc 1 1471 3
 6119 1630 0021     		movs	r1, #0
 6120 1632 4BF20120 		movw	r0, #45569
 6121 1636 FFF7FEFF 		bl	LCD_WriteReg
1472:hardware/src/lcd.c **** 		LCD_WriteReg(0xB202,0x00);
 6122              		.loc 1 1472 3
 6123 163a 0021     		movs	r1, #0
 6124 163c 4BF20220 		movw	r0, #45570
 6125 1640 FFF7FEFF 		bl	LCD_WriteReg
1473:hardware/src/lcd.c **** 		//VCL ratio
1474:hardware/src/lcd.c **** 		LCD_WriteReg(0xB800,0x24);
 6126              		.loc 1 1474 3
 6127 1644 2421     		movs	r1, #36
 6128 1646 4FF43840 		mov	r0, #47104
 6129 164a FFF7FEFF 		bl	LCD_WriteReg
1475:hardware/src/lcd.c **** 		LCD_WriteReg(0xB801,0x24);
 6130              		.loc 1 1475 3
 6131 164e 2421     		movs	r1, #36
 6132 1650 4BF60100 		movw	r0, #47105
 6133 1654 FFF7FEFF 		bl	LCD_WriteReg
1476:hardware/src/lcd.c **** 		LCD_WriteReg(0xB802,0x24);
 6134              		.loc 1 1476 3
 6135 1658 2421     		movs	r1, #36
 6136 165a 4BF60200 		movw	r0, #47106
 6137 165e FFF7FEFF 		bl	LCD_WriteReg
1477:hardware/src/lcd.c **** 		//VGH 15V (Free pump)
1478:hardware/src/lcd.c **** 		LCD_WriteReg(0xBF00,0x01);
 6138              		.loc 1 1478 3
ARM GAS  /tmp/ccRHtd69.s 			page 144


 6139 1662 0121     		movs	r1, #1
 6140 1664 4FF43F40 		mov	r0, #48896
 6141 1668 FFF7FEFF 		bl	LCD_WriteReg
1479:hardware/src/lcd.c **** 		LCD_WriteReg(0xB300,0x0F);
 6142              		.loc 1 1479 3
 6143 166c 0F21     		movs	r1, #15
 6144 166e 4FF43340 		mov	r0, #45824
 6145 1672 FFF7FEFF 		bl	LCD_WriteReg
1480:hardware/src/lcd.c **** 		LCD_WriteReg(0xB301,0x0F);
 6146              		.loc 1 1480 3
 6147 1676 0F21     		movs	r1, #15
 6148 1678 4BF20130 		movw	r0, #45825
 6149 167c FFF7FEFF 		bl	LCD_WriteReg
1481:hardware/src/lcd.c **** 		LCD_WriteReg(0xB302,0x0F);
 6150              		.loc 1 1481 3
 6151 1680 0F21     		movs	r1, #15
 6152 1682 4BF20230 		movw	r0, #45826
 6153 1686 FFF7FEFF 		bl	LCD_WriteReg
1482:hardware/src/lcd.c **** 		//VGH ratio
1483:hardware/src/lcd.c **** 		LCD_WriteReg(0xB900,0x34);
 6154              		.loc 1 1483 3
 6155 168a 3421     		movs	r1, #52
 6156 168c 4FF43940 		mov	r0, #47360
 6157 1690 FFF7FEFF 		bl	LCD_WriteReg
1484:hardware/src/lcd.c **** 		LCD_WriteReg(0xB901,0x34);
 6158              		.loc 1 1484 3
 6159 1694 3421     		movs	r1, #52
 6160 1696 4BF60110 		movw	r0, #47361
 6161 169a FFF7FEFF 		bl	LCD_WriteReg
1485:hardware/src/lcd.c **** 		LCD_WriteReg(0xB902,0x34);
 6162              		.loc 1 1485 3
 6163 169e 3421     		movs	r1, #52
 6164 16a0 4BF60210 		movw	r0, #47362
 6165 16a4 FFF7FEFF 		bl	LCD_WriteReg
1486:hardware/src/lcd.c **** 		//VGL_REG -10V
1487:hardware/src/lcd.c **** 		LCD_WriteReg(0xB500,0x08);
 6166              		.loc 1 1487 3
 6167 16a8 0821     		movs	r1, #8
 6168 16aa 4FF43540 		mov	r0, #46336
 6169 16ae FFF7FEFF 		bl	LCD_WriteReg
1488:hardware/src/lcd.c **** 		LCD_WriteReg(0xB501,0x08);
 6170              		.loc 1 1488 3
 6171 16b2 0821     		movs	r1, #8
 6172 16b4 4BF20150 		movw	r0, #46337
 6173 16b8 FFF7FEFF 		bl	LCD_WriteReg
1489:hardware/src/lcd.c **** 		LCD_WriteReg(0xB502,0x08);
 6174              		.loc 1 1489 3
 6175 16bc 0821     		movs	r1, #8
 6176 16be 4BF20250 		movw	r0, #46338
 6177 16c2 FFF7FEFF 		bl	LCD_WriteReg
1490:hardware/src/lcd.c **** 		LCD_WriteReg(0xC200,0x03);
 6178              		.loc 1 1490 3
 6179 16c6 0321     		movs	r1, #3
 6180 16c8 4FF44240 		mov	r0, #49664
 6181 16cc FFF7FEFF 		bl	LCD_WriteReg
1491:hardware/src/lcd.c **** 		//VGLX ratio
1492:hardware/src/lcd.c **** 		LCD_WriteReg(0xBA00,0x24);
ARM GAS  /tmp/ccRHtd69.s 			page 145


 6182              		.loc 1 1492 3
 6183 16d0 2421     		movs	r1, #36
 6184 16d2 4FF43A40 		mov	r0, #47616
 6185 16d6 FFF7FEFF 		bl	LCD_WriteReg
1493:hardware/src/lcd.c **** 		LCD_WriteReg(0xBA01,0x24);
 6186              		.loc 1 1493 3
 6187 16da 2421     		movs	r1, #36
 6188 16dc 4BF60120 		movw	r0, #47617
 6189 16e0 FFF7FEFF 		bl	LCD_WriteReg
1494:hardware/src/lcd.c **** 		LCD_WriteReg(0xBA02,0x24);
 6190              		.loc 1 1494 3
 6191 16e4 2421     		movs	r1, #36
 6192 16e6 4BF60220 		movw	r0, #47618
 6193 16ea FFF7FEFF 		bl	LCD_WriteReg
1495:hardware/src/lcd.c **** 		//VGMP/VGSP 4.5V/0V
1496:hardware/src/lcd.c **** 		LCD_WriteReg(0xBC00,0x00);
 6194              		.loc 1 1496 3
 6195 16ee 0021     		movs	r1, #0
 6196 16f0 4FF43C40 		mov	r0, #48128
 6197 16f4 FFF7FEFF 		bl	LCD_WriteReg
1497:hardware/src/lcd.c **** 		LCD_WriteReg(0xBC01,0x78);
 6198              		.loc 1 1497 3
 6199 16f8 7821     		movs	r1, #120
 6200 16fa 4BF60140 		movw	r0, #48129
 6201 16fe FFF7FEFF 		bl	LCD_WriteReg
1498:hardware/src/lcd.c **** 		LCD_WriteReg(0xBC02,0x00);
 6202              		.loc 1 1498 3
 6203 1702 0021     		movs	r1, #0
 6204 1704 4BF60240 		movw	r0, #48130
 6205 1708 FFF7FEFF 		bl	LCD_WriteReg
1499:hardware/src/lcd.c **** 		//VGMN/VGSN -4.5V/0V
1500:hardware/src/lcd.c **** 		LCD_WriteReg(0xBD00,0x00);
 6206              		.loc 1 1500 3
 6207 170c 0021     		movs	r1, #0
 6208 170e 4FF43D40 		mov	r0, #48384
 6209 1712 FFF7FEFF 		bl	LCD_WriteReg
1501:hardware/src/lcd.c **** 		LCD_WriteReg(0xBD01,0x78);
 6210              		.loc 1 1501 3
 6211 1716 7821     		movs	r1, #120
 6212 1718 4BF60150 		movw	r0, #48385
 6213 171c FFF7FEFF 		bl	LCD_WriteReg
1502:hardware/src/lcd.c **** 		LCD_WriteReg(0xBD02,0x00);
 6214              		.loc 1 1502 3
 6215 1720 0021     		movs	r1, #0
 6216 1722 4BF60250 		movw	r0, #48386
 6217 1726 FFF7FEFF 		bl	LCD_WriteReg
1503:hardware/src/lcd.c **** 		//VCOM
1504:hardware/src/lcd.c **** 		LCD_WriteReg(0xBE00,0x00);
 6218              		.loc 1 1504 3
 6219 172a 0021     		movs	r1, #0
 6220 172c 4FF43E40 		mov	r0, #48640
 6221 1730 FFF7FEFF 		bl	LCD_WriteReg
1505:hardware/src/lcd.c **** 		LCD_WriteReg(0xBE01,0x64);
 6222              		.loc 1 1505 3
 6223 1734 6421     		movs	r1, #100
 6224 1736 4BF60160 		movw	r0, #48641
 6225 173a FFF7FEFF 		bl	LCD_WriteReg
ARM GAS  /tmp/ccRHtd69.s 			page 146


1506:hardware/src/lcd.c **** 		//Gamma Setting
1507:hardware/src/lcd.c **** 		LCD_WriteReg(0xD100,0x00);
 6226              		.loc 1 1507 3
 6227 173e 0021     		movs	r1, #0
 6228 1740 4FF45140 		mov	r0, #53504
 6229 1744 FFF7FEFF 		bl	LCD_WriteReg
1508:hardware/src/lcd.c **** 		LCD_WriteReg(0xD101,0x33);
 6230              		.loc 1 1508 3
 6231 1748 3321     		movs	r1, #51
 6232 174a 4DF20110 		movw	r0, #53505
 6233 174e FFF7FEFF 		bl	LCD_WriteReg
1509:hardware/src/lcd.c **** 		LCD_WriteReg(0xD102,0x00);
 6234              		.loc 1 1509 3
 6235 1752 0021     		movs	r1, #0
 6236 1754 4DF20210 		movw	r0, #53506
 6237 1758 FFF7FEFF 		bl	LCD_WriteReg
1510:hardware/src/lcd.c **** 		LCD_WriteReg(0xD103,0x34);
 6238              		.loc 1 1510 3
 6239 175c 3421     		movs	r1, #52
 6240 175e 4DF20310 		movw	r0, #53507
 6241 1762 FFF7FEFF 		bl	LCD_WriteReg
1511:hardware/src/lcd.c **** 		LCD_WriteReg(0xD104,0x00);
 6242              		.loc 1 1511 3
 6243 1766 0021     		movs	r1, #0
 6244 1768 4DF20410 		movw	r0, #53508
 6245 176c FFF7FEFF 		bl	LCD_WriteReg
1512:hardware/src/lcd.c **** 		LCD_WriteReg(0xD105,0x3A);
 6246              		.loc 1 1512 3
 6247 1770 3A21     		movs	r1, #58
 6248 1772 4DF20510 		movw	r0, #53509
 6249 1776 FFF7FEFF 		bl	LCD_WriteReg
1513:hardware/src/lcd.c **** 		LCD_WriteReg(0xD106,0x00);
 6250              		.loc 1 1513 3
 6251 177a 0021     		movs	r1, #0
 6252 177c 4DF20610 		movw	r0, #53510
 6253 1780 FFF7FEFF 		bl	LCD_WriteReg
1514:hardware/src/lcd.c **** 		LCD_WriteReg(0xD107,0x4A);
 6254              		.loc 1 1514 3
 6255 1784 4A21     		movs	r1, #74
 6256 1786 4DF20710 		movw	r0, #53511
 6257 178a FFF7FEFF 		bl	LCD_WriteReg
1515:hardware/src/lcd.c **** 		LCD_WriteReg(0xD108,0x00);
 6258              		.loc 1 1515 3
 6259 178e 0021     		movs	r1, #0
 6260 1790 4DF20810 		movw	r0, #53512
 6261 1794 FFF7FEFF 		bl	LCD_WriteReg
1516:hardware/src/lcd.c **** 		LCD_WriteReg(0xD109,0x5C);
 6262              		.loc 1 1516 3
 6263 1798 5C21     		movs	r1, #92
 6264 179a 4DF20910 		movw	r0, #53513
 6265 179e FFF7FEFF 		bl	LCD_WriteReg
1517:hardware/src/lcd.c **** 		LCD_WriteReg(0xD10A,0x00);
 6266              		.loc 1 1517 3
 6267 17a2 0021     		movs	r1, #0
 6268 17a4 4DF20A10 		movw	r0, #53514
 6269 17a8 FFF7FEFF 		bl	LCD_WriteReg
1518:hardware/src/lcd.c **** 		LCD_WriteReg(0xD10B,0x81);
ARM GAS  /tmp/ccRHtd69.s 			page 147


 6270              		.loc 1 1518 3
 6271 17ac 8121     		movs	r1, #129
 6272 17ae 4DF20B10 		movw	r0, #53515
 6273 17b2 FFF7FEFF 		bl	LCD_WriteReg
1519:hardware/src/lcd.c **** 		LCD_WriteReg(0xD10C,0x00);
 6274              		.loc 1 1519 3
 6275 17b6 0021     		movs	r1, #0
 6276 17b8 4DF20C10 		movw	r0, #53516
 6277 17bc FFF7FEFF 		bl	LCD_WriteReg
1520:hardware/src/lcd.c **** 		LCD_WriteReg(0xD10D,0xA6);
 6278              		.loc 1 1520 3
 6279 17c0 A621     		movs	r1, #166
 6280 17c2 4DF20D10 		movw	r0, #53517
 6281 17c6 FFF7FEFF 		bl	LCD_WriteReg
1521:hardware/src/lcd.c **** 		LCD_WriteReg(0xD10E,0x00);
 6282              		.loc 1 1521 3
 6283 17ca 0021     		movs	r1, #0
 6284 17cc 4DF20E10 		movw	r0, #53518
 6285 17d0 FFF7FEFF 		bl	LCD_WriteReg
1522:hardware/src/lcd.c **** 		LCD_WriteReg(0xD10F,0xE5);
 6286              		.loc 1 1522 3
 6287 17d4 E521     		movs	r1, #229
 6288 17d6 4DF20F10 		movw	r0, #53519
 6289 17da FFF7FEFF 		bl	LCD_WriteReg
1523:hardware/src/lcd.c **** 		LCD_WriteReg(0xD110,0x01);
 6290              		.loc 1 1523 3
 6291 17de 0121     		movs	r1, #1
 6292 17e0 4DF21010 		movw	r0, #53520
 6293 17e4 FFF7FEFF 		bl	LCD_WriteReg
1524:hardware/src/lcd.c **** 		LCD_WriteReg(0xD111,0x13);
 6294              		.loc 1 1524 3
 6295 17e8 1321     		movs	r1, #19
 6296 17ea 4DF21110 		movw	r0, #53521
 6297 17ee FFF7FEFF 		bl	LCD_WriteReg
1525:hardware/src/lcd.c **** 		LCD_WriteReg(0xD112,0x01);
 6298              		.loc 1 1525 3
 6299 17f2 0121     		movs	r1, #1
 6300 17f4 4DF21210 		movw	r0, #53522
 6301 17f8 FFF7FEFF 		bl	LCD_WriteReg
1526:hardware/src/lcd.c **** 		LCD_WriteReg(0xD113,0x54);
 6302              		.loc 1 1526 3
 6303 17fc 5421     		movs	r1, #84
 6304 17fe 4DF21310 		movw	r0, #53523
 6305 1802 FFF7FEFF 		bl	LCD_WriteReg
1527:hardware/src/lcd.c **** 		LCD_WriteReg(0xD114,0x01);
 6306              		.loc 1 1527 3
 6307 1806 0121     		movs	r1, #1
 6308 1808 4DF21410 		movw	r0, #53524
 6309 180c FFF7FEFF 		bl	LCD_WriteReg
1528:hardware/src/lcd.c **** 		LCD_WriteReg(0xD115,0x82);
 6310              		.loc 1 1528 3
 6311 1810 8221     		movs	r1, #130
 6312 1812 4DF21510 		movw	r0, #53525
 6313 1816 FFF7FEFF 		bl	LCD_WriteReg
1529:hardware/src/lcd.c **** 		LCD_WriteReg(0xD116,0x01);
 6314              		.loc 1 1529 3
 6315 181a 0121     		movs	r1, #1
ARM GAS  /tmp/ccRHtd69.s 			page 148


 6316 181c 4DF21610 		movw	r0, #53526
 6317 1820 FFF7FEFF 		bl	LCD_WriteReg
1530:hardware/src/lcd.c **** 		LCD_WriteReg(0xD117,0xCA);
 6318              		.loc 1 1530 3
 6319 1824 CA21     		movs	r1, #202
 6320 1826 4DF21710 		movw	r0, #53527
 6321 182a FFF7FEFF 		bl	LCD_WriteReg
1531:hardware/src/lcd.c **** 		LCD_WriteReg(0xD118,0x02);
 6322              		.loc 1 1531 3
 6323 182e 0221     		movs	r1, #2
 6324 1830 4DF21810 		movw	r0, #53528
 6325 1834 FFF7FEFF 		bl	LCD_WriteReg
1532:hardware/src/lcd.c **** 		LCD_WriteReg(0xD119,0x00);
 6326              		.loc 1 1532 3
 6327 1838 0021     		movs	r1, #0
 6328 183a 4DF21910 		movw	r0, #53529
 6329 183e FFF7FEFF 		bl	LCD_WriteReg
1533:hardware/src/lcd.c **** 		LCD_WriteReg(0xD11A,0x02);
 6330              		.loc 1 1533 3
 6331 1842 0221     		movs	r1, #2
 6332 1844 4DF21A10 		movw	r0, #53530
 6333 1848 FFF7FEFF 		bl	LCD_WriteReg
1534:hardware/src/lcd.c **** 		LCD_WriteReg(0xD11B,0x01);
 6334              		.loc 1 1534 3
 6335 184c 0121     		movs	r1, #1
 6336 184e 4DF21B10 		movw	r0, #53531
 6337 1852 FFF7FEFF 		bl	LCD_WriteReg
1535:hardware/src/lcd.c **** 		LCD_WriteReg(0xD11C,0x02);
 6338              		.loc 1 1535 3
 6339 1856 0221     		movs	r1, #2
 6340 1858 4DF21C10 		movw	r0, #53532
 6341 185c FFF7FEFF 		bl	LCD_WriteReg
1536:hardware/src/lcd.c **** 		LCD_WriteReg(0xD11D,0x34);
 6342              		.loc 1 1536 3
 6343 1860 3421     		movs	r1, #52
 6344 1862 4DF21D10 		movw	r0, #53533
 6345 1866 FFF7FEFF 		bl	LCD_WriteReg
1537:hardware/src/lcd.c **** 		LCD_WriteReg(0xD11E,0x02);
 6346              		.loc 1 1537 3
 6347 186a 0221     		movs	r1, #2
 6348 186c 4DF21E10 		movw	r0, #53534
 6349 1870 FFF7FEFF 		bl	LCD_WriteReg
1538:hardware/src/lcd.c **** 		LCD_WriteReg(0xD11F,0x67);
 6350              		.loc 1 1538 3
 6351 1874 6721     		movs	r1, #103
 6352 1876 4DF21F10 		movw	r0, #53535
 6353 187a FFF7FEFF 		bl	LCD_WriteReg
1539:hardware/src/lcd.c **** 		LCD_WriteReg(0xD120,0x02);
 6354              		.loc 1 1539 3
 6355 187e 0221     		movs	r1, #2
 6356 1880 4DF22010 		movw	r0, #53536
 6357 1884 FFF7FEFF 		bl	LCD_WriteReg
1540:hardware/src/lcd.c **** 		LCD_WriteReg(0xD121,0x84);
 6358              		.loc 1 1540 3
 6359 1888 8421     		movs	r1, #132
 6360 188a 4DF22110 		movw	r0, #53537
 6361 188e FFF7FEFF 		bl	LCD_WriteReg
ARM GAS  /tmp/ccRHtd69.s 			page 149


1541:hardware/src/lcd.c **** 		LCD_WriteReg(0xD122,0x02);
 6362              		.loc 1 1541 3
 6363 1892 0221     		movs	r1, #2
 6364 1894 4DF22210 		movw	r0, #53538
 6365 1898 FFF7FEFF 		bl	LCD_WriteReg
1542:hardware/src/lcd.c **** 		LCD_WriteReg(0xD123,0xA4);
 6366              		.loc 1 1542 3
 6367 189c A421     		movs	r1, #164
 6368 189e 4DF22310 		movw	r0, #53539
 6369 18a2 FFF7FEFF 		bl	LCD_WriteReg
1543:hardware/src/lcd.c **** 		LCD_WriteReg(0xD124,0x02);
 6370              		.loc 1 1543 3
 6371 18a6 0221     		movs	r1, #2
 6372 18a8 4DF22410 		movw	r0, #53540
 6373 18ac FFF7FEFF 		bl	LCD_WriteReg
1544:hardware/src/lcd.c **** 		LCD_WriteReg(0xD125,0xB7);
 6374              		.loc 1 1544 3
 6375 18b0 B721     		movs	r1, #183
 6376 18b2 4DF22510 		movw	r0, #53541
 6377 18b6 FFF7FEFF 		bl	LCD_WriteReg
1545:hardware/src/lcd.c **** 		LCD_WriteReg(0xD126,0x02);
 6378              		.loc 1 1545 3
 6379 18ba 0221     		movs	r1, #2
 6380 18bc 4DF22610 		movw	r0, #53542
 6381 18c0 FFF7FEFF 		bl	LCD_WriteReg
1546:hardware/src/lcd.c **** 		LCD_WriteReg(0xD127,0xCF);
 6382              		.loc 1 1546 3
 6383 18c4 CF21     		movs	r1, #207
 6384 18c6 4DF22710 		movw	r0, #53543
 6385 18ca FFF7FEFF 		bl	LCD_WriteReg
1547:hardware/src/lcd.c **** 		LCD_WriteReg(0xD128,0x02);
 6386              		.loc 1 1547 3
 6387 18ce 0221     		movs	r1, #2
 6388 18d0 4DF22810 		movw	r0, #53544
 6389 18d4 FFF7FEFF 		bl	LCD_WriteReg
1548:hardware/src/lcd.c **** 		LCD_WriteReg(0xD129,0xDE);
 6390              		.loc 1 1548 3
 6391 18d8 DE21     		movs	r1, #222
 6392 18da 4DF22910 		movw	r0, #53545
 6393 18de FFF7FEFF 		bl	LCD_WriteReg
1549:hardware/src/lcd.c **** 		LCD_WriteReg(0xD12A,0x02);
 6394              		.loc 1 1549 3
 6395 18e2 0221     		movs	r1, #2
 6396 18e4 4DF22A10 		movw	r0, #53546
 6397 18e8 FFF7FEFF 		bl	LCD_WriteReg
1550:hardware/src/lcd.c **** 		LCD_WriteReg(0xD12B,0xF2);
 6398              		.loc 1 1550 3
 6399 18ec F221     		movs	r1, #242
 6400 18ee 4DF22B10 		movw	r0, #53547
 6401 18f2 FFF7FEFF 		bl	LCD_WriteReg
1551:hardware/src/lcd.c **** 		LCD_WriteReg(0xD12C,0x02);
 6402              		.loc 1 1551 3
 6403 18f6 0221     		movs	r1, #2
 6404 18f8 4DF22C10 		movw	r0, #53548
 6405 18fc FFF7FEFF 		bl	LCD_WriteReg
1552:hardware/src/lcd.c **** 		LCD_WriteReg(0xD12D,0xFE);
 6406              		.loc 1 1552 3
ARM GAS  /tmp/ccRHtd69.s 			page 150


 6407 1900 FE21     		movs	r1, #254
 6408 1902 4DF22D10 		movw	r0, #53549
 6409 1906 FFF7FEFF 		bl	LCD_WriteReg
1553:hardware/src/lcd.c **** 		LCD_WriteReg(0xD12E,0x03);
 6410              		.loc 1 1553 3
 6411 190a 0321     		movs	r1, #3
 6412 190c 4DF22E10 		movw	r0, #53550
 6413 1910 FFF7FEFF 		bl	LCD_WriteReg
1554:hardware/src/lcd.c **** 		LCD_WriteReg(0xD12F,0x10);
 6414              		.loc 1 1554 3
 6415 1914 1021     		movs	r1, #16
 6416 1916 4DF22F10 		movw	r0, #53551
 6417 191a FFF7FEFF 		bl	LCD_WriteReg
1555:hardware/src/lcd.c **** 		LCD_WriteReg(0xD130,0x03);
 6418              		.loc 1 1555 3
 6419 191e 0321     		movs	r1, #3
 6420 1920 4DF23010 		movw	r0, #53552
 6421 1924 FFF7FEFF 		bl	LCD_WriteReg
1556:hardware/src/lcd.c **** 		LCD_WriteReg(0xD131,0x33);
 6422              		.loc 1 1556 3
 6423 1928 3321     		movs	r1, #51
 6424 192a 4DF23110 		movw	r0, #53553
 6425 192e FFF7FEFF 		bl	LCD_WriteReg
1557:hardware/src/lcd.c **** 		LCD_WriteReg(0xD132,0x03);
 6426              		.loc 1 1557 3
 6427 1932 0321     		movs	r1, #3
 6428 1934 4DF23210 		movw	r0, #53554
 6429 1938 FFF7FEFF 		bl	LCD_WriteReg
1558:hardware/src/lcd.c **** 		LCD_WriteReg(0xD133,0x6D);
 6430              		.loc 1 1558 3
 6431 193c 6D21     		movs	r1, #109
 6432 193e 4DF23310 		movw	r0, #53555
 6433 1942 FFF7FEFF 		bl	LCD_WriteReg
1559:hardware/src/lcd.c **** 		LCD_WriteReg(0xD200,0x00);
 6434              		.loc 1 1559 3
 6435 1946 0021     		movs	r1, #0
 6436 1948 4FF45240 		mov	r0, #53760
 6437 194c FFF7FEFF 		bl	LCD_WriteReg
1560:hardware/src/lcd.c **** 		LCD_WriteReg(0xD201,0x33);
 6438              		.loc 1 1560 3
 6439 1950 3321     		movs	r1, #51
 6440 1952 4DF20120 		movw	r0, #53761
 6441 1956 FFF7FEFF 		bl	LCD_WriteReg
1561:hardware/src/lcd.c **** 		LCD_WriteReg(0xD202,0x00);
 6442              		.loc 1 1561 3
 6443 195a 0021     		movs	r1, #0
 6444 195c 4DF20220 		movw	r0, #53762
 6445 1960 FFF7FEFF 		bl	LCD_WriteReg
1562:hardware/src/lcd.c **** 		LCD_WriteReg(0xD203,0x34);
 6446              		.loc 1 1562 3
 6447 1964 3421     		movs	r1, #52
 6448 1966 4DF20320 		movw	r0, #53763
 6449 196a FFF7FEFF 		bl	LCD_WriteReg
1563:hardware/src/lcd.c **** 		LCD_WriteReg(0xD204,0x00);
 6450              		.loc 1 1563 3
 6451 196e 0021     		movs	r1, #0
 6452 1970 4DF20420 		movw	r0, #53764
ARM GAS  /tmp/ccRHtd69.s 			page 151


 6453 1974 FFF7FEFF 		bl	LCD_WriteReg
1564:hardware/src/lcd.c **** 		LCD_WriteReg(0xD205,0x3A);
 6454              		.loc 1 1564 3
 6455 1978 3A21     		movs	r1, #58
 6456 197a 4DF20520 		movw	r0, #53765
 6457 197e FFF7FEFF 		bl	LCD_WriteReg
1565:hardware/src/lcd.c **** 		LCD_WriteReg(0xD206,0x00);
 6458              		.loc 1 1565 3
 6459 1982 0021     		movs	r1, #0
 6460 1984 4DF20620 		movw	r0, #53766
 6461 1988 FFF7FEFF 		bl	LCD_WriteReg
1566:hardware/src/lcd.c **** 		LCD_WriteReg(0xD207,0x4A);
 6462              		.loc 1 1566 3
 6463 198c 4A21     		movs	r1, #74
 6464 198e 4DF20720 		movw	r0, #53767
 6465 1992 FFF7FEFF 		bl	LCD_WriteReg
1567:hardware/src/lcd.c **** 		LCD_WriteReg(0xD208,0x00);
 6466              		.loc 1 1567 3
 6467 1996 0021     		movs	r1, #0
 6468 1998 4DF20820 		movw	r0, #53768
 6469 199c FFF7FEFF 		bl	LCD_WriteReg
1568:hardware/src/lcd.c **** 		LCD_WriteReg(0xD209,0x5C);
 6470              		.loc 1 1568 3
 6471 19a0 5C21     		movs	r1, #92
 6472 19a2 4DF20920 		movw	r0, #53769
 6473 19a6 FFF7FEFF 		bl	LCD_WriteReg
1569:hardware/src/lcd.c **** 		LCD_WriteReg(0xD20A,0x00);
 6474              		.loc 1 1569 3
 6475 19aa 0021     		movs	r1, #0
 6476 19ac 4DF20A20 		movw	r0, #53770
 6477 19b0 FFF7FEFF 		bl	LCD_WriteReg
1570:hardware/src/lcd.c **** 
1571:hardware/src/lcd.c **** 		LCD_WriteReg(0xD20B,0x81);
 6478              		.loc 1 1571 3
 6479 19b4 8121     		movs	r1, #129
 6480 19b6 4DF20B20 		movw	r0, #53771
 6481 19ba FFF7FEFF 		bl	LCD_WriteReg
1572:hardware/src/lcd.c **** 		LCD_WriteReg(0xD20C,0x00);
 6482              		.loc 1 1572 3
 6483 19be 0021     		movs	r1, #0
 6484 19c0 4DF20C20 		movw	r0, #53772
 6485 19c4 FFF7FEFF 		bl	LCD_WriteReg
1573:hardware/src/lcd.c **** 		LCD_WriteReg(0xD20D,0xA6);
 6486              		.loc 1 1573 3
 6487 19c8 A621     		movs	r1, #166
 6488 19ca 4DF20D20 		movw	r0, #53773
 6489 19ce FFF7FEFF 		bl	LCD_WriteReg
1574:hardware/src/lcd.c **** 		LCD_WriteReg(0xD20E,0x00);
 6490              		.loc 1 1574 3
 6491 19d2 0021     		movs	r1, #0
 6492 19d4 4DF20E20 		movw	r0, #53774
 6493 19d8 FFF7FEFF 		bl	LCD_WriteReg
1575:hardware/src/lcd.c **** 		LCD_WriteReg(0xD20F,0xE5);
 6494              		.loc 1 1575 3
 6495 19dc E521     		movs	r1, #229
 6496 19de 4DF20F20 		movw	r0, #53775
 6497 19e2 FFF7FEFF 		bl	LCD_WriteReg
ARM GAS  /tmp/ccRHtd69.s 			page 152


1576:hardware/src/lcd.c **** 		LCD_WriteReg(0xD210,0x01);
 6498              		.loc 1 1576 3
 6499 19e6 0121     		movs	r1, #1
 6500 19e8 4DF21020 		movw	r0, #53776
 6501 19ec FFF7FEFF 		bl	LCD_WriteReg
1577:hardware/src/lcd.c **** 		LCD_WriteReg(0xD211,0x13);
 6502              		.loc 1 1577 3
 6503 19f0 1321     		movs	r1, #19
 6504 19f2 4DF21120 		movw	r0, #53777
 6505 19f6 FFF7FEFF 		bl	LCD_WriteReg
1578:hardware/src/lcd.c **** 		LCD_WriteReg(0xD212,0x01);
 6506              		.loc 1 1578 3
 6507 19fa 0121     		movs	r1, #1
 6508 19fc 4DF21220 		movw	r0, #53778
 6509 1a00 FFF7FEFF 		bl	LCD_WriteReg
1579:hardware/src/lcd.c **** 		LCD_WriteReg(0xD213,0x54);
 6510              		.loc 1 1579 3
 6511 1a04 5421     		movs	r1, #84
 6512 1a06 4DF21320 		movw	r0, #53779
 6513 1a0a FFF7FEFF 		bl	LCD_WriteReg
1580:hardware/src/lcd.c **** 		LCD_WriteReg(0xD214,0x01);
 6514              		.loc 1 1580 3
 6515 1a0e 0121     		movs	r1, #1
 6516 1a10 4DF21420 		movw	r0, #53780
 6517 1a14 FFF7FEFF 		bl	LCD_WriteReg
1581:hardware/src/lcd.c **** 		LCD_WriteReg(0xD215,0x82);
 6518              		.loc 1 1581 3
 6519 1a18 8221     		movs	r1, #130
 6520 1a1a 4DF21520 		movw	r0, #53781
 6521 1a1e FFF7FEFF 		bl	LCD_WriteReg
1582:hardware/src/lcd.c **** 		LCD_WriteReg(0xD216,0x01);
 6522              		.loc 1 1582 3
 6523 1a22 0121     		movs	r1, #1
 6524 1a24 4DF21620 		movw	r0, #53782
 6525 1a28 FFF7FEFF 		bl	LCD_WriteReg
1583:hardware/src/lcd.c **** 		LCD_WriteReg(0xD217,0xCA);
 6526              		.loc 1 1583 3
 6527 1a2c CA21     		movs	r1, #202
 6528 1a2e 4DF21720 		movw	r0, #53783
 6529 1a32 FFF7FEFF 		bl	LCD_WriteReg
1584:hardware/src/lcd.c **** 		LCD_WriteReg(0xD218,0x02);
 6530              		.loc 1 1584 3
 6531 1a36 0221     		movs	r1, #2
 6532 1a38 4DF21820 		movw	r0, #53784
 6533 1a3c FFF7FEFF 		bl	LCD_WriteReg
1585:hardware/src/lcd.c **** 		LCD_WriteReg(0xD219,0x00);
 6534              		.loc 1 1585 3
 6535 1a40 0021     		movs	r1, #0
 6536 1a42 4DF21920 		movw	r0, #53785
 6537 1a46 FFF7FEFF 		bl	LCD_WriteReg
1586:hardware/src/lcd.c **** 		LCD_WriteReg(0xD21A,0x02);
 6538              		.loc 1 1586 3
 6539 1a4a 0221     		movs	r1, #2
 6540 1a4c 4DF21A20 		movw	r0, #53786
 6541 1a50 FFF7FEFF 		bl	LCD_WriteReg
1587:hardware/src/lcd.c **** 		LCD_WriteReg(0xD21B,0x01);
 6542              		.loc 1 1587 3
ARM GAS  /tmp/ccRHtd69.s 			page 153


 6543 1a54 0121     		movs	r1, #1
 6544 1a56 4DF21B20 		movw	r0, #53787
 6545 1a5a FFF7FEFF 		bl	LCD_WriteReg
1588:hardware/src/lcd.c **** 		LCD_WriteReg(0xD21C,0x02);
 6546              		.loc 1 1588 3
 6547 1a5e 0221     		movs	r1, #2
 6548 1a60 4DF21C20 		movw	r0, #53788
 6549 1a64 FFF7FEFF 		bl	LCD_WriteReg
1589:hardware/src/lcd.c **** 		LCD_WriteReg(0xD21D,0x34);
 6550              		.loc 1 1589 3
 6551 1a68 3421     		movs	r1, #52
 6552 1a6a 4DF21D20 		movw	r0, #53789
 6553 1a6e FFF7FEFF 		bl	LCD_WriteReg
1590:hardware/src/lcd.c **** 		LCD_WriteReg(0xD21E,0x02);
 6554              		.loc 1 1590 3
 6555 1a72 0221     		movs	r1, #2
 6556 1a74 4DF21E20 		movw	r0, #53790
 6557 1a78 FFF7FEFF 		bl	LCD_WriteReg
1591:hardware/src/lcd.c **** 		LCD_WriteReg(0xD21F,0x67);
 6558              		.loc 1 1591 3
 6559 1a7c 6721     		movs	r1, #103
 6560 1a7e 4DF21F20 		movw	r0, #53791
 6561 1a82 FFF7FEFF 		bl	LCD_WriteReg
1592:hardware/src/lcd.c **** 		LCD_WriteReg(0xD220,0x02);
 6562              		.loc 1 1592 3
 6563 1a86 0221     		movs	r1, #2
 6564 1a88 4DF22020 		movw	r0, #53792
 6565 1a8c FFF7FEFF 		bl	LCD_WriteReg
1593:hardware/src/lcd.c **** 		LCD_WriteReg(0xD221,0x84);
 6566              		.loc 1 1593 3
 6567 1a90 8421     		movs	r1, #132
 6568 1a92 4DF22120 		movw	r0, #53793
 6569 1a96 FFF7FEFF 		bl	LCD_WriteReg
1594:hardware/src/lcd.c **** 		LCD_WriteReg(0xD222,0x02);
 6570              		.loc 1 1594 3
 6571 1a9a 0221     		movs	r1, #2
 6572 1a9c 4DF22220 		movw	r0, #53794
 6573 1aa0 FFF7FEFF 		bl	LCD_WriteReg
1595:hardware/src/lcd.c **** 		LCD_WriteReg(0xD223,0xA4);
 6574              		.loc 1 1595 3
 6575 1aa4 A421     		movs	r1, #164
 6576 1aa6 4DF22320 		movw	r0, #53795
 6577 1aaa FFF7FEFF 		bl	LCD_WriteReg
1596:hardware/src/lcd.c **** 		LCD_WriteReg(0xD224,0x02);
 6578              		.loc 1 1596 3
 6579 1aae 0221     		movs	r1, #2
 6580 1ab0 4DF22420 		movw	r0, #53796
 6581 1ab4 FFF7FEFF 		bl	LCD_WriteReg
1597:hardware/src/lcd.c **** 		LCD_WriteReg(0xD225,0xB7);
 6582              		.loc 1 1597 3
 6583 1ab8 B721     		movs	r1, #183
 6584 1aba 4DF22520 		movw	r0, #53797
 6585 1abe FFF7FEFF 		bl	LCD_WriteReg
1598:hardware/src/lcd.c **** 		LCD_WriteReg(0xD226,0x02);
 6586              		.loc 1 1598 3
 6587 1ac2 0221     		movs	r1, #2
 6588 1ac4 4DF22620 		movw	r0, #53798
ARM GAS  /tmp/ccRHtd69.s 			page 154


 6589 1ac8 FFF7FEFF 		bl	LCD_WriteReg
1599:hardware/src/lcd.c **** 		LCD_WriteReg(0xD227,0xCF);
 6590              		.loc 1 1599 3
 6591 1acc CF21     		movs	r1, #207
 6592 1ace 4DF22720 		movw	r0, #53799
 6593 1ad2 FFF7FEFF 		bl	LCD_WriteReg
1600:hardware/src/lcd.c **** 		LCD_WriteReg(0xD228,0x02);
 6594              		.loc 1 1600 3
 6595 1ad6 0221     		movs	r1, #2
 6596 1ad8 4DF22820 		movw	r0, #53800
 6597 1adc FFF7FEFF 		bl	LCD_WriteReg
1601:hardware/src/lcd.c **** 		LCD_WriteReg(0xD229,0xDE);
 6598              		.loc 1 1601 3
 6599 1ae0 DE21     		movs	r1, #222
 6600 1ae2 4DF22920 		movw	r0, #53801
 6601 1ae6 FFF7FEFF 		bl	LCD_WriteReg
1602:hardware/src/lcd.c **** 		LCD_WriteReg(0xD22A,0x02);
 6602              		.loc 1 1602 3
 6603 1aea 0221     		movs	r1, #2
 6604 1aec 4DF22A20 		movw	r0, #53802
 6605 1af0 FFF7FEFF 		bl	LCD_WriteReg
1603:hardware/src/lcd.c **** 		LCD_WriteReg(0xD22B,0xF2);
 6606              		.loc 1 1603 3
 6607 1af4 F221     		movs	r1, #242
 6608 1af6 4DF22B20 		movw	r0, #53803
 6609 1afa FFF7FEFF 		bl	LCD_WriteReg
1604:hardware/src/lcd.c **** 		LCD_WriteReg(0xD22C,0x02);
 6610              		.loc 1 1604 3
 6611 1afe 0221     		movs	r1, #2
 6612 1b00 4DF22C20 		movw	r0, #53804
 6613 1b04 FFF7FEFF 		bl	LCD_WriteReg
1605:hardware/src/lcd.c **** 		LCD_WriteReg(0xD22D,0xFE);
 6614              		.loc 1 1605 3
 6615 1b08 FE21     		movs	r1, #254
 6616 1b0a 4DF22D20 		movw	r0, #53805
 6617 1b0e FFF7FEFF 		bl	LCD_WriteReg
1606:hardware/src/lcd.c **** 		LCD_WriteReg(0xD22E,0x03);
 6618              		.loc 1 1606 3
 6619 1b12 0321     		movs	r1, #3
 6620 1b14 4DF22E20 		movw	r0, #53806
 6621 1b18 FFF7FEFF 		bl	LCD_WriteReg
1607:hardware/src/lcd.c **** 		LCD_WriteReg(0xD22F,0x10);
 6622              		.loc 1 1607 3
 6623 1b1c 1021     		movs	r1, #16
 6624 1b1e 4DF22F20 		movw	r0, #53807
 6625 1b22 FFF7FEFF 		bl	LCD_WriteReg
1608:hardware/src/lcd.c **** 		LCD_WriteReg(0xD230,0x03);
 6626              		.loc 1 1608 3
 6627 1b26 0321     		movs	r1, #3
 6628 1b28 4DF23020 		movw	r0, #53808
 6629 1b2c FFF7FEFF 		bl	LCD_WriteReg
1609:hardware/src/lcd.c **** 		LCD_WriteReg(0xD231,0x33);
 6630              		.loc 1 1609 3
 6631 1b30 3321     		movs	r1, #51
 6632 1b32 4DF23120 		movw	r0, #53809
 6633 1b36 FFF7FEFF 		bl	LCD_WriteReg
1610:hardware/src/lcd.c **** 		LCD_WriteReg(0xD232,0x03);
ARM GAS  /tmp/ccRHtd69.s 			page 155


 6634              		.loc 1 1610 3
 6635 1b3a 0321     		movs	r1, #3
 6636 1b3c 4DF23220 		movw	r0, #53810
 6637 1b40 FFF7FEFF 		bl	LCD_WriteReg
1611:hardware/src/lcd.c **** 		LCD_WriteReg(0xD233,0x6D);
 6638              		.loc 1 1611 3
 6639 1b44 6D21     		movs	r1, #109
 6640 1b46 4DF23320 		movw	r0, #53811
 6641 1b4a FFF7FEFF 		bl	LCD_WriteReg
1612:hardware/src/lcd.c **** 		LCD_WriteReg(0xD300,0x00);
 6642              		.loc 1 1612 3
 6643 1b4e 0021     		movs	r1, #0
 6644 1b50 4FF45340 		mov	r0, #54016
 6645 1b54 FFF7FEFF 		bl	LCD_WriteReg
1613:hardware/src/lcd.c **** 		LCD_WriteReg(0xD301,0x33);
 6646              		.loc 1 1613 3
 6647 1b58 3321     		movs	r1, #51
 6648 1b5a 4DF20130 		movw	r0, #54017
 6649 1b5e FFF7FEFF 		bl	LCD_WriteReg
1614:hardware/src/lcd.c **** 		LCD_WriteReg(0xD302,0x00);
 6650              		.loc 1 1614 3
 6651 1b62 0021     		movs	r1, #0
 6652 1b64 4DF20230 		movw	r0, #54018
 6653 1b68 FFF7FEFF 		bl	LCD_WriteReg
1615:hardware/src/lcd.c **** 		LCD_WriteReg(0xD303,0x34);
 6654              		.loc 1 1615 3
 6655 1b6c 3421     		movs	r1, #52
 6656 1b6e 4DF20330 		movw	r0, #54019
 6657 1b72 FFF7FEFF 		bl	LCD_WriteReg
1616:hardware/src/lcd.c **** 		LCD_WriteReg(0xD304,0x00);
 6658              		.loc 1 1616 3
 6659 1b76 0021     		movs	r1, #0
 6660 1b78 4DF20430 		movw	r0, #54020
 6661 1b7c FFF7FEFF 		bl	LCD_WriteReg
1617:hardware/src/lcd.c **** 		LCD_WriteReg(0xD305,0x3A);
 6662              		.loc 1 1617 3
 6663 1b80 3A21     		movs	r1, #58
 6664 1b82 4DF20530 		movw	r0, #54021
 6665 1b86 FFF7FEFF 		bl	LCD_WriteReg
1618:hardware/src/lcd.c **** 		LCD_WriteReg(0xD306,0x00);
 6666              		.loc 1 1618 3
 6667 1b8a 0021     		movs	r1, #0
 6668 1b8c 4DF20630 		movw	r0, #54022
 6669 1b90 FFF7FEFF 		bl	LCD_WriteReg
1619:hardware/src/lcd.c **** 		LCD_WriteReg(0xD307,0x4A);
 6670              		.loc 1 1619 3
 6671 1b94 4A21     		movs	r1, #74
 6672 1b96 4DF20730 		movw	r0, #54023
 6673 1b9a FFF7FEFF 		bl	LCD_WriteReg
1620:hardware/src/lcd.c **** 		LCD_WriteReg(0xD308,0x00);
 6674              		.loc 1 1620 3
 6675 1b9e 0021     		movs	r1, #0
 6676 1ba0 4DF20830 		movw	r0, #54024
 6677 1ba4 FFF7FEFF 		bl	LCD_WriteReg
1621:hardware/src/lcd.c **** 		LCD_WriteReg(0xD309,0x5C);
 6678              		.loc 1 1621 3
 6679 1ba8 5C21     		movs	r1, #92
ARM GAS  /tmp/ccRHtd69.s 			page 156


 6680 1baa 4DF20930 		movw	r0, #54025
 6681 1bae FFF7FEFF 		bl	LCD_WriteReg
1622:hardware/src/lcd.c **** 		LCD_WriteReg(0xD30A,0x00);
 6682              		.loc 1 1622 3
 6683 1bb2 0021     		movs	r1, #0
 6684 1bb4 4DF20A30 		movw	r0, #54026
 6685 1bb8 FFF7FEFF 		bl	LCD_WriteReg
1623:hardware/src/lcd.c **** 
1624:hardware/src/lcd.c **** 		LCD_WriteReg(0xD30B,0x81);
 6686              		.loc 1 1624 3
 6687 1bbc 8121     		movs	r1, #129
 6688 1bbe 4DF20B30 		movw	r0, #54027
 6689 1bc2 FFF7FEFF 		bl	LCD_WriteReg
1625:hardware/src/lcd.c **** 		LCD_WriteReg(0xD30C,0x00);
 6690              		.loc 1 1625 3
 6691 1bc6 0021     		movs	r1, #0
 6692 1bc8 4DF20C30 		movw	r0, #54028
 6693 1bcc FFF7FEFF 		bl	LCD_WriteReg
1626:hardware/src/lcd.c **** 		LCD_WriteReg(0xD30D,0xA6);
 6694              		.loc 1 1626 3
 6695 1bd0 A621     		movs	r1, #166
 6696 1bd2 4DF20D30 		movw	r0, #54029
 6697 1bd6 FFF7FEFF 		bl	LCD_WriteReg
1627:hardware/src/lcd.c **** 		LCD_WriteReg(0xD30E,0x00);
 6698              		.loc 1 1627 3
 6699 1bda 0021     		movs	r1, #0
 6700 1bdc 4DF20E30 		movw	r0, #54030
 6701 1be0 FFF7FEFF 		bl	LCD_WriteReg
1628:hardware/src/lcd.c **** 		LCD_WriteReg(0xD30F,0xE5);
 6702              		.loc 1 1628 3
 6703 1be4 E521     		movs	r1, #229
 6704 1be6 4DF20F30 		movw	r0, #54031
 6705 1bea FFF7FEFF 		bl	LCD_WriteReg
1629:hardware/src/lcd.c **** 		LCD_WriteReg(0xD310,0x01);
 6706              		.loc 1 1629 3
 6707 1bee 0121     		movs	r1, #1
 6708 1bf0 4DF21030 		movw	r0, #54032
 6709 1bf4 FFF7FEFF 		bl	LCD_WriteReg
1630:hardware/src/lcd.c **** 		LCD_WriteReg(0xD311,0x13);
 6710              		.loc 1 1630 3
 6711 1bf8 1321     		movs	r1, #19
 6712 1bfa 4DF21130 		movw	r0, #54033
 6713 1bfe FFF7FEFF 		bl	LCD_WriteReg
1631:hardware/src/lcd.c **** 		LCD_WriteReg(0xD312,0x01);
 6714              		.loc 1 1631 3
 6715 1c02 0121     		movs	r1, #1
 6716 1c04 4DF21230 		movw	r0, #54034
 6717 1c08 FFF7FEFF 		bl	LCD_WriteReg
1632:hardware/src/lcd.c **** 		LCD_WriteReg(0xD313,0x54);
 6718              		.loc 1 1632 3
 6719 1c0c 5421     		movs	r1, #84
 6720 1c0e 4DF21330 		movw	r0, #54035
 6721 1c12 FFF7FEFF 		bl	LCD_WriteReg
1633:hardware/src/lcd.c **** 		LCD_WriteReg(0xD314,0x01);
 6722              		.loc 1 1633 3
 6723 1c16 0121     		movs	r1, #1
 6724 1c18 4DF21430 		movw	r0, #54036
ARM GAS  /tmp/ccRHtd69.s 			page 157


 6725 1c1c FFF7FEFF 		bl	LCD_WriteReg
1634:hardware/src/lcd.c **** 		LCD_WriteReg(0xD315,0x82);
 6726              		.loc 1 1634 3
 6727 1c20 8221     		movs	r1, #130
 6728 1c22 4DF21530 		movw	r0, #54037
 6729 1c26 FFF7FEFF 		bl	LCD_WriteReg
1635:hardware/src/lcd.c **** 		LCD_WriteReg(0xD316,0x01);
 6730              		.loc 1 1635 3
 6731 1c2a 0121     		movs	r1, #1
 6732 1c2c 4DF21630 		movw	r0, #54038
 6733 1c30 FFF7FEFF 		bl	LCD_WriteReg
1636:hardware/src/lcd.c **** 		LCD_WriteReg(0xD317,0xCA);
 6734              		.loc 1 1636 3
 6735 1c34 CA21     		movs	r1, #202
 6736 1c36 4DF21730 		movw	r0, #54039
 6737 1c3a FFF7FEFF 		bl	LCD_WriteReg
1637:hardware/src/lcd.c **** 		LCD_WriteReg(0xD318,0x02);
 6738              		.loc 1 1637 3
 6739 1c3e 0221     		movs	r1, #2
 6740 1c40 4DF21830 		movw	r0, #54040
 6741 1c44 FFF7FEFF 		bl	LCD_WriteReg
1638:hardware/src/lcd.c **** 		LCD_WriteReg(0xD319,0x00);
 6742              		.loc 1 1638 3
 6743 1c48 0021     		movs	r1, #0
 6744 1c4a 4DF21930 		movw	r0, #54041
 6745 1c4e FFF7FEFF 		bl	LCD_WriteReg
1639:hardware/src/lcd.c **** 		LCD_WriteReg(0xD31A,0x02);
 6746              		.loc 1 1639 3
 6747 1c52 0221     		movs	r1, #2
 6748 1c54 4DF21A30 		movw	r0, #54042
 6749 1c58 FFF7FEFF 		bl	LCD_WriteReg
1640:hardware/src/lcd.c **** 		LCD_WriteReg(0xD31B,0x01);
 6750              		.loc 1 1640 3
 6751 1c5c 0121     		movs	r1, #1
 6752 1c5e 4DF21B30 		movw	r0, #54043
 6753 1c62 FFF7FEFF 		bl	LCD_WriteReg
1641:hardware/src/lcd.c **** 		LCD_WriteReg(0xD31C,0x02);
 6754              		.loc 1 1641 3
 6755 1c66 0221     		movs	r1, #2
 6756 1c68 4DF21C30 		movw	r0, #54044
 6757 1c6c FFF7FEFF 		bl	LCD_WriteReg
1642:hardware/src/lcd.c **** 		LCD_WriteReg(0xD31D,0x34);
 6758              		.loc 1 1642 3
 6759 1c70 3421     		movs	r1, #52
 6760 1c72 4DF21D30 		movw	r0, #54045
 6761 1c76 FFF7FEFF 		bl	LCD_WriteReg
1643:hardware/src/lcd.c **** 		LCD_WriteReg(0xD31E,0x02);
 6762              		.loc 1 1643 3
 6763 1c7a 0221     		movs	r1, #2
 6764 1c7c 4DF21E30 		movw	r0, #54046
 6765 1c80 FFF7FEFF 		bl	LCD_WriteReg
1644:hardware/src/lcd.c **** 		LCD_WriteReg(0xD31F,0x67);
 6766              		.loc 1 1644 3
 6767 1c84 6721     		movs	r1, #103
 6768 1c86 4DF21F30 		movw	r0, #54047
 6769 1c8a FFF7FEFF 		bl	LCD_WriteReg
1645:hardware/src/lcd.c **** 		LCD_WriteReg(0xD320,0x02);
ARM GAS  /tmp/ccRHtd69.s 			page 158


 6770              		.loc 1 1645 3
 6771 1c8e 0221     		movs	r1, #2
 6772 1c90 4DF22030 		movw	r0, #54048
 6773 1c94 FFF7FEFF 		bl	LCD_WriteReg
1646:hardware/src/lcd.c **** 		LCD_WriteReg(0xD321,0x84);
 6774              		.loc 1 1646 3
 6775 1c98 8421     		movs	r1, #132
 6776 1c9a 4DF22130 		movw	r0, #54049
 6777 1c9e FFF7FEFF 		bl	LCD_WriteReg
1647:hardware/src/lcd.c **** 		LCD_WriteReg(0xD322,0x02);
 6778              		.loc 1 1647 3
 6779 1ca2 0221     		movs	r1, #2
 6780 1ca4 4DF22230 		movw	r0, #54050
 6781 1ca8 FFF7FEFF 		bl	LCD_WriteReg
1648:hardware/src/lcd.c **** 		LCD_WriteReg(0xD323,0xA4);
 6782              		.loc 1 1648 3
 6783 1cac A421     		movs	r1, #164
 6784 1cae 4DF22330 		movw	r0, #54051
 6785 1cb2 FFF7FEFF 		bl	LCD_WriteReg
1649:hardware/src/lcd.c **** 		LCD_WriteReg(0xD324,0x02);
 6786              		.loc 1 1649 3
 6787 1cb6 0221     		movs	r1, #2
 6788 1cb8 4DF22430 		movw	r0, #54052
 6789 1cbc FFF7FEFF 		bl	LCD_WriteReg
1650:hardware/src/lcd.c **** 		LCD_WriteReg(0xD325,0xB7);
 6790              		.loc 1 1650 3
 6791 1cc0 B721     		movs	r1, #183
 6792 1cc2 4DF22530 		movw	r0, #54053
 6793 1cc6 FFF7FEFF 		bl	LCD_WriteReg
1651:hardware/src/lcd.c **** 		LCD_WriteReg(0xD326,0x02);
 6794              		.loc 1 1651 3
 6795 1cca 0221     		movs	r1, #2
 6796 1ccc 4DF22630 		movw	r0, #54054
 6797 1cd0 FFF7FEFF 		bl	LCD_WriteReg
1652:hardware/src/lcd.c **** 		LCD_WriteReg(0xD327,0xCF);
 6798              		.loc 1 1652 3
 6799 1cd4 CF21     		movs	r1, #207
 6800 1cd6 4DF22730 		movw	r0, #54055
 6801 1cda FFF7FEFF 		bl	LCD_WriteReg
1653:hardware/src/lcd.c **** 		LCD_WriteReg(0xD328,0x02);
 6802              		.loc 1 1653 3
 6803 1cde 0221     		movs	r1, #2
 6804 1ce0 4DF22830 		movw	r0, #54056
 6805 1ce4 FFF7FEFF 		bl	LCD_WriteReg
1654:hardware/src/lcd.c **** 		LCD_WriteReg(0xD329,0xDE);
 6806              		.loc 1 1654 3
 6807 1ce8 DE21     		movs	r1, #222
 6808 1cea 4DF22930 		movw	r0, #54057
 6809 1cee FFF7FEFF 		bl	LCD_WriteReg
1655:hardware/src/lcd.c **** 		LCD_WriteReg(0xD32A,0x02);
 6810              		.loc 1 1655 3
 6811 1cf2 0221     		movs	r1, #2
 6812 1cf4 4DF22A30 		movw	r0, #54058
 6813 1cf8 FFF7FEFF 		bl	LCD_WriteReg
1656:hardware/src/lcd.c **** 		LCD_WriteReg(0xD32B,0xF2);
 6814              		.loc 1 1656 3
 6815 1cfc F221     		movs	r1, #242
ARM GAS  /tmp/ccRHtd69.s 			page 159


 6816 1cfe 4DF22B30 		movw	r0, #54059
 6817 1d02 FFF7FEFF 		bl	LCD_WriteReg
1657:hardware/src/lcd.c **** 		LCD_WriteReg(0xD32C,0x02);
 6818              		.loc 1 1657 3
 6819 1d06 0221     		movs	r1, #2
 6820 1d08 4DF22C30 		movw	r0, #54060
 6821 1d0c FFF7FEFF 		bl	LCD_WriteReg
1658:hardware/src/lcd.c **** 		LCD_WriteReg(0xD32D,0xFE);
 6822              		.loc 1 1658 3
 6823 1d10 FE21     		movs	r1, #254
 6824 1d12 4DF22D30 		movw	r0, #54061
 6825 1d16 FFF7FEFF 		bl	LCD_WriteReg
1659:hardware/src/lcd.c **** 		LCD_WriteReg(0xD32E,0x03);
 6826              		.loc 1 1659 3
 6827 1d1a 0321     		movs	r1, #3
 6828 1d1c 4DF22E30 		movw	r0, #54062
 6829 1d20 FFF7FEFF 		bl	LCD_WriteReg
1660:hardware/src/lcd.c **** 		LCD_WriteReg(0xD32F,0x10);
 6830              		.loc 1 1660 3
 6831 1d24 1021     		movs	r1, #16
 6832 1d26 4DF22F30 		movw	r0, #54063
 6833 1d2a FFF7FEFF 		bl	LCD_WriteReg
1661:hardware/src/lcd.c **** 		LCD_WriteReg(0xD330,0x03);
 6834              		.loc 1 1661 3
 6835 1d2e 0321     		movs	r1, #3
 6836 1d30 4DF23030 		movw	r0, #54064
 6837 1d34 FFF7FEFF 		bl	LCD_WriteReg
1662:hardware/src/lcd.c **** 		LCD_WriteReg(0xD331,0x33);
 6838              		.loc 1 1662 3
 6839 1d38 3321     		movs	r1, #51
 6840 1d3a 4DF23130 		movw	r0, #54065
 6841 1d3e FFF7FEFF 		bl	LCD_WriteReg
1663:hardware/src/lcd.c **** 		LCD_WriteReg(0xD332,0x03);
 6842              		.loc 1 1663 3
 6843 1d42 0321     		movs	r1, #3
 6844 1d44 4DF23230 		movw	r0, #54066
 6845 1d48 FFF7FEFF 		bl	LCD_WriteReg
1664:hardware/src/lcd.c **** 		LCD_WriteReg(0xD333,0x6D);
 6846              		.loc 1 1664 3
 6847 1d4c 6D21     		movs	r1, #109
 6848 1d4e 4DF23330 		movw	r0, #54067
 6849 1d52 FFF7FEFF 		bl	LCD_WriteReg
1665:hardware/src/lcd.c **** 		LCD_WriteReg(0xD400,0x00);
 6850              		.loc 1 1665 3
 6851 1d56 0021     		movs	r1, #0
 6852 1d58 4FF45440 		mov	r0, #54272
 6853 1d5c FFF7FEFF 		bl	LCD_WriteReg
1666:hardware/src/lcd.c **** 		LCD_WriteReg(0xD401,0x33);
 6854              		.loc 1 1666 3
 6855 1d60 3321     		movs	r1, #51
 6856 1d62 4DF20140 		movw	r0, #54273
 6857 1d66 FFF7FEFF 		bl	LCD_WriteReg
1667:hardware/src/lcd.c **** 		LCD_WriteReg(0xD402,0x00);
 6858              		.loc 1 1667 3
 6859 1d6a 0021     		movs	r1, #0
 6860 1d6c 4DF20240 		movw	r0, #54274
 6861 1d70 FFF7FEFF 		bl	LCD_WriteReg
ARM GAS  /tmp/ccRHtd69.s 			page 160


1668:hardware/src/lcd.c **** 		LCD_WriteReg(0xD403,0x34);
 6862              		.loc 1 1668 3
 6863 1d74 3421     		movs	r1, #52
 6864 1d76 4DF20340 		movw	r0, #54275
 6865 1d7a FFF7FEFF 		bl	LCD_WriteReg
1669:hardware/src/lcd.c **** 		LCD_WriteReg(0xD404,0x00);
 6866              		.loc 1 1669 3
 6867 1d7e 0021     		movs	r1, #0
 6868 1d80 4DF20440 		movw	r0, #54276
 6869 1d84 FFF7FEFF 		bl	LCD_WriteReg
1670:hardware/src/lcd.c **** 		LCD_WriteReg(0xD405,0x3A);
 6870              		.loc 1 1670 3
 6871 1d88 3A21     		movs	r1, #58
 6872 1d8a 4DF20540 		movw	r0, #54277
 6873 1d8e FFF7FEFF 		bl	LCD_WriteReg
1671:hardware/src/lcd.c **** 		LCD_WriteReg(0xD406,0x00);
 6874              		.loc 1 1671 3
 6875 1d92 0021     		movs	r1, #0
 6876 1d94 4DF20640 		movw	r0, #54278
 6877 1d98 FFF7FEFF 		bl	LCD_WriteReg
1672:hardware/src/lcd.c **** 		LCD_WriteReg(0xD407,0x4A);
 6878              		.loc 1 1672 3
 6879 1d9c 4A21     		movs	r1, #74
 6880 1d9e 4DF20740 		movw	r0, #54279
 6881 1da2 FFF7FEFF 		bl	LCD_WriteReg
1673:hardware/src/lcd.c **** 		LCD_WriteReg(0xD408,0x00);
 6882              		.loc 1 1673 3
 6883 1da6 0021     		movs	r1, #0
 6884 1da8 4DF20840 		movw	r0, #54280
 6885 1dac FFF7FEFF 		bl	LCD_WriteReg
1674:hardware/src/lcd.c **** 		LCD_WriteReg(0xD409,0x5C);
 6886              		.loc 1 1674 3
 6887 1db0 5C21     		movs	r1, #92
 6888 1db2 4DF20940 		movw	r0, #54281
 6889 1db6 FFF7FEFF 		bl	LCD_WriteReg
1675:hardware/src/lcd.c **** 		LCD_WriteReg(0xD40A,0x00);
 6890              		.loc 1 1675 3
 6891 1dba 0021     		movs	r1, #0
 6892 1dbc 4DF20A40 		movw	r0, #54282
 6893 1dc0 FFF7FEFF 		bl	LCD_WriteReg
1676:hardware/src/lcd.c **** 		LCD_WriteReg(0xD40B,0x81);
 6894              		.loc 1 1676 3
 6895 1dc4 8121     		movs	r1, #129
 6896 1dc6 4DF20B40 		movw	r0, #54283
 6897 1dca FFF7FEFF 		bl	LCD_WriteReg
1677:hardware/src/lcd.c **** 
1678:hardware/src/lcd.c **** 		LCD_WriteReg(0xD40C,0x00);
 6898              		.loc 1 1678 3
 6899 1dce 0021     		movs	r1, #0
 6900 1dd0 4DF20C40 		movw	r0, #54284
 6901 1dd4 FFF7FEFF 		bl	LCD_WriteReg
1679:hardware/src/lcd.c **** 		LCD_WriteReg(0xD40D,0xA6);
 6902              		.loc 1 1679 3
 6903 1dd8 A621     		movs	r1, #166
 6904 1dda 4DF20D40 		movw	r0, #54285
 6905 1dde FFF7FEFF 		bl	LCD_WriteReg
1680:hardware/src/lcd.c **** 		LCD_WriteReg(0xD40E,0x00);
ARM GAS  /tmp/ccRHtd69.s 			page 161


 6906              		.loc 1 1680 3
 6907 1de2 0021     		movs	r1, #0
 6908 1de4 4DF20E40 		movw	r0, #54286
 6909 1de8 FFF7FEFF 		bl	LCD_WriteReg
1681:hardware/src/lcd.c **** 		LCD_WriteReg(0xD40F,0xE5);
 6910              		.loc 1 1681 3
 6911 1dec E521     		movs	r1, #229
 6912 1dee 4DF20F40 		movw	r0, #54287
 6913 1df2 FFF7FEFF 		bl	LCD_WriteReg
1682:hardware/src/lcd.c **** 		LCD_WriteReg(0xD410,0x01);
 6914              		.loc 1 1682 3
 6915 1df6 0121     		movs	r1, #1
 6916 1df8 4DF21040 		movw	r0, #54288
 6917 1dfc FFF7FEFF 		bl	LCD_WriteReg
1683:hardware/src/lcd.c **** 		LCD_WriteReg(0xD411,0x13);
 6918              		.loc 1 1683 3
 6919 1e00 1321     		movs	r1, #19
 6920 1e02 4DF21140 		movw	r0, #54289
 6921 1e06 FFF7FEFF 		bl	LCD_WriteReg
1684:hardware/src/lcd.c **** 		LCD_WriteReg(0xD412,0x01);
 6922              		.loc 1 1684 3
 6923 1e0a 0121     		movs	r1, #1
 6924 1e0c 4DF21240 		movw	r0, #54290
 6925 1e10 FFF7FEFF 		bl	LCD_WriteReg
1685:hardware/src/lcd.c **** 		LCD_WriteReg(0xD413,0x54);
 6926              		.loc 1 1685 3
 6927 1e14 5421     		movs	r1, #84
 6928 1e16 4DF21340 		movw	r0, #54291
 6929 1e1a FFF7FEFF 		bl	LCD_WriteReg
1686:hardware/src/lcd.c **** 		LCD_WriteReg(0xD414,0x01);
 6930              		.loc 1 1686 3
 6931 1e1e 0121     		movs	r1, #1
 6932 1e20 4DF21440 		movw	r0, #54292
 6933 1e24 FFF7FEFF 		bl	LCD_WriteReg
1687:hardware/src/lcd.c **** 		LCD_WriteReg(0xD415,0x82);
 6934              		.loc 1 1687 3
 6935 1e28 8221     		movs	r1, #130
 6936 1e2a 4DF21540 		movw	r0, #54293
 6937 1e2e FFF7FEFF 		bl	LCD_WriteReg
1688:hardware/src/lcd.c **** 		LCD_WriteReg(0xD416,0x01);
 6938              		.loc 1 1688 3
 6939 1e32 0121     		movs	r1, #1
 6940 1e34 4DF21640 		movw	r0, #54294
 6941 1e38 FFF7FEFF 		bl	LCD_WriteReg
1689:hardware/src/lcd.c **** 		LCD_WriteReg(0xD417,0xCA);
 6942              		.loc 1 1689 3
 6943 1e3c CA21     		movs	r1, #202
 6944 1e3e 4DF21740 		movw	r0, #54295
 6945 1e42 FFF7FEFF 		bl	LCD_WriteReg
1690:hardware/src/lcd.c **** 		LCD_WriteReg(0xD418,0x02);
 6946              		.loc 1 1690 3
 6947 1e46 0221     		movs	r1, #2
 6948 1e48 4DF21840 		movw	r0, #54296
 6949 1e4c FFF7FEFF 		bl	LCD_WriteReg
1691:hardware/src/lcd.c **** 		LCD_WriteReg(0xD419,0x00);
 6950              		.loc 1 1691 3
 6951 1e50 0021     		movs	r1, #0
ARM GAS  /tmp/ccRHtd69.s 			page 162


 6952 1e52 4DF21940 		movw	r0, #54297
 6953 1e56 FFF7FEFF 		bl	LCD_WriteReg
1692:hardware/src/lcd.c **** 		LCD_WriteReg(0xD41A,0x02);
 6954              		.loc 1 1692 3
 6955 1e5a 0221     		movs	r1, #2
 6956 1e5c 4DF21A40 		movw	r0, #54298
 6957 1e60 FFF7FEFF 		bl	LCD_WriteReg
1693:hardware/src/lcd.c **** 		LCD_WriteReg(0xD41B,0x01);
 6958              		.loc 1 1693 3
 6959 1e64 0121     		movs	r1, #1
 6960 1e66 4DF21B40 		movw	r0, #54299
 6961 1e6a FFF7FEFF 		bl	LCD_WriteReg
1694:hardware/src/lcd.c **** 		LCD_WriteReg(0xD41C,0x02);
 6962              		.loc 1 1694 3
 6963 1e6e 0221     		movs	r1, #2
 6964 1e70 4DF21C40 		movw	r0, #54300
 6965 1e74 FFF7FEFF 		bl	LCD_WriteReg
1695:hardware/src/lcd.c **** 		LCD_WriteReg(0xD41D,0x34);
 6966              		.loc 1 1695 3
 6967 1e78 3421     		movs	r1, #52
 6968 1e7a 4DF21D40 		movw	r0, #54301
 6969 1e7e FFF7FEFF 		bl	LCD_WriteReg
1696:hardware/src/lcd.c **** 		LCD_WriteReg(0xD41E,0x02);
 6970              		.loc 1 1696 3
 6971 1e82 0221     		movs	r1, #2
 6972 1e84 4DF21E40 		movw	r0, #54302
 6973 1e88 FFF7FEFF 		bl	LCD_WriteReg
1697:hardware/src/lcd.c **** 		LCD_WriteReg(0xD41F,0x67);
 6974              		.loc 1 1697 3
 6975 1e8c 6721     		movs	r1, #103
 6976 1e8e 4DF21F40 		movw	r0, #54303
 6977 1e92 FFF7FEFF 		bl	LCD_WriteReg
1698:hardware/src/lcd.c **** 		LCD_WriteReg(0xD420,0x02);
 6978              		.loc 1 1698 3
 6979 1e96 0221     		movs	r1, #2
 6980 1e98 4DF22040 		movw	r0, #54304
 6981 1e9c FFF7FEFF 		bl	LCD_WriteReg
1699:hardware/src/lcd.c **** 		LCD_WriteReg(0xD421,0x84);
 6982              		.loc 1 1699 3
 6983 1ea0 8421     		movs	r1, #132
 6984 1ea2 4DF22140 		movw	r0, #54305
 6985 1ea6 FFF7FEFF 		bl	LCD_WriteReg
1700:hardware/src/lcd.c **** 		LCD_WriteReg(0xD422,0x02);
 6986              		.loc 1 1700 3
 6987 1eaa 0221     		movs	r1, #2
 6988 1eac 4DF22240 		movw	r0, #54306
 6989 1eb0 FFF7FEFF 		bl	LCD_WriteReg
1701:hardware/src/lcd.c **** 		LCD_WriteReg(0xD423,0xA4);
 6990              		.loc 1 1701 3
 6991 1eb4 A421     		movs	r1, #164
 6992 1eb6 4DF22340 		movw	r0, #54307
 6993 1eba FFF7FEFF 		bl	LCD_WriteReg
1702:hardware/src/lcd.c **** 		LCD_WriteReg(0xD424,0x02);
 6994              		.loc 1 1702 3
 6995 1ebe 0221     		movs	r1, #2
 6996 1ec0 4DF22440 		movw	r0, #54308
 6997 1ec4 FFF7FEFF 		bl	LCD_WriteReg
ARM GAS  /tmp/ccRHtd69.s 			page 163


1703:hardware/src/lcd.c **** 		LCD_WriteReg(0xD425,0xB7);
 6998              		.loc 1 1703 3
 6999 1ec8 B721     		movs	r1, #183
 7000 1eca 4DF22540 		movw	r0, #54309
 7001 1ece FFF7FEFF 		bl	LCD_WriteReg
1704:hardware/src/lcd.c **** 		LCD_WriteReg(0xD426,0x02);
 7002              		.loc 1 1704 3
 7003 1ed2 0221     		movs	r1, #2
 7004 1ed4 4DF22640 		movw	r0, #54310
 7005 1ed8 FFF7FEFF 		bl	LCD_WriteReg
1705:hardware/src/lcd.c **** 		LCD_WriteReg(0xD427,0xCF);
 7006              		.loc 1 1705 3
 7007 1edc CF21     		movs	r1, #207
 7008 1ede 4DF22740 		movw	r0, #54311
 7009 1ee2 FFF7FEFF 		bl	LCD_WriteReg
1706:hardware/src/lcd.c **** 		LCD_WriteReg(0xD428,0x02);
 7010              		.loc 1 1706 3
 7011 1ee6 0221     		movs	r1, #2
 7012 1ee8 4DF22840 		movw	r0, #54312
 7013 1eec FFF7FEFF 		bl	LCD_WriteReg
1707:hardware/src/lcd.c **** 		LCD_WriteReg(0xD429,0xDE);
 7014              		.loc 1 1707 3
 7015 1ef0 DE21     		movs	r1, #222
 7016 1ef2 4DF22940 		movw	r0, #54313
 7017 1ef6 FFF7FEFF 		bl	LCD_WriteReg
1708:hardware/src/lcd.c **** 		LCD_WriteReg(0xD42A,0x02);
 7018              		.loc 1 1708 3
 7019 1efa 0221     		movs	r1, #2
 7020 1efc 4DF22A40 		movw	r0, #54314
 7021 1f00 FFF7FEFF 		bl	LCD_WriteReg
1709:hardware/src/lcd.c **** 		LCD_WriteReg(0xD42B,0xF2);
 7022              		.loc 1 1709 3
 7023 1f04 F221     		movs	r1, #242
 7024 1f06 4DF22B40 		movw	r0, #54315
 7025 1f0a FFF7FEFF 		bl	LCD_WriteReg
1710:hardware/src/lcd.c **** 		LCD_WriteReg(0xD42C,0x02);
 7026              		.loc 1 1710 3
 7027 1f0e 0221     		movs	r1, #2
 7028 1f10 4DF22C40 		movw	r0, #54316
 7029 1f14 FFF7FEFF 		bl	LCD_WriteReg
1711:hardware/src/lcd.c **** 		LCD_WriteReg(0xD42D,0xFE);
 7030              		.loc 1 1711 3
 7031 1f18 FE21     		movs	r1, #254
 7032 1f1a 4DF22D40 		movw	r0, #54317
 7033 1f1e FFF7FEFF 		bl	LCD_WriteReg
1712:hardware/src/lcd.c **** 		LCD_WriteReg(0xD42E,0x03);
 7034              		.loc 1 1712 3
 7035 1f22 0321     		movs	r1, #3
 7036 1f24 4DF22E40 		movw	r0, #54318
 7037 1f28 FFF7FEFF 		bl	LCD_WriteReg
1713:hardware/src/lcd.c **** 		LCD_WriteReg(0xD42F,0x10);
 7038              		.loc 1 1713 3
 7039 1f2c 1021     		movs	r1, #16
 7040 1f2e 4DF22F40 		movw	r0, #54319
 7041 1f32 FFF7FEFF 		bl	LCD_WriteReg
1714:hardware/src/lcd.c **** 		LCD_WriteReg(0xD430,0x03);
 7042              		.loc 1 1714 3
ARM GAS  /tmp/ccRHtd69.s 			page 164


 7043 1f36 0321     		movs	r1, #3
 7044 1f38 4DF23040 		movw	r0, #54320
 7045 1f3c FFF7FEFF 		bl	LCD_WriteReg
1715:hardware/src/lcd.c **** 		LCD_WriteReg(0xD431,0x33);
 7046              		.loc 1 1715 3
 7047 1f40 3321     		movs	r1, #51
 7048 1f42 4DF23140 		movw	r0, #54321
 7049 1f46 FFF7FEFF 		bl	LCD_WriteReg
1716:hardware/src/lcd.c **** 		LCD_WriteReg(0xD432,0x03);
 7050              		.loc 1 1716 3
 7051 1f4a 0321     		movs	r1, #3
 7052 1f4c 4DF23240 		movw	r0, #54322
 7053 1f50 FFF7FEFF 		bl	LCD_WriteReg
1717:hardware/src/lcd.c **** 		LCD_WriteReg(0xD433,0x6D);
 7054              		.loc 1 1717 3
 7055 1f54 6D21     		movs	r1, #109
 7056 1f56 4DF23340 		movw	r0, #54323
 7057 1f5a FFF7FEFF 		bl	LCD_WriteReg
1718:hardware/src/lcd.c **** 		LCD_WriteReg(0xD500,0x00);
 7058              		.loc 1 1718 3
 7059 1f5e 0021     		movs	r1, #0
 7060 1f60 4FF45540 		mov	r0, #54528
 7061 1f64 FFF7FEFF 		bl	LCD_WriteReg
1719:hardware/src/lcd.c **** 		LCD_WriteReg(0xD501,0x33);
 7062              		.loc 1 1719 3
 7063 1f68 3321     		movs	r1, #51
 7064 1f6a 4DF20150 		movw	r0, #54529
 7065 1f6e FFF7FEFF 		bl	LCD_WriteReg
1720:hardware/src/lcd.c **** 		LCD_WriteReg(0xD502,0x00);
 7066              		.loc 1 1720 3
 7067 1f72 0021     		movs	r1, #0
 7068 1f74 4DF20250 		movw	r0, #54530
 7069 1f78 FFF7FEFF 		bl	LCD_WriteReg
1721:hardware/src/lcd.c **** 		LCD_WriteReg(0xD503,0x34);
 7070              		.loc 1 1721 3
 7071 1f7c 3421     		movs	r1, #52
 7072 1f7e 4DF20350 		movw	r0, #54531
 7073 1f82 FFF7FEFF 		bl	LCD_WriteReg
1722:hardware/src/lcd.c **** 		LCD_WriteReg(0xD504,0x00);
 7074              		.loc 1 1722 3
 7075 1f86 0021     		movs	r1, #0
 7076 1f88 4DF20450 		movw	r0, #54532
 7077 1f8c FFF7FEFF 		bl	LCD_WriteReg
1723:hardware/src/lcd.c **** 		LCD_WriteReg(0xD505,0x3A);
 7078              		.loc 1 1723 3
 7079 1f90 3A21     		movs	r1, #58
 7080 1f92 4DF20550 		movw	r0, #54533
 7081 1f96 FFF7FEFF 		bl	LCD_WriteReg
1724:hardware/src/lcd.c **** 		LCD_WriteReg(0xD506,0x00);
 7082              		.loc 1 1724 3
 7083 1f9a 0021     		movs	r1, #0
 7084 1f9c 4DF20650 		movw	r0, #54534
 7085 1fa0 FFF7FEFF 		bl	LCD_WriteReg
1725:hardware/src/lcd.c **** 		LCD_WriteReg(0xD507,0x4A);
 7086              		.loc 1 1725 3
 7087 1fa4 4A21     		movs	r1, #74
 7088 1fa6 4DF20750 		movw	r0, #54535
ARM GAS  /tmp/ccRHtd69.s 			page 165


 7089 1faa FFF7FEFF 		bl	LCD_WriteReg
1726:hardware/src/lcd.c **** 		LCD_WriteReg(0xD508,0x00);
 7090              		.loc 1 1726 3
 7091 1fae 0021     		movs	r1, #0
 7092 1fb0 4DF20850 		movw	r0, #54536
 7093 1fb4 FFF7FEFF 		bl	LCD_WriteReg
1727:hardware/src/lcd.c **** 		LCD_WriteReg(0xD509,0x5C);
 7094              		.loc 1 1727 3
 7095 1fb8 5C21     		movs	r1, #92
 7096 1fba 4DF20950 		movw	r0, #54537
 7097 1fbe FFF7FEFF 		bl	LCD_WriteReg
1728:hardware/src/lcd.c **** 		LCD_WriteReg(0xD50A,0x00);
 7098              		.loc 1 1728 3
 7099 1fc2 0021     		movs	r1, #0
 7100 1fc4 4DF20A50 		movw	r0, #54538
 7101 1fc8 FFF7FEFF 		bl	LCD_WriteReg
1729:hardware/src/lcd.c **** 		LCD_WriteReg(0xD50B,0x81);
 7102              		.loc 1 1729 3
 7103 1fcc 8121     		movs	r1, #129
 7104 1fce 4DF20B50 		movw	r0, #54539
 7105 1fd2 FFF7FEFF 		bl	LCD_WriteReg
1730:hardware/src/lcd.c **** 
1731:hardware/src/lcd.c **** 		LCD_WriteReg(0xD50C,0x00);
 7106              		.loc 1 1731 3
 7107 1fd6 0021     		movs	r1, #0
 7108 1fd8 4DF20C50 		movw	r0, #54540
 7109 1fdc FFF7FEFF 		bl	LCD_WriteReg
1732:hardware/src/lcd.c **** 		LCD_WriteReg(0xD50D,0xA6);
 7110              		.loc 1 1732 3
 7111 1fe0 A621     		movs	r1, #166
 7112 1fe2 4DF20D50 		movw	r0, #54541
 7113 1fe6 FFF7FEFF 		bl	LCD_WriteReg
1733:hardware/src/lcd.c **** 		LCD_WriteReg(0xD50E,0x00);
 7114              		.loc 1 1733 3
 7115 1fea 0021     		movs	r1, #0
 7116 1fec 4DF20E50 		movw	r0, #54542
 7117 1ff0 FFF7FEFF 		bl	LCD_WriteReg
1734:hardware/src/lcd.c **** 		LCD_WriteReg(0xD50F,0xE5);
 7118              		.loc 1 1734 3
 7119 1ff4 E521     		movs	r1, #229
 7120 1ff6 4DF20F50 		movw	r0, #54543
 7121 1ffa FFF7FEFF 		bl	LCD_WriteReg
1735:hardware/src/lcd.c **** 		LCD_WriteReg(0xD510,0x01);
 7122              		.loc 1 1735 3
 7123 1ffe 0121     		movs	r1, #1
 7124 2000 4DF21050 		movw	r0, #54544
 7125 2004 FFF7FEFF 		bl	LCD_WriteReg
1736:hardware/src/lcd.c **** 		LCD_WriteReg(0xD511,0x13);
 7126              		.loc 1 1736 3
 7127 2008 1321     		movs	r1, #19
 7128 200a 4DF21150 		movw	r0, #54545
 7129 200e FFF7FEFF 		bl	LCD_WriteReg
1737:hardware/src/lcd.c **** 		LCD_WriteReg(0xD512,0x01);
 7130              		.loc 1 1737 3
 7131 2012 0121     		movs	r1, #1
 7132 2014 4DF21250 		movw	r0, #54546
 7133 2018 FFF7FEFF 		bl	LCD_WriteReg
ARM GAS  /tmp/ccRHtd69.s 			page 166


1738:hardware/src/lcd.c **** 		LCD_WriteReg(0xD513,0x54);
 7134              		.loc 1 1738 3
 7135 201c 5421     		movs	r1, #84
 7136 201e 4DF21350 		movw	r0, #54547
 7137 2022 FFF7FEFF 		bl	LCD_WriteReg
1739:hardware/src/lcd.c **** 		LCD_WriteReg(0xD514,0x01);
 7138              		.loc 1 1739 3
 7139 2026 0121     		movs	r1, #1
 7140 2028 4DF21450 		movw	r0, #54548
 7141 202c FFF7FEFF 		bl	LCD_WriteReg
1740:hardware/src/lcd.c **** 		LCD_WriteReg(0xD515,0x82);
 7142              		.loc 1 1740 3
 7143 2030 8221     		movs	r1, #130
 7144 2032 4DF21550 		movw	r0, #54549
 7145 2036 FFF7FEFF 		bl	LCD_WriteReg
1741:hardware/src/lcd.c **** 		LCD_WriteReg(0xD516,0x01);
 7146              		.loc 1 1741 3
 7147 203a 0121     		movs	r1, #1
 7148 203c 4DF21650 		movw	r0, #54550
 7149 2040 FFF7FEFF 		bl	LCD_WriteReg
1742:hardware/src/lcd.c **** 		LCD_WriteReg(0xD517,0xCA);
 7150              		.loc 1 1742 3
 7151 2044 CA21     		movs	r1, #202
 7152 2046 4DF21750 		movw	r0, #54551
 7153 204a FFF7FEFF 		bl	LCD_WriteReg
1743:hardware/src/lcd.c **** 		LCD_WriteReg(0xD518,0x02);
 7154              		.loc 1 1743 3
 7155 204e 0221     		movs	r1, #2
 7156 2050 4DF21850 		movw	r0, #54552
 7157 2054 FFF7FEFF 		bl	LCD_WriteReg
1744:hardware/src/lcd.c **** 		LCD_WriteReg(0xD519,0x00);
 7158              		.loc 1 1744 3
 7159 2058 0021     		movs	r1, #0
 7160 205a 4DF21950 		movw	r0, #54553
 7161 205e FFF7FEFF 		bl	LCD_WriteReg
1745:hardware/src/lcd.c **** 		LCD_WriteReg(0xD51A,0x02);
 7162              		.loc 1 1745 3
 7163 2062 0221     		movs	r1, #2
 7164 2064 4DF21A50 		movw	r0, #54554
 7165 2068 FFF7FEFF 		bl	LCD_WriteReg
1746:hardware/src/lcd.c **** 		LCD_WriteReg(0xD51B,0x01);
 7166              		.loc 1 1746 3
 7167 206c 0121     		movs	r1, #1
 7168 206e 4DF21B50 		movw	r0, #54555
 7169 2072 FFF7FEFF 		bl	LCD_WriteReg
1747:hardware/src/lcd.c **** 		LCD_WriteReg(0xD51C,0x02);
 7170              		.loc 1 1747 3
 7171 2076 0221     		movs	r1, #2
 7172 2078 4DF21C50 		movw	r0, #54556
 7173 207c FFF7FEFF 		bl	LCD_WriteReg
1748:hardware/src/lcd.c **** 		LCD_WriteReg(0xD51D,0x34);
 7174              		.loc 1 1748 3
 7175 2080 3421     		movs	r1, #52
 7176 2082 4DF21D50 		movw	r0, #54557
 7177 2086 FFF7FEFF 		bl	LCD_WriteReg
1749:hardware/src/lcd.c **** 		LCD_WriteReg(0xD51E,0x02);
 7178              		.loc 1 1749 3
ARM GAS  /tmp/ccRHtd69.s 			page 167


 7179 208a 0221     		movs	r1, #2
 7180 208c 4DF21E50 		movw	r0, #54558
 7181 2090 FFF7FEFF 		bl	LCD_WriteReg
1750:hardware/src/lcd.c **** 		LCD_WriteReg(0xD51F,0x67);
 7182              		.loc 1 1750 3
 7183 2094 6721     		movs	r1, #103
 7184 2096 4DF21F50 		movw	r0, #54559
 7185 209a FFF7FEFF 		bl	LCD_WriteReg
1751:hardware/src/lcd.c **** 		LCD_WriteReg(0xD520,0x02);
 7186              		.loc 1 1751 3
 7187 209e 0221     		movs	r1, #2
 7188 20a0 4DF22050 		movw	r0, #54560
 7189 20a4 FFF7FEFF 		bl	LCD_WriteReg
1752:hardware/src/lcd.c **** 		LCD_WriteReg(0xD521,0x84);
 7190              		.loc 1 1752 3
 7191 20a8 8421     		movs	r1, #132
 7192 20aa 4DF22150 		movw	r0, #54561
 7193 20ae FFF7FEFF 		bl	LCD_WriteReg
1753:hardware/src/lcd.c **** 		LCD_WriteReg(0xD522,0x02);
 7194              		.loc 1 1753 3
 7195 20b2 0221     		movs	r1, #2
 7196 20b4 4DF22250 		movw	r0, #54562
 7197 20b8 FFF7FEFF 		bl	LCD_WriteReg
1754:hardware/src/lcd.c **** 		LCD_WriteReg(0xD523,0xA4);
 7198              		.loc 1 1754 3
 7199 20bc A421     		movs	r1, #164
 7200 20be 4DF22350 		movw	r0, #54563
 7201 20c2 FFF7FEFF 		bl	LCD_WriteReg
1755:hardware/src/lcd.c **** 		LCD_WriteReg(0xD524,0x02);
 7202              		.loc 1 1755 3
 7203 20c6 0221     		movs	r1, #2
 7204 20c8 4DF22450 		movw	r0, #54564
 7205 20cc FFF7FEFF 		bl	LCD_WriteReg
1756:hardware/src/lcd.c **** 		LCD_WriteReg(0xD525,0xB7);
 7206              		.loc 1 1756 3
 7207 20d0 B721     		movs	r1, #183
 7208 20d2 4DF22550 		movw	r0, #54565
 7209 20d6 FFF7FEFF 		bl	LCD_WriteReg
1757:hardware/src/lcd.c **** 		LCD_WriteReg(0xD526,0x02);
 7210              		.loc 1 1757 3
 7211 20da 0221     		movs	r1, #2
 7212 20dc 4DF22650 		movw	r0, #54566
 7213 20e0 FFF7FEFF 		bl	LCD_WriteReg
1758:hardware/src/lcd.c **** 		LCD_WriteReg(0xD527,0xCF);
 7214              		.loc 1 1758 3
 7215 20e4 CF21     		movs	r1, #207
 7216 20e6 4DF22750 		movw	r0, #54567
 7217 20ea FFF7FEFF 		bl	LCD_WriteReg
1759:hardware/src/lcd.c **** 		LCD_WriteReg(0xD528,0x02);
 7218              		.loc 1 1759 3
 7219 20ee 0221     		movs	r1, #2
 7220 20f0 4DF22850 		movw	r0, #54568
 7221 20f4 FFF7FEFF 		bl	LCD_WriteReg
1760:hardware/src/lcd.c **** 		LCD_WriteReg(0xD529,0xDE);
 7222              		.loc 1 1760 3
 7223 20f8 DE21     		movs	r1, #222
 7224 20fa 4DF22950 		movw	r0, #54569
ARM GAS  /tmp/ccRHtd69.s 			page 168


 7225 20fe FFF7FEFF 		bl	LCD_WriteReg
1761:hardware/src/lcd.c **** 		LCD_WriteReg(0xD52A,0x02);
 7226              		.loc 1 1761 3
 7227 2102 0221     		movs	r1, #2
 7228 2104 4DF22A50 		movw	r0, #54570
 7229 2108 FFF7FEFF 		bl	LCD_WriteReg
1762:hardware/src/lcd.c **** 		LCD_WriteReg(0xD52B,0xF2);
 7230              		.loc 1 1762 3
 7231 210c F221     		movs	r1, #242
 7232 210e 4DF22B50 		movw	r0, #54571
 7233 2112 FFF7FEFF 		bl	LCD_WriteReg
1763:hardware/src/lcd.c **** 		LCD_WriteReg(0xD52C,0x02);
 7234              		.loc 1 1763 3
 7235 2116 0221     		movs	r1, #2
 7236 2118 4DF22C50 		movw	r0, #54572
 7237 211c FFF7FEFF 		bl	LCD_WriteReg
1764:hardware/src/lcd.c **** 		LCD_WriteReg(0xD52D,0xFE);
 7238              		.loc 1 1764 3
 7239 2120 FE21     		movs	r1, #254
 7240 2122 4DF22D50 		movw	r0, #54573
 7241 2126 FFF7FEFF 		bl	LCD_WriteReg
1765:hardware/src/lcd.c **** 		LCD_WriteReg(0xD52E,0x03);
 7242              		.loc 1 1765 3
 7243 212a 0321     		movs	r1, #3
 7244 212c 4DF22E50 		movw	r0, #54574
 7245 2130 FFF7FEFF 		bl	LCD_WriteReg
1766:hardware/src/lcd.c **** 		LCD_WriteReg(0xD52F,0x10);
 7246              		.loc 1 1766 3
 7247 2134 1021     		movs	r1, #16
 7248 2136 4DF22F50 		movw	r0, #54575
 7249 213a FFF7FEFF 		bl	LCD_WriteReg
1767:hardware/src/lcd.c **** 		LCD_WriteReg(0xD530,0x03);
 7250              		.loc 1 1767 3
 7251 213e 0321     		movs	r1, #3
 7252 2140 4DF23050 		movw	r0, #54576
 7253 2144 FFF7FEFF 		bl	LCD_WriteReg
1768:hardware/src/lcd.c **** 		LCD_WriteReg(0xD531,0x33);
 7254              		.loc 1 1768 3
 7255 2148 3321     		movs	r1, #51
 7256 214a 4DF23150 		movw	r0, #54577
 7257 214e FFF7FEFF 		bl	LCD_WriteReg
1769:hardware/src/lcd.c **** 		LCD_WriteReg(0xD532,0x03);
 7258              		.loc 1 1769 3
 7259 2152 0321     		movs	r1, #3
 7260 2154 4DF23250 		movw	r0, #54578
 7261 2158 FFF7FEFF 		bl	LCD_WriteReg
1770:hardware/src/lcd.c **** 		LCD_WriteReg(0xD533,0x6D);
 7262              		.loc 1 1770 3
 7263 215c 6D21     		movs	r1, #109
 7264 215e 4DF23350 		movw	r0, #54579
 7265 2162 FFF7FEFF 		bl	LCD_WriteReg
1771:hardware/src/lcd.c **** 		LCD_WriteReg(0xD600,0x00);
 7266              		.loc 1 1771 3
 7267 2166 0021     		movs	r1, #0
 7268 2168 4FF45640 		mov	r0, #54784
 7269 216c FFF7FEFF 		bl	LCD_WriteReg
1772:hardware/src/lcd.c **** 		LCD_WriteReg(0xD601,0x33);
ARM GAS  /tmp/ccRHtd69.s 			page 169


 7270              		.loc 1 1772 3
 7271 2170 3321     		movs	r1, #51
 7272 2172 4DF20160 		movw	r0, #54785
 7273 2176 FFF7FEFF 		bl	LCD_WriteReg
1773:hardware/src/lcd.c **** 		LCD_WriteReg(0xD602,0x00);
 7274              		.loc 1 1773 3
 7275 217a 0021     		movs	r1, #0
 7276 217c 4DF20260 		movw	r0, #54786
 7277 2180 FFF7FEFF 		bl	LCD_WriteReg
1774:hardware/src/lcd.c **** 		LCD_WriteReg(0xD603,0x34);
 7278              		.loc 1 1774 3
 7279 2184 3421     		movs	r1, #52
 7280 2186 4DF20360 		movw	r0, #54787
 7281 218a FFF7FEFF 		bl	LCD_WriteReg
1775:hardware/src/lcd.c **** 		LCD_WriteReg(0xD604,0x00);
 7282              		.loc 1 1775 3
 7283 218e 0021     		movs	r1, #0
 7284 2190 4DF20460 		movw	r0, #54788
 7285 2194 FFF7FEFF 		bl	LCD_WriteReg
1776:hardware/src/lcd.c **** 		LCD_WriteReg(0xD605,0x3A);
 7286              		.loc 1 1776 3
 7287 2198 3A21     		movs	r1, #58
 7288 219a 4DF20560 		movw	r0, #54789
 7289 219e FFF7FEFF 		bl	LCD_WriteReg
1777:hardware/src/lcd.c **** 		LCD_WriteReg(0xD606,0x00);
 7290              		.loc 1 1777 3
 7291 21a2 0021     		movs	r1, #0
 7292 21a4 4DF20660 		movw	r0, #54790
 7293 21a8 FFF7FEFF 		bl	LCD_WriteReg
1778:hardware/src/lcd.c **** 		LCD_WriteReg(0xD607,0x4A);
 7294              		.loc 1 1778 3
 7295 21ac 4A21     		movs	r1, #74
 7296 21ae 4DF20760 		movw	r0, #54791
 7297 21b2 FFF7FEFF 		bl	LCD_WriteReg
1779:hardware/src/lcd.c **** 		LCD_WriteReg(0xD608,0x00);
 7298              		.loc 1 1779 3
 7299 21b6 0021     		movs	r1, #0
 7300 21b8 4DF20860 		movw	r0, #54792
 7301 21bc FFF7FEFF 		bl	LCD_WriteReg
1780:hardware/src/lcd.c **** 		LCD_WriteReg(0xD609,0x5C);
 7302              		.loc 1 1780 3
 7303 21c0 5C21     		movs	r1, #92
 7304 21c2 4DF20960 		movw	r0, #54793
 7305 21c6 FFF7FEFF 		bl	LCD_WriteReg
1781:hardware/src/lcd.c **** 		LCD_WriteReg(0xD60A,0x00);
 7306              		.loc 1 1781 3
 7307 21ca 0021     		movs	r1, #0
 7308 21cc 4DF20A60 		movw	r0, #54794
 7309 21d0 FFF7FEFF 		bl	LCD_WriteReg
1782:hardware/src/lcd.c **** 		LCD_WriteReg(0xD60B,0x81);
 7310              		.loc 1 1782 3
 7311 21d4 8121     		movs	r1, #129
 7312 21d6 4DF20B60 		movw	r0, #54795
 7313 21da FFF7FEFF 		bl	LCD_WriteReg
1783:hardware/src/lcd.c **** 
1784:hardware/src/lcd.c **** 		LCD_WriteReg(0xD60C,0x00);
 7314              		.loc 1 1784 3
ARM GAS  /tmp/ccRHtd69.s 			page 170


 7315 21de 0021     		movs	r1, #0
 7316 21e0 4DF20C60 		movw	r0, #54796
 7317 21e4 FFF7FEFF 		bl	LCD_WriteReg
1785:hardware/src/lcd.c **** 		LCD_WriteReg(0xD60D,0xA6);
 7318              		.loc 1 1785 3
 7319 21e8 A621     		movs	r1, #166
 7320 21ea 4DF20D60 		movw	r0, #54797
 7321 21ee FFF7FEFF 		bl	LCD_WriteReg
1786:hardware/src/lcd.c **** 		LCD_WriteReg(0xD60E,0x00);
 7322              		.loc 1 1786 3
 7323 21f2 0021     		movs	r1, #0
 7324 21f4 4DF20E60 		movw	r0, #54798
 7325 21f8 FFF7FEFF 		bl	LCD_WriteReg
1787:hardware/src/lcd.c **** 		LCD_WriteReg(0xD60F,0xE5);
 7326              		.loc 1 1787 3
 7327 21fc E521     		movs	r1, #229
 7328 21fe 4DF20F60 		movw	r0, #54799
 7329 2202 FFF7FEFF 		bl	LCD_WriteReg
1788:hardware/src/lcd.c **** 		LCD_WriteReg(0xD610,0x01);
 7330              		.loc 1 1788 3
 7331 2206 0121     		movs	r1, #1
 7332 2208 4DF21060 		movw	r0, #54800
 7333 220c FFF7FEFF 		bl	LCD_WriteReg
1789:hardware/src/lcd.c **** 		LCD_WriteReg(0xD611,0x13);
 7334              		.loc 1 1789 3
 7335 2210 1321     		movs	r1, #19
 7336 2212 4DF21160 		movw	r0, #54801
 7337 2216 FFF7FEFF 		bl	LCD_WriteReg
1790:hardware/src/lcd.c **** 		LCD_WriteReg(0xD612,0x01);
 7338              		.loc 1 1790 3
 7339 221a 0121     		movs	r1, #1
 7340 221c 4DF21260 		movw	r0, #54802
 7341 2220 FFF7FEFF 		bl	LCD_WriteReg
1791:hardware/src/lcd.c **** 		LCD_WriteReg(0xD613,0x54);
 7342              		.loc 1 1791 3
 7343 2224 5421     		movs	r1, #84
 7344 2226 4DF21360 		movw	r0, #54803
 7345 222a FFF7FEFF 		bl	LCD_WriteReg
1792:hardware/src/lcd.c **** 		LCD_WriteReg(0xD614,0x01);
 7346              		.loc 1 1792 3
 7347 222e 0121     		movs	r1, #1
 7348 2230 4DF21460 		movw	r0, #54804
 7349 2234 FFF7FEFF 		bl	LCD_WriteReg
1793:hardware/src/lcd.c **** 		LCD_WriteReg(0xD615,0x82);
 7350              		.loc 1 1793 3
 7351 2238 8221     		movs	r1, #130
 7352 223a 4DF21560 		movw	r0, #54805
 7353 223e FFF7FEFF 		bl	LCD_WriteReg
1794:hardware/src/lcd.c **** 		LCD_WriteReg(0xD616,0x01);
 7354              		.loc 1 1794 3
 7355 2242 0121     		movs	r1, #1
 7356 2244 4DF21660 		movw	r0, #54806
 7357 2248 FFF7FEFF 		bl	LCD_WriteReg
1795:hardware/src/lcd.c **** 		LCD_WriteReg(0xD617,0xCA);
 7358              		.loc 1 1795 3
 7359 224c CA21     		movs	r1, #202
 7360 224e 4DF21760 		movw	r0, #54807
ARM GAS  /tmp/ccRHtd69.s 			page 171


 7361 2252 FFF7FEFF 		bl	LCD_WriteReg
1796:hardware/src/lcd.c **** 		LCD_WriteReg(0xD618,0x02);
 7362              		.loc 1 1796 3
 7363 2256 0221     		movs	r1, #2
 7364 2258 4DF21860 		movw	r0, #54808
 7365 225c FFF7FEFF 		bl	LCD_WriteReg
1797:hardware/src/lcd.c **** 		LCD_WriteReg(0xD619,0x00);
 7366              		.loc 1 1797 3
 7367 2260 0021     		movs	r1, #0
 7368 2262 4DF21960 		movw	r0, #54809
 7369 2266 FFF7FEFF 		bl	LCD_WriteReg
1798:hardware/src/lcd.c **** 		LCD_WriteReg(0xD61A,0x02);
 7370              		.loc 1 1798 3
 7371 226a 0221     		movs	r1, #2
 7372 226c 4DF21A60 		movw	r0, #54810
 7373 2270 FFF7FEFF 		bl	LCD_WriteReg
1799:hardware/src/lcd.c **** 		LCD_WriteReg(0xD61B,0x01);
 7374              		.loc 1 1799 3
 7375 2274 0121     		movs	r1, #1
 7376 2276 4DF21B60 		movw	r0, #54811
 7377 227a FFF7FEFF 		bl	LCD_WriteReg
1800:hardware/src/lcd.c **** 		LCD_WriteReg(0xD61C,0x02);
 7378              		.loc 1 1800 3
 7379 227e 0221     		movs	r1, #2
 7380 2280 4DF21C60 		movw	r0, #54812
 7381 2284 FFF7FEFF 		bl	LCD_WriteReg
1801:hardware/src/lcd.c **** 		LCD_WriteReg(0xD61D,0x34);
 7382              		.loc 1 1801 3
 7383 2288 3421     		movs	r1, #52
 7384 228a 4DF21D60 		movw	r0, #54813
 7385 228e FFF7FEFF 		bl	LCD_WriteReg
1802:hardware/src/lcd.c **** 		LCD_WriteReg(0xD61E,0x02);
 7386              		.loc 1 1802 3
 7387 2292 0221     		movs	r1, #2
 7388 2294 4DF21E60 		movw	r0, #54814
 7389 2298 FFF7FEFF 		bl	LCD_WriteReg
1803:hardware/src/lcd.c **** 		LCD_WriteReg(0xD61F,0x67);
 7390              		.loc 1 1803 3
 7391 229c 6721     		movs	r1, #103
 7392 229e 4DF21F60 		movw	r0, #54815
 7393 22a2 FFF7FEFF 		bl	LCD_WriteReg
1804:hardware/src/lcd.c **** 		LCD_WriteReg(0xD620,0x02);
 7394              		.loc 1 1804 3
 7395 22a6 0221     		movs	r1, #2
 7396 22a8 4DF22060 		movw	r0, #54816
 7397 22ac FFF7FEFF 		bl	LCD_WriteReg
1805:hardware/src/lcd.c **** 		LCD_WriteReg(0xD621,0x84);
 7398              		.loc 1 1805 3
 7399 22b0 8421     		movs	r1, #132
 7400 22b2 4DF22160 		movw	r0, #54817
 7401 22b6 FFF7FEFF 		bl	LCD_WriteReg
1806:hardware/src/lcd.c **** 		LCD_WriteReg(0xD622,0x02);
 7402              		.loc 1 1806 3
 7403 22ba 0221     		movs	r1, #2
 7404 22bc 4DF22260 		movw	r0, #54818
 7405 22c0 FFF7FEFF 		bl	LCD_WriteReg
1807:hardware/src/lcd.c **** 		LCD_WriteReg(0xD623,0xA4);
ARM GAS  /tmp/ccRHtd69.s 			page 172


 7406              		.loc 1 1807 3
 7407 22c4 A421     		movs	r1, #164
 7408 22c6 4DF22360 		movw	r0, #54819
 7409 22ca FFF7FEFF 		bl	LCD_WriteReg
1808:hardware/src/lcd.c **** 		LCD_WriteReg(0xD624,0x02);
 7410              		.loc 1 1808 3
 7411 22ce 0221     		movs	r1, #2
 7412 22d0 4DF22460 		movw	r0, #54820
 7413 22d4 FFF7FEFF 		bl	LCD_WriteReg
1809:hardware/src/lcd.c **** 		LCD_WriteReg(0xD625,0xB7);
 7414              		.loc 1 1809 3
 7415 22d8 B721     		movs	r1, #183
 7416 22da 4DF22560 		movw	r0, #54821
 7417 22de FFF7FEFF 		bl	LCD_WriteReg
1810:hardware/src/lcd.c **** 		LCD_WriteReg(0xD626,0x02);
 7418              		.loc 1 1810 3
 7419 22e2 0221     		movs	r1, #2
 7420 22e4 4DF22660 		movw	r0, #54822
 7421 22e8 FFF7FEFF 		bl	LCD_WriteReg
1811:hardware/src/lcd.c **** 		LCD_WriteReg(0xD627,0xCF);
 7422              		.loc 1 1811 3
 7423 22ec CF21     		movs	r1, #207
 7424 22ee 4DF22760 		movw	r0, #54823
 7425 22f2 FFF7FEFF 		bl	LCD_WriteReg
1812:hardware/src/lcd.c **** 		LCD_WriteReg(0xD628,0x02);
 7426              		.loc 1 1812 3
 7427 22f6 0221     		movs	r1, #2
 7428 22f8 4DF22860 		movw	r0, #54824
 7429 22fc FFF7FEFF 		bl	LCD_WriteReg
1813:hardware/src/lcd.c **** 		LCD_WriteReg(0xD629,0xDE);
 7430              		.loc 1 1813 3
 7431 2300 DE21     		movs	r1, #222
 7432 2302 4DF22960 		movw	r0, #54825
 7433 2306 FFF7FEFF 		bl	LCD_WriteReg
1814:hardware/src/lcd.c **** 		LCD_WriteReg(0xD62A,0x02);
 7434              		.loc 1 1814 3
 7435 230a 0221     		movs	r1, #2
 7436 230c 4DF22A60 		movw	r0, #54826
 7437 2310 FFF7FEFF 		bl	LCD_WriteReg
1815:hardware/src/lcd.c **** 		LCD_WriteReg(0xD62B,0xF2);
 7438              		.loc 1 1815 3
 7439 2314 F221     		movs	r1, #242
 7440 2316 4DF22B60 		movw	r0, #54827
 7441 231a FFF7FEFF 		bl	LCD_WriteReg
1816:hardware/src/lcd.c **** 		LCD_WriteReg(0xD62C,0x02);
 7442              		.loc 1 1816 3
 7443 231e 0221     		movs	r1, #2
 7444 2320 4DF22C60 		movw	r0, #54828
 7445 2324 FFF7FEFF 		bl	LCD_WriteReg
1817:hardware/src/lcd.c **** 		LCD_WriteReg(0xD62D,0xFE);
 7446              		.loc 1 1817 3
 7447 2328 FE21     		movs	r1, #254
 7448 232a 4DF22D60 		movw	r0, #54829
 7449 232e FFF7FEFF 		bl	LCD_WriteReg
1818:hardware/src/lcd.c **** 		LCD_WriteReg(0xD62E,0x03);
 7450              		.loc 1 1818 3
 7451 2332 0321     		movs	r1, #3
ARM GAS  /tmp/ccRHtd69.s 			page 173


 7452 2334 4DF22E60 		movw	r0, #54830
 7453 2338 FFF7FEFF 		bl	LCD_WriteReg
1819:hardware/src/lcd.c **** 		LCD_WriteReg(0xD62F,0x10);
 7454              		.loc 1 1819 3
 7455 233c 1021     		movs	r1, #16
 7456 233e 4DF22F60 		movw	r0, #54831
 7457 2342 FFF7FEFF 		bl	LCD_WriteReg
1820:hardware/src/lcd.c **** 		LCD_WriteReg(0xD630,0x03);
 7458              		.loc 1 1820 3
 7459 2346 0321     		movs	r1, #3
 7460 2348 4DF23060 		movw	r0, #54832
 7461 234c FFF7FEFF 		bl	LCD_WriteReg
1821:hardware/src/lcd.c **** 		LCD_WriteReg(0xD631,0x33);
 7462              		.loc 1 1821 3
 7463 2350 3321     		movs	r1, #51
 7464 2352 4DF23160 		movw	r0, #54833
 7465 2356 FFF7FEFF 		bl	LCD_WriteReg
1822:hardware/src/lcd.c **** 		LCD_WriteReg(0xD632,0x03);
 7466              		.loc 1 1822 3
 7467 235a 0321     		movs	r1, #3
 7468 235c 4DF23260 		movw	r0, #54834
 7469 2360 FFF7FEFF 		bl	LCD_WriteReg
1823:hardware/src/lcd.c **** 		LCD_WriteReg(0xD633,0x6D);
 7470              		.loc 1 1823 3
 7471 2364 6D21     		movs	r1, #109
 7472 2366 4DF23360 		movw	r0, #54835
 7473 236a FFF7FEFF 		bl	LCD_WriteReg
1824:hardware/src/lcd.c **** 		//LV2 Page 0 enable
1825:hardware/src/lcd.c **** 		LCD_WriteReg(0xF000,0x55);
 7474              		.loc 1 1825 3
 7475 236e 5521     		movs	r1, #85
 7476 2370 4FF47040 		mov	r0, #61440
 7477 2374 FFF7FEFF 		bl	LCD_WriteReg
1826:hardware/src/lcd.c **** 		LCD_WriteReg(0xF001,0xAA);
 7478              		.loc 1 1826 3
 7479 2378 AA21     		movs	r1, #170
 7480 237a 4FF20100 		movw	r0, #61441
 7481 237e FFF7FEFF 		bl	LCD_WriteReg
1827:hardware/src/lcd.c **** 		LCD_WriteReg(0xF002,0x52);
 7482              		.loc 1 1827 3
 7483 2382 5221     		movs	r1, #82
 7484 2384 4FF20200 		movw	r0, #61442
 7485 2388 FFF7FEFF 		bl	LCD_WriteReg
1828:hardware/src/lcd.c **** 		LCD_WriteReg(0xF003,0x08);
 7486              		.loc 1 1828 3
 7487 238c 0821     		movs	r1, #8
 7488 238e 4FF20300 		movw	r0, #61443
 7489 2392 FFF7FEFF 		bl	LCD_WriteReg
1829:hardware/src/lcd.c **** 		LCD_WriteReg(0xF004,0x00);
 7490              		.loc 1 1829 3
 7491 2396 0021     		movs	r1, #0
 7492 2398 4FF20400 		movw	r0, #61444
 7493 239c FFF7FEFF 		bl	LCD_WriteReg
1830:hardware/src/lcd.c **** 		//Display control
1831:hardware/src/lcd.c **** 		LCD_WriteReg(0xB100, 0xCC);
 7494              		.loc 1 1831 3
 7495 23a0 CC21     		movs	r1, #204
ARM GAS  /tmp/ccRHtd69.s 			page 174


 7496 23a2 4FF43140 		mov	r0, #45312
 7497 23a6 FFF7FEFF 		bl	LCD_WriteReg
1832:hardware/src/lcd.c **** 		LCD_WriteReg(0xB101, 0x00);
 7498              		.loc 1 1832 3
 7499 23aa 0021     		movs	r1, #0
 7500 23ac 4BF20110 		movw	r0, #45313
 7501 23b0 FFF7FEFF 		bl	LCD_WriteReg
1833:hardware/src/lcd.c **** 		//Source hold time
1834:hardware/src/lcd.c **** 		LCD_WriteReg(0xB600,0x05);
 7502              		.loc 1 1834 3
 7503 23b4 0521     		movs	r1, #5
 7504 23b6 4FF43640 		mov	r0, #46592
 7505 23ba FFF7FEFF 		bl	LCD_WriteReg
1835:hardware/src/lcd.c **** 		//Gate EQ control
1836:hardware/src/lcd.c **** 		LCD_WriteReg(0xB700,0x70);
 7506              		.loc 1 1836 3
 7507 23be 7021     		movs	r1, #112
 7508 23c0 4FF43740 		mov	r0, #46848
 7509 23c4 FFF7FEFF 		bl	LCD_WriteReg
1837:hardware/src/lcd.c **** 		LCD_WriteReg(0xB701,0x70);
 7510              		.loc 1 1837 3
 7511 23c8 7021     		movs	r1, #112
 7512 23ca 4BF20170 		movw	r0, #46849
 7513 23ce FFF7FEFF 		bl	LCD_WriteReg
1838:hardware/src/lcd.c **** 		//Source EQ control (Mode 2)
1839:hardware/src/lcd.c **** 		LCD_WriteReg(0xB800,0x01);
 7514              		.loc 1 1839 3
 7515 23d2 0121     		movs	r1, #1
 7516 23d4 4FF43840 		mov	r0, #47104
 7517 23d8 FFF7FEFF 		bl	LCD_WriteReg
1840:hardware/src/lcd.c **** 		LCD_WriteReg(0xB801,0x03);
 7518              		.loc 1 1840 3
 7519 23dc 0321     		movs	r1, #3
 7520 23de 4BF60100 		movw	r0, #47105
 7521 23e2 FFF7FEFF 		bl	LCD_WriteReg
1841:hardware/src/lcd.c **** 		LCD_WriteReg(0xB802,0x03);
 7522              		.loc 1 1841 3
 7523 23e6 0321     		movs	r1, #3
 7524 23e8 4BF60200 		movw	r0, #47106
 7525 23ec FFF7FEFF 		bl	LCD_WriteReg
1842:hardware/src/lcd.c **** 		LCD_WriteReg(0xB803,0x03);
 7526              		.loc 1 1842 3
 7527 23f0 0321     		movs	r1, #3
 7528 23f2 4BF60300 		movw	r0, #47107
 7529 23f6 FFF7FEFF 		bl	LCD_WriteReg
1843:hardware/src/lcd.c **** 		//Inversion mode (2-dot)
1844:hardware/src/lcd.c **** 		LCD_WriteReg(0xBC00,0x02);
 7530              		.loc 1 1844 3
 7531 23fa 0221     		movs	r1, #2
 7532 23fc 4FF43C40 		mov	r0, #48128
 7533 2400 FFF7FEFF 		bl	LCD_WriteReg
1845:hardware/src/lcd.c **** 		LCD_WriteReg(0xBC01,0x00);
 7534              		.loc 1 1845 3
 7535 2404 0021     		movs	r1, #0
 7536 2406 4BF60140 		movw	r0, #48129
 7537 240a FFF7FEFF 		bl	LCD_WriteReg
1846:hardware/src/lcd.c **** 		LCD_WriteReg(0xBC02,0x00);
ARM GAS  /tmp/ccRHtd69.s 			page 175


 7538              		.loc 1 1846 3
 7539 240e 0021     		movs	r1, #0
 7540 2410 4BF60240 		movw	r0, #48130
 7541 2414 FFF7FEFF 		bl	LCD_WriteReg
1847:hardware/src/lcd.c **** 		//Timing control 4H w/ 4-delay
1848:hardware/src/lcd.c **** 		LCD_WriteReg(0xC900,0xD0);
 7542              		.loc 1 1848 3
 7543 2418 D021     		movs	r1, #208
 7544 241a 4FF44940 		mov	r0, #51456
 7545 241e FFF7FEFF 		bl	LCD_WriteReg
1849:hardware/src/lcd.c **** 		LCD_WriteReg(0xC901,0x02);
 7546              		.loc 1 1849 3
 7547 2422 0221     		movs	r1, #2
 7548 2424 4CF60110 		movw	r0, #51457
 7549 2428 FFF7FEFF 		bl	LCD_WriteReg
1850:hardware/src/lcd.c **** 		LCD_WriteReg(0xC902,0x50);
 7550              		.loc 1 1850 3
 7551 242c 5021     		movs	r1, #80
 7552 242e 4CF60210 		movw	r0, #51458
 7553 2432 FFF7FEFF 		bl	LCD_WriteReg
1851:hardware/src/lcd.c **** 		LCD_WriteReg(0xC903,0x50);
 7554              		.loc 1 1851 3
 7555 2436 5021     		movs	r1, #80
 7556 2438 4CF60310 		movw	r0, #51459
 7557 243c FFF7FEFF 		bl	LCD_WriteReg
1852:hardware/src/lcd.c **** 		LCD_WriteReg(0xC904,0x50);
 7558              		.loc 1 1852 3
 7559 2440 5021     		movs	r1, #80
 7560 2442 4CF60410 		movw	r0, #51460
 7561 2446 FFF7FEFF 		bl	LCD_WriteReg
1853:hardware/src/lcd.c **** 		LCD_WriteReg(0x3500,0x00);
 7562              		.loc 1 1853 3
 7563 244a 0021     		movs	r1, #0
 7564 244c 4FF45450 		mov	r0, #13568
 7565 2450 FFF7FEFF 		bl	LCD_WriteReg
1854:hardware/src/lcd.c **** 		LCD_WriteReg(0x3A00,0x55);  //16-bit/pixel
 7566              		.loc 1 1854 3
 7567 2454 5521     		movs	r1, #85
 7568 2456 4FF46850 		mov	r0, #14848
 7569 245a FFF7FEFF 		bl	LCD_WriteReg
1855:hardware/src/lcd.c **** 		LCD_WR_REG(0x1100);
 7570              		.loc 1 1855 3
 7571 245e 4FF48850 		mov	r0, #4352
 7572 2462 FFF7FEFF 		bl	LCD_WR_REG
1856:hardware/src/lcd.c **** 		delay_us(120);
 7573              		.loc 1 1856 3
 7574 2466 7820     		movs	r0, #120
 7575 2468 FFF7FEFF 		bl	delay_us
1857:hardware/src/lcd.c **** 		LCD_WR_REG(0x2900);
 7576              		.loc 1 1857 3
 7577 246c 4FF42450 		mov	r0, #10496
 7578 2470 FFF7FEFF 		bl	LCD_WR_REG
 7579 2474 01F062B9 		b	.L172
 7580              	.L175:
1858:hardware/src/lcd.c **** 	}else if(lcddev.id==0x9325)//9325
 7581              		.loc 1 1858 17
 7582 2478 EC4B     		ldr	r3, .L197
ARM GAS  /tmp/ccRHtd69.s 			page 176


 7583 247a 9B88     		ldrh	r3, [r3, #4]
 7584              		.loc 1 1858 10
 7585 247c 49F22532 		movw	r2, #37669
 7586 2480 9342     		cmp	r3, r2
 7587 2482 40F0D780 		bne	.L176
1859:hardware/src/lcd.c **** 	{
1860:hardware/src/lcd.c **** 		LCD_WriteReg(0x00E5,0x78F0); 
 7588              		.loc 1 1860 3
 7589 2486 47F6F001 		movw	r1, #30960
 7590 248a E520     		movs	r0, #229
 7591 248c FFF7FEFF 		bl	LCD_WriteReg
1861:hardware/src/lcd.c **** 		LCD_WriteReg(0x0001,0x0100); 
 7592              		.loc 1 1861 3
 7593 2490 4FF48071 		mov	r1, #256
 7594 2494 0120     		movs	r0, #1
 7595 2496 FFF7FEFF 		bl	LCD_WriteReg
1862:hardware/src/lcd.c **** 		LCD_WriteReg(0x0002,0x0700); 
 7596              		.loc 1 1862 3
 7597 249a 4FF4E061 		mov	r1, #1792
 7598 249e 0220     		movs	r0, #2
 7599 24a0 FFF7FEFF 		bl	LCD_WriteReg
1863:hardware/src/lcd.c **** 		LCD_WriteReg(0x0003,0x1030); 
 7600              		.loc 1 1863 3
 7601 24a4 41F23001 		movw	r1, #4144
 7602 24a8 0320     		movs	r0, #3
 7603 24aa FFF7FEFF 		bl	LCD_WriteReg
1864:hardware/src/lcd.c **** 		LCD_WriteReg(0x0004,0x0000); 
 7604              		.loc 1 1864 3
 7605 24ae 0021     		movs	r1, #0
 7606 24b0 0420     		movs	r0, #4
 7607 24b2 FFF7FEFF 		bl	LCD_WriteReg
1865:hardware/src/lcd.c **** 		LCD_WriteReg(0x0008,0x0202);  
 7608              		.loc 1 1865 3
 7609 24b6 40F20221 		movw	r1, #514
 7610 24ba 0820     		movs	r0, #8
 7611 24bc FFF7FEFF 		bl	LCD_WriteReg
1866:hardware/src/lcd.c **** 		LCD_WriteReg(0x0009,0x0000);
 7612              		.loc 1 1866 3
 7613 24c0 0021     		movs	r1, #0
 7614 24c2 0920     		movs	r0, #9
 7615 24c4 FFF7FEFF 		bl	LCD_WriteReg
1867:hardware/src/lcd.c **** 		LCD_WriteReg(0x000A,0x0000); 
 7616              		.loc 1 1867 3
 7617 24c8 0021     		movs	r1, #0
 7618 24ca 0A20     		movs	r0, #10
 7619 24cc FFF7FEFF 		bl	LCD_WriteReg
1868:hardware/src/lcd.c **** 		LCD_WriteReg(0x000C,0x0000); 
 7620              		.loc 1 1868 3
 7621 24d0 0021     		movs	r1, #0
 7622 24d2 0C20     		movs	r0, #12
 7623 24d4 FFF7FEFF 		bl	LCD_WriteReg
1869:hardware/src/lcd.c **** 		LCD_WriteReg(0x000D,0x0000);
 7624              		.loc 1 1869 3
 7625 24d8 0021     		movs	r1, #0
 7626 24da 0D20     		movs	r0, #13
 7627 24dc FFF7FEFF 		bl	LCD_WriteReg
1870:hardware/src/lcd.c **** 		LCD_WriteReg(0x000F,0x0000);
ARM GAS  /tmp/ccRHtd69.s 			page 177


 7628              		.loc 1 1870 3
 7629 24e0 0021     		movs	r1, #0
 7630 24e2 0F20     		movs	r0, #15
 7631 24e4 FFF7FEFF 		bl	LCD_WriteReg
1871:hardware/src/lcd.c **** 		//power on sequence VGHVGL
1872:hardware/src/lcd.c **** 		LCD_WriteReg(0x0010,0x0000);   
 7632              		.loc 1 1872 3
 7633 24e8 0021     		movs	r1, #0
 7634 24ea 1020     		movs	r0, #16
 7635 24ec FFF7FEFF 		bl	LCD_WriteReg
1873:hardware/src/lcd.c **** 		LCD_WriteReg(0x0011,0x0007);  
 7636              		.loc 1 1873 3
 7637 24f0 0721     		movs	r1, #7
 7638 24f2 1120     		movs	r0, #17
 7639 24f4 FFF7FEFF 		bl	LCD_WriteReg
1874:hardware/src/lcd.c **** 		LCD_WriteReg(0x0012,0x0000);  
 7640              		.loc 1 1874 3
 7641 24f8 0021     		movs	r1, #0
 7642 24fa 1220     		movs	r0, #18
 7643 24fc FFF7FEFF 		bl	LCD_WriteReg
1875:hardware/src/lcd.c **** 		LCD_WriteReg(0x0013,0x0000); 
 7644              		.loc 1 1875 3
 7645 2500 0021     		movs	r1, #0
 7646 2502 1320     		movs	r0, #19
 7647 2504 FFF7FEFF 		bl	LCD_WriteReg
1876:hardware/src/lcd.c **** 		LCD_WriteReg(0x0007,0x0000); 
 7648              		.loc 1 1876 3
 7649 2508 0021     		movs	r1, #0
 7650 250a 0720     		movs	r0, #7
 7651 250c FFF7FEFF 		bl	LCD_WriteReg
1877:hardware/src/lcd.c **** 		//vgh 
1878:hardware/src/lcd.c **** 		LCD_WriteReg(0x0010,0x1690);   
 7652              		.loc 1 1878 3
 7653 2510 41F29061 		movw	r1, #5776
 7654 2514 1020     		movs	r0, #16
 7655 2516 FFF7FEFF 		bl	LCD_WriteReg
1879:hardware/src/lcd.c **** 		LCD_WriteReg(0x0011,0x0227);
 7656              		.loc 1 1879 3
 7657 251a 40F22721 		movw	r1, #551
 7658 251e 1120     		movs	r0, #17
 7659 2520 FFF7FEFF 		bl	LCD_WriteReg
1880:hardware/src/lcd.c **** 		//delayms(100);
1881:hardware/src/lcd.c **** 		//vregiout 
1882:hardware/src/lcd.c **** 		LCD_WriteReg(0x0012,0x009D); //0x001b
 7660              		.loc 1 1882 3
 7661 2524 9D21     		movs	r1, #157
 7662 2526 1220     		movs	r0, #18
 7663 2528 FFF7FEFF 		bl	LCD_WriteReg
1883:hardware/src/lcd.c **** 		//delayms(100); 
1884:hardware/src/lcd.c **** 		//vom amplitude
1885:hardware/src/lcd.c **** 		LCD_WriteReg(0x0013,0x1900);
 7664              		.loc 1 1885 3
 7665 252c 4FF4C851 		mov	r1, #6400
 7666 2530 1320     		movs	r0, #19
 7667 2532 FFF7FEFF 		bl	LCD_WriteReg
1886:hardware/src/lcd.c **** 		//delayms(100); 
1887:hardware/src/lcd.c **** 		//vom H
ARM GAS  /tmp/ccRHtd69.s 			page 178


1888:hardware/src/lcd.c **** 		LCD_WriteReg(0x0029,0x0025); 
 7668              		.loc 1 1888 3
 7669 2536 2521     		movs	r1, #37
 7670 2538 2920     		movs	r0, #41
 7671 253a FFF7FEFF 		bl	LCD_WriteReg
1889:hardware/src/lcd.c **** 		LCD_WriteReg(0x002B,0x000D); 
 7672              		.loc 1 1889 3
 7673 253e 0D21     		movs	r1, #13
 7674 2540 2B20     		movs	r0, #43
 7675 2542 FFF7FEFF 		bl	LCD_WriteReg
1890:hardware/src/lcd.c **** 		//gamma
1891:hardware/src/lcd.c **** 		LCD_WriteReg(0x0030,0x0007);
 7676              		.loc 1 1891 3
 7677 2546 0721     		movs	r1, #7
 7678 2548 3020     		movs	r0, #48
 7679 254a FFF7FEFF 		bl	LCD_WriteReg
1892:hardware/src/lcd.c **** 		LCD_WriteReg(0x0031,0x0303);
 7680              		.loc 1 1892 3
 7681 254e 40F20331 		movw	r1, #771
 7682 2552 3120     		movs	r0, #49
 7683 2554 FFF7FEFF 		bl	LCD_WriteReg
1893:hardware/src/lcd.c **** 		LCD_WriteReg(0x0032,0x0003);// 0006
 7684              		.loc 1 1893 3
 7685 2558 0321     		movs	r1, #3
 7686 255a 3220     		movs	r0, #50
 7687 255c FFF7FEFF 		bl	LCD_WriteReg
1894:hardware/src/lcd.c **** 		LCD_WriteReg(0x0035,0x0206);
 7688              		.loc 1 1894 3
 7689 2560 40F20621 		movw	r1, #518
 7690 2564 3520     		movs	r0, #53
 7691 2566 FFF7FEFF 		bl	LCD_WriteReg
1895:hardware/src/lcd.c **** 		LCD_WriteReg(0x0036,0x0008);
 7692              		.loc 1 1895 3
 7693 256a 0821     		movs	r1, #8
 7694 256c 3620     		movs	r0, #54
 7695 256e FFF7FEFF 		bl	LCD_WriteReg
1896:hardware/src/lcd.c **** 		LCD_WriteReg(0x0037,0x0406); 
 7696              		.loc 1 1896 3
 7697 2572 40F20641 		movw	r1, #1030
 7698 2576 3720     		movs	r0, #55
 7699 2578 FFF7FEFF 		bl	LCD_WriteReg
1897:hardware/src/lcd.c **** 		LCD_WriteReg(0x0038,0x0304);//0200
 7700              		.loc 1 1897 3
 7701 257c 4FF44171 		mov	r1, #772
 7702 2580 3820     		movs	r0, #56
 7703 2582 FFF7FEFF 		bl	LCD_WriteReg
1898:hardware/src/lcd.c **** 		LCD_WriteReg(0x0039,0x0007); 
 7704              		.loc 1 1898 3
 7705 2586 0721     		movs	r1, #7
 7706 2588 3920     		movs	r0, #57
 7707 258a FFF7FEFF 		bl	LCD_WriteReg
1899:hardware/src/lcd.c **** 		LCD_WriteReg(0x003C,0x0602);// 0504
 7708              		.loc 1 1899 3
 7709 258e 40F20261 		movw	r1, #1538
 7710 2592 3C20     		movs	r0, #60
 7711 2594 FFF7FEFF 		bl	LCD_WriteReg
1900:hardware/src/lcd.c **** 		LCD_WriteReg(0x003D,0x0008); 
ARM GAS  /tmp/ccRHtd69.s 			page 179


 7712              		.loc 1 1900 3
 7713 2598 0821     		movs	r1, #8
 7714 259a 3D20     		movs	r0, #61
 7715 259c FFF7FEFF 		bl	LCD_WriteReg
1901:hardware/src/lcd.c **** 		//ram
1902:hardware/src/lcd.c **** 		LCD_WriteReg(0x0050,0x0000); 
 7716              		.loc 1 1902 3
 7717 25a0 0021     		movs	r1, #0
 7718 25a2 5020     		movs	r0, #80
 7719 25a4 FFF7FEFF 		bl	LCD_WriteReg
1903:hardware/src/lcd.c **** 		LCD_WriteReg(0x0051,0x00EF);
 7720              		.loc 1 1903 3
 7721 25a8 EF21     		movs	r1, #239
 7722 25aa 5120     		movs	r0, #81
 7723 25ac FFF7FEFF 		bl	LCD_WriteReg
1904:hardware/src/lcd.c **** 		LCD_WriteReg(0x0052,0x0000); 
 7724              		.loc 1 1904 3
 7725 25b0 0021     		movs	r1, #0
 7726 25b2 5220     		movs	r0, #82
 7727 25b4 FFF7FEFF 		bl	LCD_WriteReg
1905:hardware/src/lcd.c **** 		LCD_WriteReg(0x0053,0x013F);  
 7728              		.loc 1 1905 3
 7729 25b8 40F23F11 		movw	r1, #319
 7730 25bc 5320     		movs	r0, #83
 7731 25be FFF7FEFF 		bl	LCD_WriteReg
1906:hardware/src/lcd.c **** 		LCD_WriteReg(0x0060,0xA700); 
 7732              		.loc 1 1906 3
 7733 25c2 4FF42741 		mov	r1, #42752
 7734 25c6 6020     		movs	r0, #96
 7735 25c8 FFF7FEFF 		bl	LCD_WriteReg
1907:hardware/src/lcd.c **** 		LCD_WriteReg(0x0061,0x0001); 
 7736              		.loc 1 1907 3
 7737 25cc 0121     		movs	r1, #1
 7738 25ce 6120     		movs	r0, #97
 7739 25d0 FFF7FEFF 		bl	LCD_WriteReg
1908:hardware/src/lcd.c **** 		LCD_WriteReg(0x006A,0x0000); 
 7740              		.loc 1 1908 3
 7741 25d4 0021     		movs	r1, #0
 7742 25d6 6A20     		movs	r0, #106
 7743 25d8 FFF7FEFF 		bl	LCD_WriteReg
1909:hardware/src/lcd.c **** 		//
1910:hardware/src/lcd.c **** 		LCD_WriteReg(0x0080,0x0000); 
 7744              		.loc 1 1910 3
 7745 25dc 0021     		movs	r1, #0
 7746 25de 8020     		movs	r0, #128
 7747 25e0 FFF7FEFF 		bl	LCD_WriteReg
1911:hardware/src/lcd.c **** 		LCD_WriteReg(0x0081,0x0000); 
 7748              		.loc 1 1911 3
 7749 25e4 0021     		movs	r1, #0
 7750 25e6 8120     		movs	r0, #129
 7751 25e8 FFF7FEFF 		bl	LCD_WriteReg
1912:hardware/src/lcd.c **** 		LCD_WriteReg(0x0082,0x0000); 
 7752              		.loc 1 1912 3
 7753 25ec 0021     		movs	r1, #0
 7754 25ee 8220     		movs	r0, #130
 7755 25f0 FFF7FEFF 		bl	LCD_WriteReg
1913:hardware/src/lcd.c **** 		LCD_WriteReg(0x0083,0x0000); 
ARM GAS  /tmp/ccRHtd69.s 			page 180


 7756              		.loc 1 1913 3
 7757 25f4 0021     		movs	r1, #0
 7758 25f6 8320     		movs	r0, #131
 7759 25f8 FFF7FEFF 		bl	LCD_WriteReg
1914:hardware/src/lcd.c **** 		LCD_WriteReg(0x0084,0x0000); 
 7760              		.loc 1 1914 3
 7761 25fc 0021     		movs	r1, #0
 7762 25fe 8420     		movs	r0, #132
 7763 2600 FFF7FEFF 		bl	LCD_WriteReg
1915:hardware/src/lcd.c **** 		LCD_WriteReg(0x0085,0x0000); 
 7764              		.loc 1 1915 3
 7765 2604 0021     		movs	r1, #0
 7766 2606 8520     		movs	r0, #133
 7767 2608 FFF7FEFF 		bl	LCD_WriteReg
1916:hardware/src/lcd.c **** 		//
1917:hardware/src/lcd.c **** 		LCD_WriteReg(0x0090,0x0010); 
 7768              		.loc 1 1917 3
 7769 260c 1021     		movs	r1, #16
 7770 260e 9020     		movs	r0, #144
 7771 2610 FFF7FEFF 		bl	LCD_WriteReg
1918:hardware/src/lcd.c **** 		LCD_WriteReg(0x0092,0x0600); 
 7772              		.loc 1 1918 3
 7773 2614 4FF4C061 		mov	r1, #1536
 7774 2618 9220     		movs	r0, #146
 7775 261a FFF7FEFF 		bl	LCD_WriteReg
1919:hardware/src/lcd.c **** 		
1920:hardware/src/lcd.c **** 		LCD_WriteReg(0x0007,0x0133);
 7776              		.loc 1 1920 3
 7777 261e 40F23311 		movw	r1, #307
 7778 2622 0720     		movs	r0, #7
 7779 2624 FFF7FEFF 		bl	LCD_WriteReg
1921:hardware/src/lcd.c **** 		LCD_WriteReg(0x00,0x0022);//
 7780              		.loc 1 1921 3
 7781 2628 2221     		movs	r1, #34
 7782 262a 0020     		movs	r0, #0
 7783 262c FFF7FEFF 		bl	LCD_WriteReg
 7784 2630 01F084B8 		b	.L172
 7785              	.L176:
1922:hardware/src/lcd.c **** 	}else if(lcddev.id==0x9328)//ILI9328   OK  
 7786              		.loc 1 1922 17
 7787 2634 7D4B     		ldr	r3, .L197
 7788 2636 9B88     		ldrh	r3, [r3, #4]
 7789              		.loc 1 1922 10
 7790 2638 49F22832 		movw	r2, #37672
 7791 263c 9342     		cmp	r3, r2
 7792 263e 40F0F780 		bne	.L177
1923:hardware/src/lcd.c **** 	{
1924:hardware/src/lcd.c ****   		LCD_WriteReg(0x00EC,0x108F);// internal timeing      
 7793              		.loc 1 1924 5
 7794 2642 41F28F01 		movw	r1, #4239
 7795 2646 EC20     		movs	r0, #236
 7796 2648 FFF7FEFF 		bl	LCD_WriteReg
1925:hardware/src/lcd.c ****  		LCD_WriteReg(0x00EF,0x1234);// ADD        
 7797              		.loc 1 1925 4
 7798 264c 41F23421 		movw	r1, #4660
 7799 2650 EF20     		movs	r0, #239
 7800 2652 FFF7FEFF 		bl	LCD_WriteReg
ARM GAS  /tmp/ccRHtd69.s 			page 181


1926:hardware/src/lcd.c **** 		//LCD_WriteReg(0x00e7,0x0010);      
1927:hardware/src/lcd.c ****         //LCD_WriteReg(0x0000,0x0001);//开启内部时钟
1928:hardware/src/lcd.c ****         LCD_WriteReg(0x0001,0x0100);     
 7801              		.loc 1 1928 9
 7802 2656 4FF48071 		mov	r1, #256
 7803 265a 0120     		movs	r0, #1
 7804 265c FFF7FEFF 		bl	LCD_WriteReg
1929:hardware/src/lcd.c ****         LCD_WriteReg(0x0002,0x0700);//电源开启                    
 7805              		.loc 1 1929 9
 7806 2660 4FF4E061 		mov	r1, #1792
 7807 2664 0220     		movs	r0, #2
 7808 2666 FFF7FEFF 		bl	LCD_WriteReg
1930:hardware/src/lcd.c **** 		//LCD_WriteReg(0x0003,(1<<3)|(1<<4) ); 	//65K  RGB
1931:hardware/src/lcd.c **** 		//DRIVE TABLE(寄存器 03H)
1932:hardware/src/lcd.c **** 		//BIT3=AM BIT4:5=ID0:1
1933:hardware/src/lcd.c **** 		//AM ID0 ID1   FUNCATION
1934:hardware/src/lcd.c **** 		// 0  0   0	   R->L D->U
1935:hardware/src/lcd.c **** 		// 1  0   0	   D->U	R->L
1936:hardware/src/lcd.c **** 		// 0  1   0	   L->R D->U
1937:hardware/src/lcd.c **** 		// 1  1   0    D->U	L->R
1938:hardware/src/lcd.c **** 		// 0  0   1	   R->L U->D
1939:hardware/src/lcd.c **** 		// 1  0   1    U->D	R->L
1940:hardware/src/lcd.c **** 		// 0  1   1    L->R U->D 正常就用这个.
1941:hardware/src/lcd.c **** 		// 1  1   1	   U->D	L->R
1942:hardware/src/lcd.c ****         LCD_WriteReg(0x0003,(1<<12)|(3<<4)|(0<<3) );//65K    
 7809              		.loc 1 1942 9
 7810 266a 41F23001 		movw	r1, #4144
 7811 266e 0320     		movs	r0, #3
 7812 2670 FFF7FEFF 		bl	LCD_WriteReg
1943:hardware/src/lcd.c ****         LCD_WriteReg(0x0004,0x0000);                                   
 7813              		.loc 1 1943 9
 7814 2674 0021     		movs	r1, #0
 7815 2676 0420     		movs	r0, #4
 7816 2678 FFF7FEFF 		bl	LCD_WriteReg
1944:hardware/src/lcd.c ****         LCD_WriteReg(0x0008,0x0202);	           
 7817              		.loc 1 1944 9
 7818 267c 40F20221 		movw	r1, #514
 7819 2680 0820     		movs	r0, #8
 7820 2682 FFF7FEFF 		bl	LCD_WriteReg
1945:hardware/src/lcd.c ****         LCD_WriteReg(0x0009,0x0000);         
 7821              		.loc 1 1945 9
 7822 2686 0021     		movs	r1, #0
 7823 2688 0920     		movs	r0, #9
 7824 268a FFF7FEFF 		bl	LCD_WriteReg
1946:hardware/src/lcd.c ****         LCD_WriteReg(0x000a,0x0000);//display setting         
 7825              		.loc 1 1946 9
 7826 268e 0021     		movs	r1, #0
 7827 2690 0A20     		movs	r0, #10
 7828 2692 FFF7FEFF 		bl	LCD_WriteReg
1947:hardware/src/lcd.c ****         LCD_WriteReg(0x000c,0x0001);//display setting          
 7829              		.loc 1 1947 9
 7830 2696 0121     		movs	r1, #1
 7831 2698 0C20     		movs	r0, #12
 7832 269a FFF7FEFF 		bl	LCD_WriteReg
1948:hardware/src/lcd.c ****         LCD_WriteReg(0x000d,0x0000);//0f3c          
 7833              		.loc 1 1948 9
 7834 269e 0021     		movs	r1, #0
ARM GAS  /tmp/ccRHtd69.s 			page 182


 7835 26a0 0D20     		movs	r0, #13
 7836 26a2 FFF7FEFF 		bl	LCD_WriteReg
1949:hardware/src/lcd.c ****         LCD_WriteReg(0x000f,0x0000);
 7837              		.loc 1 1949 9
 7838 26a6 0021     		movs	r1, #0
 7839 26a8 0F20     		movs	r0, #15
 7840 26aa FFF7FEFF 		bl	LCD_WriteReg
1950:hardware/src/lcd.c **** 		//电源配置
1951:hardware/src/lcd.c ****         LCD_WriteReg(0x0010,0x0000);   
 7841              		.loc 1 1951 9
 7842 26ae 0021     		movs	r1, #0
 7843 26b0 1020     		movs	r0, #16
 7844 26b2 FFF7FEFF 		bl	LCD_WriteReg
1952:hardware/src/lcd.c ****         LCD_WriteReg(0x0011,0x0007);
 7845              		.loc 1 1952 9
 7846 26b6 0721     		movs	r1, #7
 7847 26b8 1120     		movs	r0, #17
 7848 26ba FFF7FEFF 		bl	LCD_WriteReg
1953:hardware/src/lcd.c ****         LCD_WriteReg(0x0012,0x0000);                                                               
 7849              		.loc 1 1953 9
 7850 26be 0021     		movs	r1, #0
 7851 26c0 1220     		movs	r0, #18
 7852 26c2 FFF7FEFF 		bl	LCD_WriteReg
1954:hardware/src/lcd.c ****         LCD_WriteReg(0x0013,0x0000);                 
 7853              		.loc 1 1954 9
 7854 26c6 0021     		movs	r1, #0
 7855 26c8 1320     		movs	r0, #19
 7856 26ca FFF7FEFF 		bl	LCD_WriteReg
1955:hardware/src/lcd.c ****      	LCD_WriteReg(0x0007,0x0001);                 
 7857              		.loc 1 1955 7
 7858 26ce 0121     		movs	r1, #1
 7859 26d0 0720     		movs	r0, #7
 7860 26d2 FFF7FEFF 		bl	LCD_WriteReg
1956:hardware/src/lcd.c ****        	delay_ms(50); 
 7861              		.loc 1 1956 9
 7862 26d6 3220     		movs	r0, #50
 7863 26d8 FFF7FEFF 		bl	delay_ms
1957:hardware/src/lcd.c ****         LCD_WriteReg(0x0010,0x1490);   
 7864              		.loc 1 1957 9
 7865 26dc 41F29041 		movw	r1, #5264
 7866 26e0 1020     		movs	r0, #16
 7867 26e2 FFF7FEFF 		bl	LCD_WriteReg
1958:hardware/src/lcd.c ****         LCD_WriteReg(0x0011,0x0227);
 7868              		.loc 1 1958 9
 7869 26e6 40F22721 		movw	r1, #551
 7870 26ea 1120     		movs	r0, #17
 7871 26ec FFF7FEFF 		bl	LCD_WriteReg
1959:hardware/src/lcd.c ****         delay_ms(50); 
 7872              		.loc 1 1959 9
 7873 26f0 3220     		movs	r0, #50
 7874 26f2 FFF7FEFF 		bl	delay_ms
1960:hardware/src/lcd.c ****         LCD_WriteReg(0x0012,0x008A);                  
 7875              		.loc 1 1960 9
 7876 26f6 8A21     		movs	r1, #138
 7877 26f8 1220     		movs	r0, #18
 7878 26fa FFF7FEFF 		bl	LCD_WriteReg
1961:hardware/src/lcd.c ****         delay_ms(50); 
ARM GAS  /tmp/ccRHtd69.s 			page 183


 7879              		.loc 1 1961 9
 7880 26fe 3220     		movs	r0, #50
 7881 2700 FFF7FEFF 		bl	delay_ms
1962:hardware/src/lcd.c ****         LCD_WriteReg(0x0013,0x1a00);   
 7882              		.loc 1 1962 9
 7883 2704 4FF4D051 		mov	r1, #6656
 7884 2708 1320     		movs	r0, #19
 7885 270a FFF7FEFF 		bl	LCD_WriteReg
1963:hardware/src/lcd.c ****         LCD_WriteReg(0x0029,0x0006);
 7886              		.loc 1 1963 9
 7887 270e 0621     		movs	r1, #6
 7888 2710 2920     		movs	r0, #41
 7889 2712 FFF7FEFF 		bl	LCD_WriteReg
1964:hardware/src/lcd.c ****         LCD_WriteReg(0x002b,0x000d);
 7890              		.loc 1 1964 9
 7891 2716 0D21     		movs	r1, #13
 7892 2718 2B20     		movs	r0, #43
 7893 271a FFF7FEFF 		bl	LCD_WriteReg
1965:hardware/src/lcd.c ****         delay_ms(50); 
 7894              		.loc 1 1965 9
 7895 271e 3220     		movs	r0, #50
 7896 2720 FFF7FEFF 		bl	delay_ms
1966:hardware/src/lcd.c ****         LCD_WriteReg(0x0020,0x0000);                                                            
 7897              		.loc 1 1966 9
 7898 2724 0021     		movs	r1, #0
 7899 2726 2020     		movs	r0, #32
 7900 2728 FFF7FEFF 		bl	LCD_WriteReg
1967:hardware/src/lcd.c ****         LCD_WriteReg(0x0021,0x0000);           
 7901              		.loc 1 1967 9
 7902 272c 0021     		movs	r1, #0
 7903 272e 2120     		movs	r0, #33
 7904 2730 FFF7FEFF 		bl	LCD_WriteReg
1968:hardware/src/lcd.c **** 		delay_ms(50); 
 7905              		.loc 1 1968 3
 7906 2734 3220     		movs	r0, #50
 7907 2736 FFF7FEFF 		bl	delay_ms
1969:hardware/src/lcd.c **** 		//伽马校正
1970:hardware/src/lcd.c ****         LCD_WriteReg(0x0030,0x0000); 
 7908              		.loc 1 1970 9
 7909 273a 0021     		movs	r1, #0
 7910 273c 3020     		movs	r0, #48
 7911 273e FFF7FEFF 		bl	LCD_WriteReg
1971:hardware/src/lcd.c ****         LCD_WriteReg(0x0031,0x0604);   
 7912              		.loc 1 1971 9
 7913 2742 40F20461 		movw	r1, #1540
 7914 2746 3120     		movs	r0, #49
 7915 2748 FFF7FEFF 		bl	LCD_WriteReg
1972:hardware/src/lcd.c ****         LCD_WriteReg(0x0032,0x0305);
 7916              		.loc 1 1972 9
 7917 274c 40F20531 		movw	r1, #773
 7918 2750 3220     		movs	r0, #50
 7919 2752 FFF7FEFF 		bl	LCD_WriteReg
1973:hardware/src/lcd.c ****         LCD_WriteReg(0x0035,0x0000);
 7920              		.loc 1 1973 9
 7921 2756 0021     		movs	r1, #0
 7922 2758 3520     		movs	r0, #53
 7923 275a FFF7FEFF 		bl	LCD_WriteReg
ARM GAS  /tmp/ccRHtd69.s 			page 184


1974:hardware/src/lcd.c ****         LCD_WriteReg(0x0036,0x0C09); 
 7924              		.loc 1 1974 9
 7925 275e 40F60941 		movw	r1, #3081
 7926 2762 3620     		movs	r0, #54
 7927 2764 FFF7FEFF 		bl	LCD_WriteReg
1975:hardware/src/lcd.c ****         LCD_WriteReg(0x0037,0x0204);
 7928              		.loc 1 1975 9
 7929 2768 4FF40171 		mov	r1, #516
 7930 276c 3720     		movs	r0, #55
 7931 276e FFF7FEFF 		bl	LCD_WriteReg
1976:hardware/src/lcd.c ****         LCD_WriteReg(0x0038,0x0301);        
 7932              		.loc 1 1976 9
 7933 2772 40F20131 		movw	r1, #769
 7934 2776 3820     		movs	r0, #56
 7935 2778 FFF7FEFF 		bl	LCD_WriteReg
1977:hardware/src/lcd.c ****         LCD_WriteReg(0x0039,0x0707);     
 7936              		.loc 1 1977 9
 7937 277c 40F20771 		movw	r1, #1799
 7938 2780 3920     		movs	r0, #57
 7939 2782 FFF7FEFF 		bl	LCD_WriteReg
1978:hardware/src/lcd.c ****         LCD_WriteReg(0x003c,0x0000);
 7940              		.loc 1 1978 9
 7941 2786 0021     		movs	r1, #0
 7942 2788 3C20     		movs	r0, #60
 7943 278a FFF7FEFF 		bl	LCD_WriteReg
1979:hardware/src/lcd.c ****         LCD_WriteReg(0x003d,0x0a0a);
 7944              		.loc 1 1979 9
 7945 278e 40F60A21 		movw	r1, #2570
 7946 2792 3D20     		movs	r0, #61
 7947 2794 FFF7FEFF 		bl	LCD_WriteReg
1980:hardware/src/lcd.c ****         delay_ms(50); 
 7948              		.loc 1 1980 9
 7949 2798 3220     		movs	r0, #50
 7950 279a FFF7FEFF 		bl	delay_ms
1981:hardware/src/lcd.c ****         LCD_WriteReg(0x0050,0x0000); //水平GRAM起始位置 
 7951              		.loc 1 1981 9
 7952 279e 0021     		movs	r1, #0
 7953 27a0 5020     		movs	r0, #80
 7954 27a2 FFF7FEFF 		bl	LCD_WriteReg
1982:hardware/src/lcd.c ****         LCD_WriteReg(0x0051,0x00ef); //水平GRAM终止位置                    
 7955              		.loc 1 1982 9
 7956 27a6 EF21     		movs	r1, #239
 7957 27a8 5120     		movs	r0, #81
 7958 27aa FFF7FEFF 		bl	LCD_WriteReg
1983:hardware/src/lcd.c ****         LCD_WriteReg(0x0052,0x0000); //垂直GRAM起始位置                    
 7959              		.loc 1 1983 9
 7960 27ae 0021     		movs	r1, #0
 7961 27b0 5220     		movs	r0, #82
 7962 27b2 FFF7FEFF 		bl	LCD_WriteReg
1984:hardware/src/lcd.c ****         LCD_WriteReg(0x0053,0x013f); //垂直GRAM终止位置  
 7963              		.loc 1 1984 9
 7964 27b6 40F23F11 		movw	r1, #319
 7965 27ba 5320     		movs	r0, #83
 7966 27bc FFF7FEFF 		bl	LCD_WriteReg
1985:hardware/src/lcd.c ****  
1986:hardware/src/lcd.c ****          LCD_WriteReg(0x0060,0xa700);        
 7967              		.loc 1 1986 10
ARM GAS  /tmp/ccRHtd69.s 			page 185


 7968 27c0 4FF42741 		mov	r1, #42752
 7969 27c4 6020     		movs	r0, #96
 7970 27c6 FFF7FEFF 		bl	LCD_WriteReg
1987:hardware/src/lcd.c ****         LCD_WriteReg(0x0061,0x0001); 
 7971              		.loc 1 1987 9
 7972 27ca 0121     		movs	r1, #1
 7973 27cc 6120     		movs	r0, #97
 7974 27ce FFF7FEFF 		bl	LCD_WriteReg
1988:hardware/src/lcd.c ****         LCD_WriteReg(0x006a,0x0000);
 7975              		.loc 1 1988 9
 7976 27d2 0021     		movs	r1, #0
 7977 27d4 6A20     		movs	r0, #106
 7978 27d6 FFF7FEFF 		bl	LCD_WriteReg
1989:hardware/src/lcd.c ****         LCD_WriteReg(0x0080,0x0000);
 7979              		.loc 1 1989 9
 7980 27da 0021     		movs	r1, #0
 7981 27dc 8020     		movs	r0, #128
 7982 27de FFF7FEFF 		bl	LCD_WriteReg
1990:hardware/src/lcd.c ****         LCD_WriteReg(0x0081,0x0000);
 7983              		.loc 1 1990 9
 7984 27e2 0021     		movs	r1, #0
 7985 27e4 8120     		movs	r0, #129
 7986 27e6 FFF7FEFF 		bl	LCD_WriteReg
1991:hardware/src/lcd.c ****         LCD_WriteReg(0x0082,0x0000);
 7987              		.loc 1 1991 9
 7988 27ea 0021     		movs	r1, #0
 7989 27ec 8220     		movs	r0, #130
 7990 27ee FFF7FEFF 		bl	LCD_WriteReg
1992:hardware/src/lcd.c ****         LCD_WriteReg(0x0083,0x0000);
 7991              		.loc 1 1992 9
 7992 27f2 0021     		movs	r1, #0
 7993 27f4 8320     		movs	r0, #131
 7994 27f6 FFF7FEFF 		bl	LCD_WriteReg
1993:hardware/src/lcd.c ****         LCD_WriteReg(0x0084,0x0000);
 7995              		.loc 1 1993 9
 7996 27fa 0021     		movs	r1, #0
 7997 27fc 8420     		movs	r0, #132
 7998 27fe FFF7FEFF 		bl	LCD_WriteReg
1994:hardware/src/lcd.c ****         LCD_WriteReg(0x0085,0x0000);
 7999              		.loc 1 1994 9
 8000 2802 0021     		movs	r1, #0
 8001 2804 8520     		movs	r0, #133
 8002 2806 FFF7FEFF 		bl	LCD_WriteReg
1995:hardware/src/lcd.c ****       
1996:hardware/src/lcd.c ****         LCD_WriteReg(0x0090,0x0010);     
 8003              		.loc 1 1996 9
 8004 280a 1021     		movs	r1, #16
 8005 280c 9020     		movs	r0, #144
 8006 280e FFF7FEFF 		bl	LCD_WriteReg
1997:hardware/src/lcd.c ****         LCD_WriteReg(0x0092,0x0600);  
 8007              		.loc 1 1997 9
 8008 2812 4FF4C061 		mov	r1, #1536
 8009 2816 9220     		movs	r0, #146
 8010 2818 FFF7FEFF 		bl	LCD_WriteReg
1998:hardware/src/lcd.c ****         //开启显示设置    
1999:hardware/src/lcd.c ****         LCD_WriteReg(0x0007,0x0133); 
 8011              		.loc 1 1999 9
ARM GAS  /tmp/ccRHtd69.s 			page 186


 8012 281c 40F23311 		movw	r1, #307
 8013 2820 0720     		movs	r0, #7
 8014 2822 FFF7FEFF 		bl	LCD_WriteReg
 8015 2826 00F089BF 		b	.L172
 8016              	.L198:
 8017 282a 00BF     		.align	2
 8018              	.L197:
 8019 282c 00000000 		.word	lcddev
 8020              	.L177:
2000:hardware/src/lcd.c **** 	}else if(lcddev.id==0x9320)//测试OK.
 8021              		.loc 1 2000 17
 8022 2830 CE4B     		ldr	r3, .L199
 8023 2832 9B88     		ldrh	r3, [r3, #4]
 8024              		.loc 1 2000 10
 8025 2834 49F22032 		movw	r2, #37664
 8026 2838 9342     		cmp	r3, r2
 8027 283a 40F0AD80 		bne	.L178
2001:hardware/src/lcd.c **** 	{
2002:hardware/src/lcd.c **** 		LCD_WriteReg(0x00,0x0000);
 8028              		.loc 1 2002 3
 8029 283e 0021     		movs	r1, #0
 8030 2840 0020     		movs	r0, #0
 8031 2842 FFF7FEFF 		bl	LCD_WriteReg
2003:hardware/src/lcd.c **** 		LCD_WriteReg(0x01,0x0100);	//Driver Output Contral.
 8032              		.loc 1 2003 3
 8033 2846 4FF48071 		mov	r1, #256
 8034 284a 0120     		movs	r0, #1
 8035 284c FFF7FEFF 		bl	LCD_WriteReg
2004:hardware/src/lcd.c **** 		LCD_WriteReg(0x02,0x0700);	//LCD Driver Waveform Contral.
 8036              		.loc 1 2004 3
 8037 2850 4FF4E061 		mov	r1, #1792
 8038 2854 0220     		movs	r0, #2
 8039 2856 FFF7FEFF 		bl	LCD_WriteReg
2005:hardware/src/lcd.c **** 		LCD_WriteReg(0x03,0x1030);//Entry Mode Set.
 8040              		.loc 1 2005 3
 8041 285a 41F23001 		movw	r1, #4144
 8042 285e 0320     		movs	r0, #3
 8043 2860 FFF7FEFF 		bl	LCD_WriteReg
2006:hardware/src/lcd.c **** 		//LCD_WriteReg(0x03,0x1018);	//Entry Mode Set.
2007:hardware/src/lcd.c **** 	
2008:hardware/src/lcd.c **** 		LCD_WriteReg(0x04,0x0000);	//Scalling Contral.
 8044              		.loc 1 2008 3
 8045 2864 0021     		movs	r1, #0
 8046 2866 0420     		movs	r0, #4
 8047 2868 FFF7FEFF 		bl	LCD_WriteReg
2009:hardware/src/lcd.c **** 		LCD_WriteReg(0x08,0x0202);	//Display Contral 2.(0x0207)
 8048              		.loc 1 2009 3
 8049 286c 40F20221 		movw	r1, #514
 8050 2870 0820     		movs	r0, #8
 8051 2872 FFF7FEFF 		bl	LCD_WriteReg
2010:hardware/src/lcd.c **** 		LCD_WriteReg(0x09,0x0000);	//Display Contral 3.(0x0000)
 8052              		.loc 1 2010 3
 8053 2876 0021     		movs	r1, #0
 8054 2878 0920     		movs	r0, #9
 8055 287a FFF7FEFF 		bl	LCD_WriteReg
2011:hardware/src/lcd.c **** 		LCD_WriteReg(0x0a,0x0000);	//Frame Cycle Contal.(0x0000)
 8056              		.loc 1 2011 3
ARM GAS  /tmp/ccRHtd69.s 			page 187


 8057 287e 0021     		movs	r1, #0
 8058 2880 0A20     		movs	r0, #10
 8059 2882 FFF7FEFF 		bl	LCD_WriteReg
2012:hardware/src/lcd.c **** 		LCD_WriteReg(0x0c,(1<<0));	//Extern Display Interface Contral 1.(0x0000)
 8060              		.loc 1 2012 3
 8061 2886 0121     		movs	r1, #1
 8062 2888 0C20     		movs	r0, #12
 8063 288a FFF7FEFF 		bl	LCD_WriteReg
2013:hardware/src/lcd.c **** 		LCD_WriteReg(0x0d,0x0000);	//Frame Maker Position.
 8064              		.loc 1 2013 3
 8065 288e 0021     		movs	r1, #0
 8066 2890 0D20     		movs	r0, #13
 8067 2892 FFF7FEFF 		bl	LCD_WriteReg
2014:hardware/src/lcd.c **** 		LCD_WriteReg(0x0f,0x0000);	//Extern Display Interface Contral 2.	    
 8068              		.loc 1 2014 3
 8069 2896 0021     		movs	r1, #0
 8070 2898 0F20     		movs	r0, #15
 8071 289a FFF7FEFF 		bl	LCD_WriteReg
2015:hardware/src/lcd.c **** 		delay_ms(50); 
 8072              		.loc 1 2015 3
 8073 289e 3220     		movs	r0, #50
 8074 28a0 FFF7FEFF 		bl	delay_ms
2016:hardware/src/lcd.c **** 		LCD_WriteReg(0x07,0x0101);	//Display Contral.
 8075              		.loc 1 2016 3
 8076 28a4 40F20111 		movw	r1, #257
 8077 28a8 0720     		movs	r0, #7
 8078 28aa FFF7FEFF 		bl	LCD_WriteReg
2017:hardware/src/lcd.c **** 		delay_ms(50); 								  
 8079              		.loc 1 2017 3
 8080 28ae 3220     		movs	r0, #50
 8081 28b0 FFF7FEFF 		bl	delay_ms
2018:hardware/src/lcd.c **** 		LCD_WriteReg(0x10,(1<<12)|(0<<8)|(1<<7)|(1<<6)|(0<<4));	//Power Control 1.(0x16b0)
 8082              		.loc 1 2018 3
 8083 28b4 4FF48651 		mov	r1, #4288
 8084 28b8 1020     		movs	r0, #16
 8085 28ba FFF7FEFF 		bl	LCD_WriteReg
2019:hardware/src/lcd.c **** 		LCD_WriteReg(0x11,0x0007);								//Power Control 2.(0x0001)
 8086              		.loc 1 2019 3
 8087 28be 0721     		movs	r1, #7
 8088 28c0 1120     		movs	r0, #17
 8089 28c2 FFF7FEFF 		bl	LCD_WriteReg
2020:hardware/src/lcd.c **** 		LCD_WriteReg(0x12,(1<<8)|(1<<4)|(0<<0));				//Power Control 3.(0x0138)
 8090              		.loc 1 2020 3
 8091 28c6 4FF48871 		mov	r1, #272
 8092 28ca 1220     		movs	r0, #18
 8093 28cc FFF7FEFF 		bl	LCD_WriteReg
2021:hardware/src/lcd.c **** 		LCD_WriteReg(0x13,0x0b00);								//Power Control 4.
 8094              		.loc 1 2021 3
 8095 28d0 4FF43061 		mov	r1, #2816
 8096 28d4 1320     		movs	r0, #19
 8097 28d6 FFF7FEFF 		bl	LCD_WriteReg
2022:hardware/src/lcd.c **** 		LCD_WriteReg(0x29,0x0000);								//Power Control 7.
 8098              		.loc 1 2022 3
 8099 28da 0021     		movs	r1, #0
 8100 28dc 2920     		movs	r0, #41
 8101 28de FFF7FEFF 		bl	LCD_WriteReg
2023:hardware/src/lcd.c **** 	
ARM GAS  /tmp/ccRHtd69.s 			page 188


2024:hardware/src/lcd.c **** 		LCD_WriteReg(0x2b,(1<<14)|(1<<4));	    
 8102              		.loc 1 2024 3
 8103 28e2 44F21001 		movw	r1, #16400
 8104 28e6 2B20     		movs	r0, #43
 8105 28e8 FFF7FEFF 		bl	LCD_WriteReg
2025:hardware/src/lcd.c **** 		LCD_WriteReg(0x50,0);	//Set X Star
 8106              		.loc 1 2025 3
 8107 28ec 0021     		movs	r1, #0
 8108 28ee 5020     		movs	r0, #80
 8109 28f0 FFF7FEFF 		bl	LCD_WriteReg
2026:hardware/src/lcd.c **** 		//水平GRAM终止位置Set X End.
2027:hardware/src/lcd.c **** 		LCD_WriteReg(0x51,239);	//Set Y Star
 8110              		.loc 1 2027 3
 8111 28f4 EF21     		movs	r1, #239
 8112 28f6 5120     		movs	r0, #81
 8113 28f8 FFF7FEFF 		bl	LCD_WriteReg
2028:hardware/src/lcd.c **** 		LCD_WriteReg(0x52,0);	//Set Y End.t.
 8114              		.loc 1 2028 3
 8115 28fc 0021     		movs	r1, #0
 8116 28fe 5220     		movs	r0, #82
 8117 2900 FFF7FEFF 		bl	LCD_WriteReg
2029:hardware/src/lcd.c **** 		LCD_WriteReg(0x53,319);	//
 8118              		.loc 1 2029 3
 8119 2904 40F23F11 		movw	r1, #319
 8120 2908 5320     		movs	r0, #83
 8121 290a FFF7FEFF 		bl	LCD_WriteReg
2030:hardware/src/lcd.c **** 	
2031:hardware/src/lcd.c **** 		LCD_WriteReg(0x60,0x2700);	//Driver Output Control.
 8122              		.loc 1 2031 3
 8123 290e 4FF41C51 		mov	r1, #9984
 8124 2912 6020     		movs	r0, #96
 8125 2914 FFF7FEFF 		bl	LCD_WriteReg
2032:hardware/src/lcd.c **** 		LCD_WriteReg(0x61,0x0001);	//Driver Output Control.
 8126              		.loc 1 2032 3
 8127 2918 0121     		movs	r1, #1
 8128 291a 6120     		movs	r0, #97
 8129 291c FFF7FEFF 		bl	LCD_WriteReg
2033:hardware/src/lcd.c **** 		LCD_WriteReg(0x6a,0x0000);	//Vertical Srcoll Control.
 8130              		.loc 1 2033 3
 8131 2920 0021     		movs	r1, #0
 8132 2922 6A20     		movs	r0, #106
 8133 2924 FFF7FEFF 		bl	LCD_WriteReg
2034:hardware/src/lcd.c **** 	
2035:hardware/src/lcd.c **** 		LCD_WriteReg(0x80,0x0000);	//Display Position? Partial Display 1.
 8134              		.loc 1 2035 3
 8135 2928 0021     		movs	r1, #0
 8136 292a 8020     		movs	r0, #128
 8137 292c FFF7FEFF 		bl	LCD_WriteReg
2036:hardware/src/lcd.c **** 		LCD_WriteReg(0x81,0x0000);	//RAM Address Start? Partial Display 1.
 8138              		.loc 1 2036 3
 8139 2930 0021     		movs	r1, #0
 8140 2932 8120     		movs	r0, #129
 8141 2934 FFF7FEFF 		bl	LCD_WriteReg
2037:hardware/src/lcd.c **** 		LCD_WriteReg(0x82,0x0000);	//RAM Address End-Partial Display 1.
 8142              		.loc 1 2037 3
 8143 2938 0021     		movs	r1, #0
 8144 293a 8220     		movs	r0, #130
ARM GAS  /tmp/ccRHtd69.s 			page 189


 8145 293c FFF7FEFF 		bl	LCD_WriteReg
2038:hardware/src/lcd.c **** 		LCD_WriteReg(0x83,0x0000);	//Displsy Position? Partial Display 2.
 8146              		.loc 1 2038 3
 8147 2940 0021     		movs	r1, #0
 8148 2942 8320     		movs	r0, #131
 8149 2944 FFF7FEFF 		bl	LCD_WriteReg
2039:hardware/src/lcd.c **** 		LCD_WriteReg(0x84,0x0000);	//RAM Address Start? Partial Display 2.
 8150              		.loc 1 2039 3
 8151 2948 0021     		movs	r1, #0
 8152 294a 8420     		movs	r0, #132
 8153 294c FFF7FEFF 		bl	LCD_WriteReg
2040:hardware/src/lcd.c **** 		LCD_WriteReg(0x85,0x0000);	//RAM Address End? Partial Display 2.
 8154              		.loc 1 2040 3
 8155 2950 0021     		movs	r1, #0
 8156 2952 8520     		movs	r0, #133
 8157 2954 FFF7FEFF 		bl	LCD_WriteReg
2041:hardware/src/lcd.c **** 	
2042:hardware/src/lcd.c **** 		LCD_WriteReg(0x90,(0<<7)|(16<<0));	//Frame Cycle Contral.(0x0013)
 8158              		.loc 1 2042 3
 8159 2958 1021     		movs	r1, #16
 8160 295a 9020     		movs	r0, #144
 8161 295c FFF7FEFF 		bl	LCD_WriteReg
2043:hardware/src/lcd.c **** 		LCD_WriteReg(0x92,0x0000);	//Panel Interface Contral 2.(0x0000)
 8162              		.loc 1 2043 3
 8163 2960 0021     		movs	r1, #0
 8164 2962 9220     		movs	r0, #146
 8165 2964 FFF7FEFF 		bl	LCD_WriteReg
2044:hardware/src/lcd.c **** 		LCD_WriteReg(0x93,0x0001);	//Panel Interface Contral 3.
 8166              		.loc 1 2044 3
 8167 2968 0121     		movs	r1, #1
 8168 296a 9320     		movs	r0, #147
 8169 296c FFF7FEFF 		bl	LCD_WriteReg
2045:hardware/src/lcd.c **** 		LCD_WriteReg(0x95,0x0110);	//Frame Cycle Contral.(0x0110)
 8170              		.loc 1 2045 3
 8171 2970 4FF48871 		mov	r1, #272
 8172 2974 9520     		movs	r0, #149
 8173 2976 FFF7FEFF 		bl	LCD_WriteReg
2046:hardware/src/lcd.c **** 		LCD_WriteReg(0x97,(0<<8));	//
 8174              		.loc 1 2046 3
 8175 297a 0021     		movs	r1, #0
 8176 297c 9720     		movs	r0, #151
 8177 297e FFF7FEFF 		bl	LCD_WriteReg
2047:hardware/src/lcd.c **** 		LCD_WriteReg(0x98,0x0000);	//Frame Cycle Contral.	   
 8178              		.loc 1 2047 3
 8179 2982 0021     		movs	r1, #0
 8180 2984 9820     		movs	r0, #152
 8181 2986 FFF7FEFF 		bl	LCD_WriteReg
2048:hardware/src/lcd.c **** 		LCD_WriteReg(0x07,0x0173);	//(0x0173)
 8182              		.loc 1 2048 3
 8183 298a 40F27311 		movw	r1, #371
 8184 298e 0720     		movs	r0, #7
 8185 2990 FFF7FEFF 		bl	LCD_WriteReg
 8186 2994 00F0D2BE 		b	.L172
 8187              	.L178:
2049:hardware/src/lcd.c **** 	}else if(lcddev.id==0X9331)//OK |/|/|			 
 8188              		.loc 1 2049 17
 8189 2998 744B     		ldr	r3, .L199
ARM GAS  /tmp/ccRHtd69.s 			page 190


 8190 299a 9B88     		ldrh	r3, [r3, #4]
 8191              		.loc 1 2049 10
 8192 299c 49F23132 		movw	r2, #37681
 8193 29a0 9342     		cmp	r3, r2
 8194 29a2 40F0E580 		bne	.L179
2050:hardware/src/lcd.c **** 	{
2051:hardware/src/lcd.c **** 		LCD_WriteReg(0x00E7, 0x1014);
 8195              		.loc 1 2051 3
 8196 29a6 41F21401 		movw	r1, #4116
 8197 29aa E720     		movs	r0, #231
 8198 29ac FFF7FEFF 		bl	LCD_WriteReg
2052:hardware/src/lcd.c **** 		LCD_WriteReg(0x0001, 0x0100); // set SS and SM bit
 8199              		.loc 1 2052 3
 8200 29b0 4FF48071 		mov	r1, #256
 8201 29b4 0120     		movs	r0, #1
 8202 29b6 FFF7FEFF 		bl	LCD_WriteReg
2053:hardware/src/lcd.c **** 		LCD_WriteReg(0x0002, 0x0200); // set 1 line inversion
 8203              		.loc 1 2053 3
 8204 29ba 4FF40071 		mov	r1, #512
 8205 29be 0220     		movs	r0, #2
 8206 29c0 FFF7FEFF 		bl	LCD_WriteReg
2054:hardware/src/lcd.c ****         LCD_WriteReg(0x0003,(1<<12)|(3<<4)|(1<<3));//65K    
 8207              		.loc 1 2054 9
 8208 29c4 41F23801 		movw	r1, #4152
 8209 29c8 0320     		movs	r0, #3
 8210 29ca FFF7FEFF 		bl	LCD_WriteReg
2055:hardware/src/lcd.c **** 		//LCD_WriteReg(0x0003, 0x1030); // set GRAM write direction and BGR=1.
2056:hardware/src/lcd.c **** 		LCD_WriteReg(0x0008, 0x0202); // set the back porch and front porch
 8211              		.loc 1 2056 3
 8212 29ce 40F20221 		movw	r1, #514
 8213 29d2 0820     		movs	r0, #8
 8214 29d4 FFF7FEFF 		bl	LCD_WriteReg
2057:hardware/src/lcd.c **** 		LCD_WriteReg(0x0009, 0x0000); // set non-display area refresh cycle ISC[3:0]
 8215              		.loc 1 2057 3
 8216 29d8 0021     		movs	r1, #0
 8217 29da 0920     		movs	r0, #9
 8218 29dc FFF7FEFF 		bl	LCD_WriteReg
2058:hardware/src/lcd.c **** 		LCD_WriteReg(0x000A, 0x0000); // FMARK function
 8219              		.loc 1 2058 3
 8220 29e0 0021     		movs	r1, #0
 8221 29e2 0A20     		movs	r0, #10
 8222 29e4 FFF7FEFF 		bl	LCD_WriteReg
2059:hardware/src/lcd.c **** 		LCD_WriteReg(0x000C, 0x0000); // RGB interface setting
 8223              		.loc 1 2059 3
 8224 29e8 0021     		movs	r1, #0
 8225 29ea 0C20     		movs	r0, #12
 8226 29ec FFF7FEFF 		bl	LCD_WriteReg
2060:hardware/src/lcd.c **** 		LCD_WriteReg(0x000D, 0x0000); // Frame marker Position
 8227              		.loc 1 2060 3
 8228 29f0 0021     		movs	r1, #0
 8229 29f2 0D20     		movs	r0, #13
 8230 29f4 FFF7FEFF 		bl	LCD_WriteReg
2061:hardware/src/lcd.c **** 		LCD_WriteReg(0x000F, 0x0000); // RGB interface polarity
 8231              		.loc 1 2061 3
 8232 29f8 0021     		movs	r1, #0
 8233 29fa 0F20     		movs	r0, #15
 8234 29fc FFF7FEFF 		bl	LCD_WriteReg
ARM GAS  /tmp/ccRHtd69.s 			page 191


2062:hardware/src/lcd.c **** 		//*************Power On sequence ****************//
2063:hardware/src/lcd.c **** 		LCD_WriteReg(0x0010, 0x0000); // SAP, BT[3:0], AP, DSTB, SLP, STB
 8235              		.loc 1 2063 3
 8236 2a00 0021     		movs	r1, #0
 8237 2a02 1020     		movs	r0, #16
 8238 2a04 FFF7FEFF 		bl	LCD_WriteReg
2064:hardware/src/lcd.c **** 		LCD_WriteReg(0x0011, 0x0007); // DC1[2:0], DC0[2:0], VC[2:0]
 8239              		.loc 1 2064 3
 8240 2a08 0721     		movs	r1, #7
 8241 2a0a 1120     		movs	r0, #17
 8242 2a0c FFF7FEFF 		bl	LCD_WriteReg
2065:hardware/src/lcd.c **** 		LCD_WriteReg(0x0012, 0x0000); // VREG1OUT voltage
 8243              		.loc 1 2065 3
 8244 2a10 0021     		movs	r1, #0
 8245 2a12 1220     		movs	r0, #18
 8246 2a14 FFF7FEFF 		bl	LCD_WriteReg
2066:hardware/src/lcd.c **** 		LCD_WriteReg(0x0013, 0x0000); // VDV[4:0] for VCOM amplitude
 8247              		.loc 1 2066 3
 8248 2a18 0021     		movs	r1, #0
 8249 2a1a 1320     		movs	r0, #19
 8250 2a1c FFF7FEFF 		bl	LCD_WriteReg
2067:hardware/src/lcd.c **** 		delay_ms(200); // Dis-charge capacitor power voltage
 8251              		.loc 1 2067 3
 8252 2a20 C820     		movs	r0, #200
 8253 2a22 FFF7FEFF 		bl	delay_ms
2068:hardware/src/lcd.c **** 		LCD_WriteReg(0x0010, 0x1690); // SAP, BT[3:0], AP, DSTB, SLP, STB
 8254              		.loc 1 2068 3
 8255 2a26 41F29061 		movw	r1, #5776
 8256 2a2a 1020     		movs	r0, #16
 8257 2a2c FFF7FEFF 		bl	LCD_WriteReg
2069:hardware/src/lcd.c **** 		LCD_WriteReg(0x0011, 0x0227); // DC1[2:0], DC0[2:0], VC[2:0]
 8258              		.loc 1 2069 3
 8259 2a30 40F22721 		movw	r1, #551
 8260 2a34 1120     		movs	r0, #17
 8261 2a36 FFF7FEFF 		bl	LCD_WriteReg
2070:hardware/src/lcd.c **** 		delay_ms(50); // Delay 50ms
 8262              		.loc 1 2070 3
 8263 2a3a 3220     		movs	r0, #50
 8264 2a3c FFF7FEFF 		bl	delay_ms
2071:hardware/src/lcd.c **** 		LCD_WriteReg(0x0012, 0x000C); // Internal reference voltage= Vci;
 8265              		.loc 1 2071 3
 8266 2a40 0C21     		movs	r1, #12
 8267 2a42 1220     		movs	r0, #18
 8268 2a44 FFF7FEFF 		bl	LCD_WriteReg
2072:hardware/src/lcd.c **** 		delay_ms(50); // Delay 50ms
 8269              		.loc 1 2072 3
 8270 2a48 3220     		movs	r0, #50
 8271 2a4a FFF7FEFF 		bl	delay_ms
2073:hardware/src/lcd.c **** 		LCD_WriteReg(0x0013, 0x0800); // Set VDV[4:0] for VCOM amplitude
 8272              		.loc 1 2073 3
 8273 2a4e 4FF40061 		mov	r1, #2048
 8274 2a52 1320     		movs	r0, #19
 8275 2a54 FFF7FEFF 		bl	LCD_WriteReg
2074:hardware/src/lcd.c **** 		LCD_WriteReg(0x0029, 0x0011); // Set VCM[5:0] for VCOMH
 8276              		.loc 1 2074 3
 8277 2a58 1121     		movs	r1, #17
 8278 2a5a 2920     		movs	r0, #41
ARM GAS  /tmp/ccRHtd69.s 			page 192


 8279 2a5c FFF7FEFF 		bl	LCD_WriteReg
2075:hardware/src/lcd.c **** 		LCD_WriteReg(0x002B, 0x000B); // Set Frame Rate
 8280              		.loc 1 2075 3
 8281 2a60 0B21     		movs	r1, #11
 8282 2a62 2B20     		movs	r0, #43
 8283 2a64 FFF7FEFF 		bl	LCD_WriteReg
2076:hardware/src/lcd.c **** 		delay_ms(50); // Delay 50ms
 8284              		.loc 1 2076 3
 8285 2a68 3220     		movs	r0, #50
 8286 2a6a FFF7FEFF 		bl	delay_ms
2077:hardware/src/lcd.c **** 		LCD_WriteReg(0x0020, 0x0000); // GRAM horizontal Address
 8287              		.loc 1 2077 3
 8288 2a6e 0021     		movs	r1, #0
 8289 2a70 2020     		movs	r0, #32
 8290 2a72 FFF7FEFF 		bl	LCD_WriteReg
2078:hardware/src/lcd.c **** 		LCD_WriteReg(0x0021, 0x013f); // GRAM Vertical Address
 8291              		.loc 1 2078 3
 8292 2a76 40F23F11 		movw	r1, #319
 8293 2a7a 2120     		movs	r0, #33
 8294 2a7c FFF7FEFF 		bl	LCD_WriteReg
2079:hardware/src/lcd.c **** 		// ----------- Adjust the Gamma Curve ----------//
2080:hardware/src/lcd.c **** 		LCD_WriteReg(0x0030, 0x0000);
 8295              		.loc 1 2080 3
 8296 2a80 0021     		movs	r1, #0
 8297 2a82 3020     		movs	r0, #48
 8298 2a84 FFF7FEFF 		bl	LCD_WriteReg
2081:hardware/src/lcd.c **** 		LCD_WriteReg(0x0031, 0x0106);
 8299              		.loc 1 2081 3
 8300 2a88 4FF48371 		mov	r1, #262
 8301 2a8c 3120     		movs	r0, #49
 8302 2a8e FFF7FEFF 		bl	LCD_WriteReg
2082:hardware/src/lcd.c **** 		LCD_WriteReg(0x0032, 0x0000);
 8303              		.loc 1 2082 3
 8304 2a92 0021     		movs	r1, #0
 8305 2a94 3220     		movs	r0, #50
 8306 2a96 FFF7FEFF 		bl	LCD_WriteReg
2083:hardware/src/lcd.c **** 		LCD_WriteReg(0x0035, 0x0204);
 8307              		.loc 1 2083 3
 8308 2a9a 4FF40171 		mov	r1, #516
 8309 2a9e 3520     		movs	r0, #53
 8310 2aa0 FFF7FEFF 		bl	LCD_WriteReg
2084:hardware/src/lcd.c **** 		LCD_WriteReg(0x0036, 0x160A);
 8311              		.loc 1 2084 3
 8312 2aa4 41F20A61 		movw	r1, #5642
 8313 2aa8 3620     		movs	r0, #54
 8314 2aaa FFF7FEFF 		bl	LCD_WriteReg
2085:hardware/src/lcd.c **** 		LCD_WriteReg(0x0037, 0x0707);
 8315              		.loc 1 2085 3
 8316 2aae 40F20771 		movw	r1, #1799
 8317 2ab2 3720     		movs	r0, #55
 8318 2ab4 FFF7FEFF 		bl	LCD_WriteReg
2086:hardware/src/lcd.c **** 		LCD_WriteReg(0x0038, 0x0106);
 8319              		.loc 1 2086 3
 8320 2ab8 4FF48371 		mov	r1, #262
 8321 2abc 3820     		movs	r0, #56
 8322 2abe FFF7FEFF 		bl	LCD_WriteReg
2087:hardware/src/lcd.c **** 		LCD_WriteReg(0x0039, 0x0707);
ARM GAS  /tmp/ccRHtd69.s 			page 193


 8323              		.loc 1 2087 3
 8324 2ac2 40F20771 		movw	r1, #1799
 8325 2ac6 3920     		movs	r0, #57
 8326 2ac8 FFF7FEFF 		bl	LCD_WriteReg
2088:hardware/src/lcd.c **** 		LCD_WriteReg(0x003C, 0x0402);
 8327              		.loc 1 2088 3
 8328 2acc 40F20241 		movw	r1, #1026
 8329 2ad0 3C20     		movs	r0, #60
 8330 2ad2 FFF7FEFF 		bl	LCD_WriteReg
2089:hardware/src/lcd.c **** 		LCD_WriteReg(0x003D, 0x0C0F);
 8331              		.loc 1 2089 3
 8332 2ad6 40F60F41 		movw	r1, #3087
 8333 2ada 3D20     		movs	r0, #61
 8334 2adc FFF7FEFF 		bl	LCD_WriteReg
2090:hardware/src/lcd.c **** 		//------------------ Set GRAM area ---------------//
2091:hardware/src/lcd.c **** 		LCD_WriteReg(0x0050, 0x0000); // Horizontal GRAM Start Address
 8335              		.loc 1 2091 3
 8336 2ae0 0021     		movs	r1, #0
 8337 2ae2 5020     		movs	r0, #80
 8338 2ae4 FFF7FEFF 		bl	LCD_WriteReg
2092:hardware/src/lcd.c **** 		LCD_WriteReg(0x0051, 0x00EF); // Horizontal GRAM End Address
 8339              		.loc 1 2092 3
 8340 2ae8 EF21     		movs	r1, #239
 8341 2aea 5120     		movs	r0, #81
 8342 2aec FFF7FEFF 		bl	LCD_WriteReg
2093:hardware/src/lcd.c **** 		LCD_WriteReg(0x0052, 0x0000); // Vertical GRAM Start Address
 8343              		.loc 1 2093 3
 8344 2af0 0021     		movs	r1, #0
 8345 2af2 5220     		movs	r0, #82
 8346 2af4 FFF7FEFF 		bl	LCD_WriteReg
2094:hardware/src/lcd.c **** 		LCD_WriteReg(0x0053, 0x013F); // Vertical GRAM Start Address
 8347              		.loc 1 2094 3
 8348 2af8 40F23F11 		movw	r1, #319
 8349 2afc 5320     		movs	r0, #83
 8350 2afe FFF7FEFF 		bl	LCD_WriteReg
2095:hardware/src/lcd.c **** 		LCD_WriteReg(0x0060, 0x2700); // Gate Scan Line
 8351              		.loc 1 2095 3
 8352 2b02 4FF41C51 		mov	r1, #9984
 8353 2b06 6020     		movs	r0, #96
 8354 2b08 FFF7FEFF 		bl	LCD_WriteReg
2096:hardware/src/lcd.c **** 		LCD_WriteReg(0x0061, 0x0001); // NDL,VLE, REV 
 8355              		.loc 1 2096 3
 8356 2b0c 0121     		movs	r1, #1
 8357 2b0e 6120     		movs	r0, #97
 8358 2b10 FFF7FEFF 		bl	LCD_WriteReg
2097:hardware/src/lcd.c **** 		LCD_WriteReg(0x006A, 0x0000); // set scrolling line
 8359              		.loc 1 2097 3
 8360 2b14 0021     		movs	r1, #0
 8361 2b16 6A20     		movs	r0, #106
 8362 2b18 FFF7FEFF 		bl	LCD_WriteReg
2098:hardware/src/lcd.c **** 		//-------------- Partial Display Control ---------//
2099:hardware/src/lcd.c **** 		LCD_WriteReg(0x0080, 0x0000);
 8363              		.loc 1 2099 3
 8364 2b1c 0021     		movs	r1, #0
 8365 2b1e 8020     		movs	r0, #128
 8366 2b20 FFF7FEFF 		bl	LCD_WriteReg
2100:hardware/src/lcd.c **** 		LCD_WriteReg(0x0081, 0x0000);
ARM GAS  /tmp/ccRHtd69.s 			page 194


 8367              		.loc 1 2100 3
 8368 2b24 0021     		movs	r1, #0
 8369 2b26 8120     		movs	r0, #129
 8370 2b28 FFF7FEFF 		bl	LCD_WriteReg
2101:hardware/src/lcd.c **** 		LCD_WriteReg(0x0082, 0x0000);
 8371              		.loc 1 2101 3
 8372 2b2c 0021     		movs	r1, #0
 8373 2b2e 8220     		movs	r0, #130
 8374 2b30 FFF7FEFF 		bl	LCD_WriteReg
2102:hardware/src/lcd.c **** 		LCD_WriteReg(0x0083, 0x0000);
 8375              		.loc 1 2102 3
 8376 2b34 0021     		movs	r1, #0
 8377 2b36 8320     		movs	r0, #131
 8378 2b38 FFF7FEFF 		bl	LCD_WriteReg
2103:hardware/src/lcd.c **** 		LCD_WriteReg(0x0084, 0x0000);
 8379              		.loc 1 2103 3
 8380 2b3c 0021     		movs	r1, #0
 8381 2b3e 8420     		movs	r0, #132
 8382 2b40 FFF7FEFF 		bl	LCD_WriteReg
2104:hardware/src/lcd.c **** 		LCD_WriteReg(0x0085, 0x0000);
 8383              		.loc 1 2104 3
 8384 2b44 0021     		movs	r1, #0
 8385 2b46 8520     		movs	r0, #133
 8386 2b48 FFF7FEFF 		bl	LCD_WriteReg
2105:hardware/src/lcd.c **** 		//-------------- Panel Control -------------------//
2106:hardware/src/lcd.c **** 		LCD_WriteReg(0x0090, 0x0010);
 8387              		.loc 1 2106 3
 8388 2b4c 1021     		movs	r1, #16
 8389 2b4e 9020     		movs	r0, #144
 8390 2b50 FFF7FEFF 		bl	LCD_WriteReg
2107:hardware/src/lcd.c **** 		LCD_WriteReg(0x0092, 0x0600);
 8391              		.loc 1 2107 3
 8392 2b54 4FF4C061 		mov	r1, #1536
 8393 2b58 9220     		movs	r0, #146
 8394 2b5a FFF7FEFF 		bl	LCD_WriteReg
2108:hardware/src/lcd.c **** 		LCD_WriteReg(0x0007, 0x0133); // 262K color and display ON
 8395              		.loc 1 2108 3
 8396 2b5e 40F23311 		movw	r1, #307
 8397 2b62 0720     		movs	r0, #7
 8398 2b64 FFF7FEFF 		bl	LCD_WriteReg
 8399 2b68 00F0E8BD 		b	.L172
 8400              	.L200:
 8401              		.align	2
 8402              	.L199:
 8403 2b6c 00000000 		.word	lcddev
 8404              	.L179:
2109:hardware/src/lcd.c **** 	}else if(lcddev.id==0x5408)
 8405              		.loc 1 2109 17
 8406 2b70 E24B     		ldr	r3, .L201
 8407 2b72 9B88     		ldrh	r3, [r3, #4]
 8408              		.loc 1 2109 10
 8409 2b74 45F20842 		movw	r2, #21512
 8410 2b78 9342     		cmp	r3, r2
 8411 2b7a 40F0A380 		bne	.L180
2110:hardware/src/lcd.c **** 	{
2111:hardware/src/lcd.c **** 		LCD_WriteReg(0x01,0x0100);								  
 8412              		.loc 1 2111 3
ARM GAS  /tmp/ccRHtd69.s 			page 195


 8413 2b7e 4FF48071 		mov	r1, #256
 8414 2b82 0120     		movs	r0, #1
 8415 2b84 FFF7FEFF 		bl	LCD_WriteReg
2112:hardware/src/lcd.c **** 		LCD_WriteReg(0x02,0x0700);//LCD Driving Waveform Contral 
 8416              		.loc 1 2112 3
 8417 2b88 4FF4E061 		mov	r1, #1792
 8418 2b8c 0220     		movs	r0, #2
 8419 2b8e FFF7FEFF 		bl	LCD_WriteReg
2113:hardware/src/lcd.c **** 		LCD_WriteReg(0x03,0x1030);//Entry Mode设置 	   
 8420              		.loc 1 2113 3
 8421 2b92 41F23001 		movw	r1, #4144
 8422 2b96 0320     		movs	r0, #3
 8423 2b98 FFF7FEFF 		bl	LCD_WriteReg
2114:hardware/src/lcd.c **** 		//指针从左至右自上而下的自动增模式
2115:hardware/src/lcd.c **** 		//Normal Mode(Window Mode disable)
2116:hardware/src/lcd.c **** 		//RGB格式
2117:hardware/src/lcd.c **** 		//16位数据2次传输的8总线设置
2118:hardware/src/lcd.c **** 		LCD_WriteReg(0x04,0x0000); //Scalling Control register     
 8424              		.loc 1 2118 3
 8425 2b9c 0021     		movs	r1, #0
 8426 2b9e 0420     		movs	r0, #4
 8427 2ba0 FFF7FEFF 		bl	LCD_WriteReg
2119:hardware/src/lcd.c **** 		LCD_WriteReg(0x08,0x0207); //Display Control 2 
 8428              		.loc 1 2119 3
 8429 2ba4 40F20721 		movw	r1, #519
 8430 2ba8 0820     		movs	r0, #8
 8431 2baa FFF7FEFF 		bl	LCD_WriteReg
2120:hardware/src/lcd.c **** 		LCD_WriteReg(0x09,0x0000); //Display Control 3	 
 8432              		.loc 1 2120 3
 8433 2bae 0021     		movs	r1, #0
 8434 2bb0 0920     		movs	r0, #9
 8435 2bb2 FFF7FEFF 		bl	LCD_WriteReg
2121:hardware/src/lcd.c **** 		LCD_WriteReg(0x0A,0x0000); //Frame Cycle Control	 
 8436              		.loc 1 2121 3
 8437 2bb6 0021     		movs	r1, #0
 8438 2bb8 0A20     		movs	r0, #10
 8439 2bba FFF7FEFF 		bl	LCD_WriteReg
2122:hardware/src/lcd.c **** 		LCD_WriteReg(0x0C,0x0000); //External Display Interface Control 1 
 8440              		.loc 1 2122 3
 8441 2bbe 0021     		movs	r1, #0
 8442 2bc0 0C20     		movs	r0, #12
 8443 2bc2 FFF7FEFF 		bl	LCD_WriteReg
2123:hardware/src/lcd.c **** 		LCD_WriteReg(0x0D,0x0000); //Frame Maker Position		 
 8444              		.loc 1 2123 3
 8445 2bc6 0021     		movs	r1, #0
 8446 2bc8 0D20     		movs	r0, #13
 8447 2bca FFF7FEFF 		bl	LCD_WriteReg
2124:hardware/src/lcd.c **** 		LCD_WriteReg(0x0F,0x0000); //External Display Interface Control 2 
 8448              		.loc 1 2124 3
 8449 2bce 0021     		movs	r1, #0
 8450 2bd0 0F20     		movs	r0, #15
 8451 2bd2 FFF7FEFF 		bl	LCD_WriteReg
2125:hardware/src/lcd.c ****  		delay_ms(20);
 8452              		.loc 1 2125 4
 8453 2bd6 1420     		movs	r0, #20
 8454 2bd8 FFF7FEFF 		bl	delay_ms
2126:hardware/src/lcd.c **** 		//TFT 液晶彩色图像显示方法14
ARM GAS  /tmp/ccRHtd69.s 			page 196


2127:hardware/src/lcd.c **** 		LCD_WriteReg(0x10,0x16B0); //0x14B0 //Power Control 1
 8455              		.loc 1 2127 3
 8456 2bdc 41F2B061 		movw	r1, #5808
 8457 2be0 1020     		movs	r0, #16
 8458 2be2 FFF7FEFF 		bl	LCD_WriteReg
2128:hardware/src/lcd.c **** 		LCD_WriteReg(0x11,0x0001); //0x0007 //Power Control 2
 8459              		.loc 1 2128 3
 8460 2be6 0121     		movs	r1, #1
 8461 2be8 1120     		movs	r0, #17
 8462 2bea FFF7FEFF 		bl	LCD_WriteReg
2129:hardware/src/lcd.c **** 		LCD_WriteReg(0x17,0x0001); //0x0000 //Power Control 3
 8463              		.loc 1 2129 3
 8464 2bee 0121     		movs	r1, #1
 8465 2bf0 1720     		movs	r0, #23
 8466 2bf2 FFF7FEFF 		bl	LCD_WriteReg
2130:hardware/src/lcd.c **** 		LCD_WriteReg(0x12,0x0138); //0x013B //Power Control 4
 8467              		.loc 1 2130 3
 8468 2bf6 4FF49C71 		mov	r1, #312
 8469 2bfa 1220     		movs	r0, #18
 8470 2bfc FFF7FEFF 		bl	LCD_WriteReg
2131:hardware/src/lcd.c **** 		LCD_WriteReg(0x13,0x0800); //0x0800 //Power Control 5
 8471              		.loc 1 2131 3
 8472 2c00 4FF40061 		mov	r1, #2048
 8473 2c04 1320     		movs	r0, #19
 8474 2c06 FFF7FEFF 		bl	LCD_WriteReg
2132:hardware/src/lcd.c **** 		LCD_WriteReg(0x29,0x0009); //NVM read data 2
 8475              		.loc 1 2132 3
 8476 2c0a 0921     		movs	r1, #9
 8477 2c0c 2920     		movs	r0, #41
 8478 2c0e FFF7FEFF 		bl	LCD_WriteReg
2133:hardware/src/lcd.c **** 		LCD_WriteReg(0x2a,0x0009); //NVM read data 3
 8479              		.loc 1 2133 3
 8480 2c12 0921     		movs	r1, #9
 8481 2c14 2A20     		movs	r0, #42
 8482 2c16 FFF7FEFF 		bl	LCD_WriteReg
2134:hardware/src/lcd.c **** 		LCD_WriteReg(0xa4,0x0000);	 
 8483              		.loc 1 2134 3
 8484 2c1a 0021     		movs	r1, #0
 8485 2c1c A420     		movs	r0, #164
 8486 2c1e FFF7FEFF 		bl	LCD_WriteReg
2135:hardware/src/lcd.c **** 		LCD_WriteReg(0x50,0x0000); //设置操作窗口的X轴开始列
 8487              		.loc 1 2135 3
 8488 2c22 0021     		movs	r1, #0
 8489 2c24 5020     		movs	r0, #80
 8490 2c26 FFF7FEFF 		bl	LCD_WriteReg
2136:hardware/src/lcd.c **** 		LCD_WriteReg(0x51,0x00EF); //设置操作窗口的X轴结束列
 8491              		.loc 1 2136 3
 8492 2c2a EF21     		movs	r1, #239
 8493 2c2c 5120     		movs	r0, #81
 8494 2c2e FFF7FEFF 		bl	LCD_WriteReg
2137:hardware/src/lcd.c **** 		LCD_WriteReg(0x52,0x0000); //设置操作窗口的Y轴开始行
 8495              		.loc 1 2137 3
 8496 2c32 0021     		movs	r1, #0
 8497 2c34 5220     		movs	r0, #82
 8498 2c36 FFF7FEFF 		bl	LCD_WriteReg
2138:hardware/src/lcd.c **** 		LCD_WriteReg(0x53,0x013F); //设置操作窗口的Y轴结束行
 8499              		.loc 1 2138 3
ARM GAS  /tmp/ccRHtd69.s 			page 197


 8500 2c3a 40F23F11 		movw	r1, #319
 8501 2c3e 5320     		movs	r0, #83
 8502 2c40 FFF7FEFF 		bl	LCD_WriteReg
2139:hardware/src/lcd.c **** 		LCD_WriteReg(0x60,0x2700); //Driver Output Control
 8503              		.loc 1 2139 3
 8504 2c44 4FF41C51 		mov	r1, #9984
 8505 2c48 6020     		movs	r0, #96
 8506 2c4a FFF7FEFF 		bl	LCD_WriteReg
2140:hardware/src/lcd.c **** 		//设置屏幕的点数以及扫描的起始行
2141:hardware/src/lcd.c **** 		LCD_WriteReg(0x61,0x0001); //Driver Output Control
 8507              		.loc 1 2141 3
 8508 2c4e 0121     		movs	r1, #1
 8509 2c50 6120     		movs	r0, #97
 8510 2c52 FFF7FEFF 		bl	LCD_WriteReg
2142:hardware/src/lcd.c **** 		LCD_WriteReg(0x6A,0x0000); //Vertical Scroll Control
 8511              		.loc 1 2142 3
 8512 2c56 0021     		movs	r1, #0
 8513 2c58 6A20     		movs	r0, #106
 8514 2c5a FFF7FEFF 		bl	LCD_WriteReg
2143:hardware/src/lcd.c **** 		LCD_WriteReg(0x80,0x0000); //Display Position C Partial Display 1
 8515              		.loc 1 2143 3
 8516 2c5e 0021     		movs	r1, #0
 8517 2c60 8020     		movs	r0, #128
 8518 2c62 FFF7FEFF 		bl	LCD_WriteReg
2144:hardware/src/lcd.c **** 		LCD_WriteReg(0x81,0x0000); //RAM Address Start C Partial Display 1
 8519              		.loc 1 2144 3
 8520 2c66 0021     		movs	r1, #0
 8521 2c68 8120     		movs	r0, #129
 8522 2c6a FFF7FEFF 		bl	LCD_WriteReg
2145:hardware/src/lcd.c **** 		LCD_WriteReg(0x82,0x0000); //RAM address End - Partial Display 1
 8523              		.loc 1 2145 3
 8524 2c6e 0021     		movs	r1, #0
 8525 2c70 8220     		movs	r0, #130
 8526 2c72 FFF7FEFF 		bl	LCD_WriteReg
2146:hardware/src/lcd.c **** 		LCD_WriteReg(0x83,0x0000); //Display Position C Partial Display 2
 8527              		.loc 1 2146 3
 8528 2c76 0021     		movs	r1, #0
 8529 2c78 8320     		movs	r0, #131
 8530 2c7a FFF7FEFF 		bl	LCD_WriteReg
2147:hardware/src/lcd.c **** 		LCD_WriteReg(0x84,0x0000); //RAM Address Start C Partial Display 2
 8531              		.loc 1 2147 3
 8532 2c7e 0021     		movs	r1, #0
 8533 2c80 8420     		movs	r0, #132
 8534 2c82 FFF7FEFF 		bl	LCD_WriteReg
2148:hardware/src/lcd.c **** 		LCD_WriteReg(0x85,0x0000); //RAM address End C Partail Display2
 8535              		.loc 1 2148 3
 8536 2c86 0021     		movs	r1, #0
 8537 2c88 8520     		movs	r0, #133
 8538 2c8a FFF7FEFF 		bl	LCD_WriteReg
2149:hardware/src/lcd.c **** 		LCD_WriteReg(0x90,0x0013); //Frame Cycle Control
 8539              		.loc 1 2149 3
 8540 2c8e 1321     		movs	r1, #19
 8541 2c90 9020     		movs	r0, #144
 8542 2c92 FFF7FEFF 		bl	LCD_WriteReg
2150:hardware/src/lcd.c **** 		LCD_WriteReg(0x92,0x0000);  //Panel Interface Control 2
 8543              		.loc 1 2150 3
 8544 2c96 0021     		movs	r1, #0
ARM GAS  /tmp/ccRHtd69.s 			page 198


 8545 2c98 9220     		movs	r0, #146
 8546 2c9a FFF7FEFF 		bl	LCD_WriteReg
2151:hardware/src/lcd.c **** 		LCD_WriteReg(0x93,0x0003); //Panel Interface control 3
 8547              		.loc 1 2151 3
 8548 2c9e 0321     		movs	r1, #3
 8549 2ca0 9320     		movs	r0, #147
 8550 2ca2 FFF7FEFF 		bl	LCD_WriteReg
2152:hardware/src/lcd.c **** 		LCD_WriteReg(0x95,0x0110);  //Frame Cycle Control
 8551              		.loc 1 2152 3
 8552 2ca6 4FF48871 		mov	r1, #272
 8553 2caa 9520     		movs	r0, #149
 8554 2cac FFF7FEFF 		bl	LCD_WriteReg
2153:hardware/src/lcd.c **** 		LCD_WriteReg(0x07,0x0173);		 
 8555              		.loc 1 2153 3
 8556 2cb0 40F27311 		movw	r1, #371
 8557 2cb4 0720     		movs	r0, #7
 8558 2cb6 FFF7FEFF 		bl	LCD_WriteReg
2154:hardware/src/lcd.c **** 		delay_ms(50);
 8559              		.loc 1 2154 3
 8560 2cba 3220     		movs	r0, #50
 8561 2cbc FFF7FEFF 		bl	delay_ms
 8562 2cc0 00F03CBD 		b	.L172
 8563              	.L180:
2155:hardware/src/lcd.c **** 	}	
2156:hardware/src/lcd.c **** 	else if(lcddev.id==0x1505)//OK
 8564              		.loc 1 2156 16
 8565 2cc4 8D4B     		ldr	r3, .L201
 8566 2cc6 9B88     		ldrh	r3, [r3, #4]
 8567              		.loc 1 2156 9
 8568 2cc8 41F20552 		movw	r2, #5381
 8569 2ccc 9342     		cmp	r3, r2
 8570 2cce 40F01781 		bne	.L181
2157:hardware/src/lcd.c **** 	{
2158:hardware/src/lcd.c **** 		// second release on 3/5  ,luminance is acceptable,water wave appear during camera preview
2159:hardware/src/lcd.c ****         LCD_WriteReg(0x0007,0x0000);
 8571              		.loc 1 2159 9
 8572 2cd2 0021     		movs	r1, #0
 8573 2cd4 0720     		movs	r0, #7
 8574 2cd6 FFF7FEFF 		bl	LCD_WriteReg
2160:hardware/src/lcd.c ****         delay_ms(50); 
 8575              		.loc 1 2160 9
 8576 2cda 3220     		movs	r0, #50
 8577 2cdc FFF7FEFF 		bl	delay_ms
2161:hardware/src/lcd.c ****         LCD_WriteReg(0x0012,0x011C);//0x011A   why need to set several times?
 8578              		.loc 1 2161 9
 8579 2ce0 4FF48E71 		mov	r1, #284
 8580 2ce4 1220     		movs	r0, #18
 8581 2ce6 FFF7FEFF 		bl	LCD_WriteReg
2162:hardware/src/lcd.c ****         LCD_WriteReg(0x00A4,0x0001);//NVM	 
 8582              		.loc 1 2162 9
 8583 2cea 0121     		movs	r1, #1
 8584 2cec A420     		movs	r0, #164
 8585 2cee FFF7FEFF 		bl	LCD_WriteReg
2163:hardware/src/lcd.c ****         LCD_WriteReg(0x0008,0x000F);
 8586              		.loc 1 2163 9
 8587 2cf2 0F21     		movs	r1, #15
 8588 2cf4 0820     		movs	r0, #8
ARM GAS  /tmp/ccRHtd69.s 			page 199


 8589 2cf6 FFF7FEFF 		bl	LCD_WriteReg
2164:hardware/src/lcd.c ****         LCD_WriteReg(0x000A,0x0008);
 8590              		.loc 1 2164 9
 8591 2cfa 0821     		movs	r1, #8
 8592 2cfc 0A20     		movs	r0, #10
 8593 2cfe FFF7FEFF 		bl	LCD_WriteReg
2165:hardware/src/lcd.c ****         LCD_WriteReg(0x000D,0x0008);	    
 8594              		.loc 1 2165 9
 8595 2d02 0821     		movs	r1, #8
 8596 2d04 0D20     		movs	r0, #13
 8597 2d06 FFF7FEFF 		bl	LCD_WriteReg
2166:hardware/src/lcd.c ****   		//伽马校正
2167:hardware/src/lcd.c ****         LCD_WriteReg(0x0030,0x0707);
 8598              		.loc 1 2167 9
 8599 2d0a 40F20771 		movw	r1, #1799
 8600 2d0e 3020     		movs	r0, #48
 8601 2d10 FFF7FEFF 		bl	LCD_WriteReg
2168:hardware/src/lcd.c ****         LCD_WriteReg(0x0031,0x0007); //0x0707
 8602              		.loc 1 2168 9
 8603 2d14 0721     		movs	r1, #7
 8604 2d16 3120     		movs	r0, #49
 8605 2d18 FFF7FEFF 		bl	LCD_WriteReg
2169:hardware/src/lcd.c ****         LCD_WriteReg(0x0032,0x0603); 
 8606              		.loc 1 2169 9
 8607 2d1c 40F20361 		movw	r1, #1539
 8608 2d20 3220     		movs	r0, #50
 8609 2d22 FFF7FEFF 		bl	LCD_WriteReg
2170:hardware/src/lcd.c ****         LCD_WriteReg(0x0033,0x0700); 
 8610              		.loc 1 2170 9
 8611 2d26 4FF4E061 		mov	r1, #1792
 8612 2d2a 3320     		movs	r0, #51
 8613 2d2c FFF7FEFF 		bl	LCD_WriteReg
2171:hardware/src/lcd.c ****         LCD_WriteReg(0x0034,0x0202); 
 8614              		.loc 1 2171 9
 8615 2d30 40F20221 		movw	r1, #514
 8616 2d34 3420     		movs	r0, #52
 8617 2d36 FFF7FEFF 		bl	LCD_WriteReg
2172:hardware/src/lcd.c ****         LCD_WriteReg(0x0035,0x0002); //?0x0606
 8618              		.loc 1 2172 9
 8619 2d3a 0221     		movs	r1, #2
 8620 2d3c 3520     		movs	r0, #53
 8621 2d3e FFF7FEFF 		bl	LCD_WriteReg
2173:hardware/src/lcd.c ****         LCD_WriteReg(0x0036,0x1F0F);
 8622              		.loc 1 2173 9
 8623 2d42 41F60F71 		movw	r1, #7951
 8624 2d46 3620     		movs	r0, #54
 8625 2d48 FFF7FEFF 		bl	LCD_WriteReg
2174:hardware/src/lcd.c ****         LCD_WriteReg(0x0037,0x0707); //0x0f0f  0x0105
 8626              		.loc 1 2174 9
 8627 2d4c 40F20771 		movw	r1, #1799
 8628 2d50 3720     		movs	r0, #55
 8629 2d52 FFF7FEFF 		bl	LCD_WriteReg
2175:hardware/src/lcd.c ****         LCD_WriteReg(0x0038,0x0000); 
 8630              		.loc 1 2175 9
 8631 2d56 0021     		movs	r1, #0
 8632 2d58 3820     		movs	r0, #56
 8633 2d5a FFF7FEFF 		bl	LCD_WriteReg
ARM GAS  /tmp/ccRHtd69.s 			page 200


2176:hardware/src/lcd.c ****         LCD_WriteReg(0x0039,0x0000); 
 8634              		.loc 1 2176 9
 8635 2d5e 0021     		movs	r1, #0
 8636 2d60 3920     		movs	r0, #57
 8637 2d62 FFF7FEFF 		bl	LCD_WriteReg
2177:hardware/src/lcd.c ****         LCD_WriteReg(0x003A,0x0707); 
 8638              		.loc 1 2177 9
 8639 2d66 40F20771 		movw	r1, #1799
 8640 2d6a 3A20     		movs	r0, #58
 8641 2d6c FFF7FEFF 		bl	LCD_WriteReg
2178:hardware/src/lcd.c ****         LCD_WriteReg(0x003B,0x0000); //0x0303
 8642              		.loc 1 2178 9
 8643 2d70 0021     		movs	r1, #0
 8644 2d72 3B20     		movs	r0, #59
 8645 2d74 FFF7FEFF 		bl	LCD_WriteReg
2179:hardware/src/lcd.c ****         LCD_WriteReg(0x003C,0x0007); //?0x0707
 8646              		.loc 1 2179 9
 8647 2d78 0721     		movs	r1, #7
 8648 2d7a 3C20     		movs	r0, #60
 8649 2d7c FFF7FEFF 		bl	LCD_WriteReg
2180:hardware/src/lcd.c ****         LCD_WriteReg(0x003D,0x0000); //0x1313//0x1f08
 8650              		.loc 1 2180 9
 8651 2d80 0021     		movs	r1, #0
 8652 2d82 3D20     		movs	r0, #61
 8653 2d84 FFF7FEFF 		bl	LCD_WriteReg
2181:hardware/src/lcd.c ****         delay_ms(50); 
 8654              		.loc 1 2181 9
 8655 2d88 3220     		movs	r0, #50
 8656 2d8a FFF7FEFF 		bl	delay_ms
2182:hardware/src/lcd.c ****         LCD_WriteReg(0x0007,0x0001);
 8657              		.loc 1 2182 9
 8658 2d8e 0121     		movs	r1, #1
 8659 2d90 0720     		movs	r0, #7
 8660 2d92 FFF7FEFF 		bl	LCD_WriteReg
2183:hardware/src/lcd.c ****         LCD_WriteReg(0x0017,0x0001);//开启电源
 8661              		.loc 1 2183 9
 8662 2d96 0121     		movs	r1, #1
 8663 2d98 1720     		movs	r0, #23
 8664 2d9a FFF7FEFF 		bl	LCD_WriteReg
2184:hardware/src/lcd.c ****         delay_ms(50); 
 8665              		.loc 1 2184 9
 8666 2d9e 3220     		movs	r0, #50
 8667 2da0 FFF7FEFF 		bl	delay_ms
2185:hardware/src/lcd.c ****   		//电源配置
2186:hardware/src/lcd.c ****         LCD_WriteReg(0x0010,0x17A0); 
 8668              		.loc 1 2186 9
 8669 2da4 4FF4BD51 		mov	r1, #6048
 8670 2da8 1020     		movs	r0, #16
 8671 2daa FFF7FEFF 		bl	LCD_WriteReg
2187:hardware/src/lcd.c ****         LCD_WriteReg(0x0011,0x0217);//reference voltage VC[2:0]   Vciout = 1.00*Vcivl
 8672              		.loc 1 2187 9
 8673 2dae 40F21721 		movw	r1, #535
 8674 2db2 1120     		movs	r0, #17
 8675 2db4 FFF7FEFF 		bl	LCD_WriteReg
2188:hardware/src/lcd.c ****         LCD_WriteReg(0x0012,0x011E);//0x011c  //Vreg1out = Vcilvl*1.80   is it the same as Vgama1ou
 8676              		.loc 1 2188 9
 8677 2db8 4FF48F71 		mov	r1, #286
ARM GAS  /tmp/ccRHtd69.s 			page 201


 8678 2dbc 1220     		movs	r0, #18
 8679 2dbe FFF7FEFF 		bl	LCD_WriteReg
2189:hardware/src/lcd.c ****         LCD_WriteReg(0x0013,0x0F00);//VDV[4:0]-->VCOM Amplitude VcomL = VcomH - Vcom Ampl
 8680              		.loc 1 2189 9
 8681 2dc2 4FF47061 		mov	r1, #3840
 8682 2dc6 1320     		movs	r0, #19
 8683 2dc8 FFF7FEFF 		bl	LCD_WriteReg
2190:hardware/src/lcd.c ****         LCD_WriteReg(0x002A,0x0000);  
 8684              		.loc 1 2190 9
 8685 2dcc 0021     		movs	r1, #0
 8686 2dce 2A20     		movs	r0, #42
 8687 2dd0 FFF7FEFF 		bl	LCD_WriteReg
2191:hardware/src/lcd.c ****         LCD_WriteReg(0x0029,0x000A);//0x0001F  Vcomh = VCM1[4:0]*Vreg1out    gate source voltage??
 8688              		.loc 1 2191 9
 8689 2dd4 0A21     		movs	r1, #10
 8690 2dd6 2920     		movs	r0, #41
 8691 2dd8 FFF7FEFF 		bl	LCD_WriteReg
2192:hardware/src/lcd.c ****         LCD_WriteReg(0x0012,0x013E);// 0x013C  power supply on
 8692              		.loc 1 2192 9
 8693 2ddc 4FF49F71 		mov	r1, #318
 8694 2de0 1220     		movs	r0, #18
 8695 2de2 FFF7FEFF 		bl	LCD_WriteReg
2193:hardware/src/lcd.c ****         //Coordinates Control//
2194:hardware/src/lcd.c ****         LCD_WriteReg(0x0050,0x0000);//0x0e00
 8696              		.loc 1 2194 9
 8697 2de6 0021     		movs	r1, #0
 8698 2de8 5020     		movs	r0, #80
 8699 2dea FFF7FEFF 		bl	LCD_WriteReg
2195:hardware/src/lcd.c ****         LCD_WriteReg(0x0051,0x00EF); 
 8700              		.loc 1 2195 9
 8701 2dee EF21     		movs	r1, #239
 8702 2df0 5120     		movs	r0, #81
 8703 2df2 FFF7FEFF 		bl	LCD_WriteReg
2196:hardware/src/lcd.c ****         LCD_WriteReg(0x0052,0x0000); 
 8704              		.loc 1 2196 9
 8705 2df6 0021     		movs	r1, #0
 8706 2df8 5220     		movs	r0, #82
 8707 2dfa FFF7FEFF 		bl	LCD_WriteReg
2197:hardware/src/lcd.c ****         LCD_WriteReg(0x0053,0x013F); 
 8708              		.loc 1 2197 9
 8709 2dfe 40F23F11 		movw	r1, #319
 8710 2e02 5320     		movs	r0, #83
 8711 2e04 FFF7FEFF 		bl	LCD_WriteReg
2198:hardware/src/lcd.c ****     	//Pannel Image Control//
2199:hardware/src/lcd.c ****         LCD_WriteReg(0x0060,0x2700); 
 8712              		.loc 1 2199 9
 8713 2e08 4FF41C51 		mov	r1, #9984
 8714 2e0c 6020     		movs	r0, #96
 8715 2e0e FFF7FEFF 		bl	LCD_WriteReg
2200:hardware/src/lcd.c ****         LCD_WriteReg(0x0061,0x0001); 
 8716              		.loc 1 2200 9
 8717 2e12 0121     		movs	r1, #1
 8718 2e14 6120     		movs	r0, #97
 8719 2e16 FFF7FEFF 		bl	LCD_WriteReg
2201:hardware/src/lcd.c ****         LCD_WriteReg(0x006A,0x0000); 
 8720              		.loc 1 2201 9
 8721 2e1a 0021     		movs	r1, #0
ARM GAS  /tmp/ccRHtd69.s 			page 202


 8722 2e1c 6A20     		movs	r0, #106
 8723 2e1e FFF7FEFF 		bl	LCD_WriteReg
2202:hardware/src/lcd.c ****         LCD_WriteReg(0x0080,0x0000); 
 8724              		.loc 1 2202 9
 8725 2e22 0021     		movs	r1, #0
 8726 2e24 8020     		movs	r0, #128
 8727 2e26 FFF7FEFF 		bl	LCD_WriteReg
2203:hardware/src/lcd.c ****     	//Partial Image Control//
2204:hardware/src/lcd.c ****         LCD_WriteReg(0x0081,0x0000); 
 8728              		.loc 1 2204 9
 8729 2e2a 0021     		movs	r1, #0
 8730 2e2c 8120     		movs	r0, #129
 8731 2e2e FFF7FEFF 		bl	LCD_WriteReg
2205:hardware/src/lcd.c ****         LCD_WriteReg(0x0082,0x0000); 
 8732              		.loc 1 2205 9
 8733 2e32 0021     		movs	r1, #0
 8734 2e34 8220     		movs	r0, #130
 8735 2e36 FFF7FEFF 		bl	LCD_WriteReg
2206:hardware/src/lcd.c ****         LCD_WriteReg(0x0083,0x0000); 
 8736              		.loc 1 2206 9
 8737 2e3a 0021     		movs	r1, #0
 8738 2e3c 8320     		movs	r0, #131
 8739 2e3e FFF7FEFF 		bl	LCD_WriteReg
2207:hardware/src/lcd.c ****         LCD_WriteReg(0x0084,0x0000); 
 8740              		.loc 1 2207 9
 8741 2e42 0021     		movs	r1, #0
 8742 2e44 8420     		movs	r0, #132
 8743 2e46 FFF7FEFF 		bl	LCD_WriteReg
2208:hardware/src/lcd.c ****         LCD_WriteReg(0x0085,0x0000); 
 8744              		.loc 1 2208 9
 8745 2e4a 0021     		movs	r1, #0
 8746 2e4c 8520     		movs	r0, #133
 8747 2e4e FFF7FEFF 		bl	LCD_WriteReg
2209:hardware/src/lcd.c ****   		//Panel Interface Control//
2210:hardware/src/lcd.c ****         LCD_WriteReg(0x0090,0x0013);//0x0010 frenqucy
 8748              		.loc 1 2210 9
 8749 2e52 1321     		movs	r1, #19
 8750 2e54 9020     		movs	r0, #144
 8751 2e56 FFF7FEFF 		bl	LCD_WriteReg
2211:hardware/src/lcd.c ****         LCD_WriteReg(0x0092,0x0300); 
 8752              		.loc 1 2211 9
 8753 2e5a 4FF44071 		mov	r1, #768
 8754 2e5e 9220     		movs	r0, #146
 8755 2e60 FFF7FEFF 		bl	LCD_WriteReg
2212:hardware/src/lcd.c ****         LCD_WriteReg(0x0093,0x0005); 
 8756              		.loc 1 2212 9
 8757 2e64 0521     		movs	r1, #5
 8758 2e66 9320     		movs	r0, #147
 8759 2e68 FFF7FEFF 		bl	LCD_WriteReg
2213:hardware/src/lcd.c ****         LCD_WriteReg(0x0095,0x0000); 
 8760              		.loc 1 2213 9
 8761 2e6c 0021     		movs	r1, #0
 8762 2e6e 9520     		movs	r0, #149
 8763 2e70 FFF7FEFF 		bl	LCD_WriteReg
2214:hardware/src/lcd.c ****         LCD_WriteReg(0x0097,0x0000); 
 8764              		.loc 1 2214 9
 8765 2e74 0021     		movs	r1, #0
ARM GAS  /tmp/ccRHtd69.s 			page 203


 8766 2e76 9720     		movs	r0, #151
 8767 2e78 FFF7FEFF 		bl	LCD_WriteReg
2215:hardware/src/lcd.c ****         LCD_WriteReg(0x0098,0x0000); 
 8768              		.loc 1 2215 9
 8769 2e7c 0021     		movs	r1, #0
 8770 2e7e 9820     		movs	r0, #152
 8771 2e80 FFF7FEFF 		bl	LCD_WriteReg
2216:hardware/src/lcd.c ****   
2217:hardware/src/lcd.c ****         LCD_WriteReg(0x0001,0x0100); 
 8772              		.loc 1 2217 9
 8773 2e84 4FF48071 		mov	r1, #256
 8774 2e88 0120     		movs	r0, #1
 8775 2e8a FFF7FEFF 		bl	LCD_WriteReg
2218:hardware/src/lcd.c ****         LCD_WriteReg(0x0002,0x0700); 
 8776              		.loc 1 2218 9
 8777 2e8e 4FF4E061 		mov	r1, #1792
 8778 2e92 0220     		movs	r0, #2
 8779 2e94 FFF7FEFF 		bl	LCD_WriteReg
2219:hardware/src/lcd.c ****         LCD_WriteReg(0x0003,0x1038);//扫描方向 上->下  左->右 
 8780              		.loc 1 2219 9
 8781 2e98 41F23801 		movw	r1, #4152
 8782 2e9c 0320     		movs	r0, #3
 8783 2e9e FFF7FEFF 		bl	LCD_WriteReg
2220:hardware/src/lcd.c ****         LCD_WriteReg(0x0004,0x0000); 
 8784              		.loc 1 2220 9
 8785 2ea2 0021     		movs	r1, #0
 8786 2ea4 0420     		movs	r0, #4
 8787 2ea6 FFF7FEFF 		bl	LCD_WriteReg
2221:hardware/src/lcd.c ****         LCD_WriteReg(0x000C,0x0000); 
 8788              		.loc 1 2221 9
 8789 2eaa 0021     		movs	r1, #0
 8790 2eac 0C20     		movs	r0, #12
 8791 2eae FFF7FEFF 		bl	LCD_WriteReg
2222:hardware/src/lcd.c ****         LCD_WriteReg(0x000F,0x0000); 
 8792              		.loc 1 2222 9
 8793 2eb2 0021     		movs	r1, #0
 8794 2eb4 0F20     		movs	r0, #15
 8795 2eb6 FFF7FEFF 		bl	LCD_WriteReg
2223:hardware/src/lcd.c ****         LCD_WriteReg(0x0020,0x0000); 
 8796              		.loc 1 2223 9
 8797 2eba 0021     		movs	r1, #0
 8798 2ebc 2020     		movs	r0, #32
 8799 2ebe FFF7FEFF 		bl	LCD_WriteReg
2224:hardware/src/lcd.c ****         LCD_WriteReg(0x0021,0x0000); 
 8800              		.loc 1 2224 9
 8801 2ec2 0021     		movs	r1, #0
 8802 2ec4 2120     		movs	r0, #33
 8803 2ec6 FFF7FEFF 		bl	LCD_WriteReg
2225:hardware/src/lcd.c ****         LCD_WriteReg(0x0007,0x0021); 
 8804              		.loc 1 2225 9
 8805 2eca 2121     		movs	r1, #33
 8806 2ecc 0720     		movs	r0, #7
 8807 2ece FFF7FEFF 		bl	LCD_WriteReg
2226:hardware/src/lcd.c ****         delay_ms(20);
 8808              		.loc 1 2226 9
 8809 2ed2 1420     		movs	r0, #20
 8810 2ed4 FFF7FEFF 		bl	delay_ms
ARM GAS  /tmp/ccRHtd69.s 			page 204


2227:hardware/src/lcd.c ****         LCD_WriteReg(0x0007,0x0061); 
 8811              		.loc 1 2227 9
 8812 2ed8 6121     		movs	r1, #97
 8813 2eda 0720     		movs	r0, #7
 8814 2edc FFF7FEFF 		bl	LCD_WriteReg
2228:hardware/src/lcd.c ****         delay_ms(20);
 8815              		.loc 1 2228 9
 8816 2ee0 1420     		movs	r0, #20
 8817 2ee2 FFF7FEFF 		bl	delay_ms
2229:hardware/src/lcd.c ****         LCD_WriteReg(0x0007,0x0173); 
 8818              		.loc 1 2229 9
 8819 2ee6 40F27311 		movw	r1, #371
 8820 2eea 0720     		movs	r0, #7
 8821 2eec FFF7FEFF 		bl	LCD_WriteReg
2230:hardware/src/lcd.c ****         delay_ms(20);
 8822              		.loc 1 2230 9
 8823 2ef0 1420     		movs	r0, #20
 8824 2ef2 FFF7FEFF 		bl	delay_ms
 8825 2ef6 00F021BC 		b	.L172
 8826              	.L202:
 8827 2efa 00BF     		.align	2
 8828              	.L201:
 8829 2efc 00000000 		.word	lcddev
 8830              	.L181:
2231:hardware/src/lcd.c **** 	}else if(lcddev.id==0xB505)
 8831              		.loc 1 2231 17
 8832 2f00 EF4B     		ldr	r3, .L203
 8833 2f02 9B88     		ldrh	r3, [r3, #4]
 8834              		.loc 1 2231 10
 8835 2f04 4BF20552 		movw	r2, #46341
 8836 2f08 9342     		cmp	r3, r2
 8837 2f0a 40F00281 		bne	.L182
2232:hardware/src/lcd.c **** 	{
2233:hardware/src/lcd.c **** 		LCD_WriteReg(0x0000,0x0000);
 8838              		.loc 1 2233 3
 8839 2f0e 0021     		movs	r1, #0
 8840 2f10 0020     		movs	r0, #0
 8841 2f12 FFF7FEFF 		bl	LCD_WriteReg
2234:hardware/src/lcd.c **** 		LCD_WriteReg(0x0000,0x0000);
 8842              		.loc 1 2234 3
 8843 2f16 0021     		movs	r1, #0
 8844 2f18 0020     		movs	r0, #0
 8845 2f1a FFF7FEFF 		bl	LCD_WriteReg
2235:hardware/src/lcd.c **** 		LCD_WriteReg(0x0000,0x0000);
 8846              		.loc 1 2235 3
 8847 2f1e 0021     		movs	r1, #0
 8848 2f20 0020     		movs	r0, #0
 8849 2f22 FFF7FEFF 		bl	LCD_WriteReg
2236:hardware/src/lcd.c **** 		LCD_WriteReg(0x0000,0x0000);
 8850              		.loc 1 2236 3
 8851 2f26 0021     		movs	r1, #0
 8852 2f28 0020     		movs	r0, #0
 8853 2f2a FFF7FEFF 		bl	LCD_WriteReg
2237:hardware/src/lcd.c **** 		
2238:hardware/src/lcd.c **** 		LCD_WriteReg(0x00a4,0x0001);
 8854              		.loc 1 2238 3
 8855 2f2e 0121     		movs	r1, #1
ARM GAS  /tmp/ccRHtd69.s 			page 205


 8856 2f30 A420     		movs	r0, #164
 8857 2f32 FFF7FEFF 		bl	LCD_WriteReg
2239:hardware/src/lcd.c **** 		delay_ms(20);		  
 8858              		.loc 1 2239 3
 8859 2f36 1420     		movs	r0, #20
 8860 2f38 FFF7FEFF 		bl	delay_ms
2240:hardware/src/lcd.c **** 		LCD_WriteReg(0x0060,0x2700);
 8861              		.loc 1 2240 3
 8862 2f3c 4FF41C51 		mov	r1, #9984
 8863 2f40 6020     		movs	r0, #96
 8864 2f42 FFF7FEFF 		bl	LCD_WriteReg
2241:hardware/src/lcd.c **** 		LCD_WriteReg(0x0008,0x0202);
 8865              		.loc 1 2241 3
 8866 2f46 40F20221 		movw	r1, #514
 8867 2f4a 0820     		movs	r0, #8
 8868 2f4c FFF7FEFF 		bl	LCD_WriteReg
2242:hardware/src/lcd.c **** 		
2243:hardware/src/lcd.c **** 		LCD_WriteReg(0x0030,0x0214);
 8869              		.loc 1 2243 3
 8870 2f50 4FF40571 		mov	r1, #532
 8871 2f54 3020     		movs	r0, #48
 8872 2f56 FFF7FEFF 		bl	LCD_WriteReg
2244:hardware/src/lcd.c **** 		LCD_WriteReg(0x0031,0x3715);
 8873              		.loc 1 2244 3
 8874 2f5a 43F21571 		movw	r1, #14101
 8875 2f5e 3120     		movs	r0, #49
 8876 2f60 FFF7FEFF 		bl	LCD_WriteReg
2245:hardware/src/lcd.c **** 		LCD_WriteReg(0x0032,0x0604);
 8877              		.loc 1 2245 3
 8878 2f64 40F20461 		movw	r1, #1540
 8879 2f68 3220     		movs	r0, #50
 8880 2f6a FFF7FEFF 		bl	LCD_WriteReg
2246:hardware/src/lcd.c **** 		LCD_WriteReg(0x0033,0x0e16);
 8881              		.loc 1 2246 3
 8882 2f6e 40F61661 		movw	r1, #3606
 8883 2f72 3320     		movs	r0, #51
 8884 2f74 FFF7FEFF 		bl	LCD_WriteReg
2247:hardware/src/lcd.c **** 		LCD_WriteReg(0x0034,0x2211);
 8885              		.loc 1 2247 3
 8886 2f78 42F21121 		movw	r1, #8721
 8887 2f7c 3420     		movs	r0, #52
 8888 2f7e FFF7FEFF 		bl	LCD_WriteReg
2248:hardware/src/lcd.c **** 		LCD_WriteReg(0x0035,0x1500);
 8889              		.loc 1 2248 3
 8890 2f82 4FF4A851 		mov	r1, #5376
 8891 2f86 3520     		movs	r0, #53
 8892 2f88 FFF7FEFF 		bl	LCD_WriteReg
2249:hardware/src/lcd.c **** 		LCD_WriteReg(0x0036,0x8507);
 8893              		.loc 1 2249 3
 8894 2f8c 48F20751 		movw	r1, #34055
 8895 2f90 3620     		movs	r0, #54
 8896 2f92 FFF7FEFF 		bl	LCD_WriteReg
2250:hardware/src/lcd.c **** 		LCD_WriteReg(0x0037,0x1407);
 8897              		.loc 1 2250 3
 8898 2f96 41F20741 		movw	r1, #5127
 8899 2f9a 3720     		movs	r0, #55
 8900 2f9c FFF7FEFF 		bl	LCD_WriteReg
ARM GAS  /tmp/ccRHtd69.s 			page 206


2251:hardware/src/lcd.c **** 		LCD_WriteReg(0x0038,0x1403);
 8901              		.loc 1 2251 3
 8902 2fa0 41F20341 		movw	r1, #5123
 8903 2fa4 3820     		movs	r0, #56
 8904 2fa6 FFF7FEFF 		bl	LCD_WriteReg
2252:hardware/src/lcd.c **** 		LCD_WriteReg(0x0039,0x0020);
 8905              		.loc 1 2252 3
 8906 2faa 2021     		movs	r1, #32
 8907 2fac 3920     		movs	r0, #57
 8908 2fae FFF7FEFF 		bl	LCD_WriteReg
2253:hardware/src/lcd.c **** 		
2254:hardware/src/lcd.c **** 		LCD_WriteReg(0x0090,0x001a);
 8909              		.loc 1 2254 3
 8910 2fb2 1A21     		movs	r1, #26
 8911 2fb4 9020     		movs	r0, #144
 8912 2fb6 FFF7FEFF 		bl	LCD_WriteReg
2255:hardware/src/lcd.c **** 		LCD_WriteReg(0x0010,0x0000);
 8913              		.loc 1 2255 3
 8914 2fba 0021     		movs	r1, #0
 8915 2fbc 1020     		movs	r0, #16
 8916 2fbe FFF7FEFF 		bl	LCD_WriteReg
2256:hardware/src/lcd.c **** 		LCD_WriteReg(0x0011,0x0007);
 8917              		.loc 1 2256 3
 8918 2fc2 0721     		movs	r1, #7
 8919 2fc4 1120     		movs	r0, #17
 8920 2fc6 FFF7FEFF 		bl	LCD_WriteReg
2257:hardware/src/lcd.c **** 		LCD_WriteReg(0x0012,0x0000);
 8921              		.loc 1 2257 3
 8922 2fca 0021     		movs	r1, #0
 8923 2fcc 1220     		movs	r0, #18
 8924 2fce FFF7FEFF 		bl	LCD_WriteReg
2258:hardware/src/lcd.c **** 		LCD_WriteReg(0x0013,0x0000);
 8925              		.loc 1 2258 3
 8926 2fd2 0021     		movs	r1, #0
 8927 2fd4 1320     		movs	r0, #19
 8928 2fd6 FFF7FEFF 		bl	LCD_WriteReg
2259:hardware/src/lcd.c **** 		delay_ms(20);
 8929              		.loc 1 2259 3
 8930 2fda 1420     		movs	r0, #20
 8931 2fdc FFF7FEFF 		bl	delay_ms
2260:hardware/src/lcd.c **** 		
2261:hardware/src/lcd.c **** 		LCD_WriteReg(0x0010,0x0730);
 8932              		.loc 1 2261 3
 8933 2fe0 4FF4E661 		mov	r1, #1840
 8934 2fe4 1020     		movs	r0, #16
 8935 2fe6 FFF7FEFF 		bl	LCD_WriteReg
2262:hardware/src/lcd.c **** 		LCD_WriteReg(0x0011,0x0137);
 8936              		.loc 1 2262 3
 8937 2fea 40F23711 		movw	r1, #311
 8938 2fee 1120     		movs	r0, #17
 8939 2ff0 FFF7FEFF 		bl	LCD_WriteReg
2263:hardware/src/lcd.c **** 		delay_ms(20);
 8940              		.loc 1 2263 3
 8941 2ff4 1420     		movs	r0, #20
 8942 2ff6 FFF7FEFF 		bl	delay_ms
2264:hardware/src/lcd.c **** 		
2265:hardware/src/lcd.c **** 		LCD_WriteReg(0x0012,0x01b8);
ARM GAS  /tmp/ccRHtd69.s 			page 207


 8943              		.loc 1 2265 3
 8944 2ffa 4FF4DC71 		mov	r1, #440
 8945 2ffe 1220     		movs	r0, #18
 8946 3000 FFF7FEFF 		bl	LCD_WriteReg
2266:hardware/src/lcd.c **** 		delay_ms(20);
 8947              		.loc 1 2266 3
 8948 3004 1420     		movs	r0, #20
 8949 3006 FFF7FEFF 		bl	delay_ms
2267:hardware/src/lcd.c **** 		
2268:hardware/src/lcd.c **** 		LCD_WriteReg(0x0013,0x0f00);
 8950              		.loc 1 2268 3
 8951 300a 4FF47061 		mov	r1, #3840
 8952 300e 1320     		movs	r0, #19
 8953 3010 FFF7FEFF 		bl	LCD_WriteReg
2269:hardware/src/lcd.c **** 		LCD_WriteReg(0x002a,0x0080);
 8954              		.loc 1 2269 3
 8955 3014 8021     		movs	r1, #128
 8956 3016 2A20     		movs	r0, #42
 8957 3018 FFF7FEFF 		bl	LCD_WriteReg
2270:hardware/src/lcd.c **** 		LCD_WriteReg(0x0029,0x0048);
 8958              		.loc 1 2270 3
 8959 301c 4821     		movs	r1, #72
 8960 301e 2920     		movs	r0, #41
 8961 3020 FFF7FEFF 		bl	LCD_WriteReg
2271:hardware/src/lcd.c **** 		delay_ms(20);
 8962              		.loc 1 2271 3
 8963 3024 1420     		movs	r0, #20
 8964 3026 FFF7FEFF 		bl	delay_ms
2272:hardware/src/lcd.c **** 		
2273:hardware/src/lcd.c **** 		LCD_WriteReg(0x0001,0x0100);
 8965              		.loc 1 2273 3
 8966 302a 4FF48071 		mov	r1, #256
 8967 302e 0120     		movs	r0, #1
 8968 3030 FFF7FEFF 		bl	LCD_WriteReg
2274:hardware/src/lcd.c **** 		LCD_WriteReg(0x0002,0x0700);
 8969              		.loc 1 2274 3
 8970 3034 4FF4E061 		mov	r1, #1792
 8971 3038 0220     		movs	r0, #2
 8972 303a FFF7FEFF 		bl	LCD_WriteReg
2275:hardware/src/lcd.c ****         LCD_WriteReg(0x0003,0x1038);//扫描方向 上->下  左->右 
 8973              		.loc 1 2275 9
 8974 303e 41F23801 		movw	r1, #4152
 8975 3042 0320     		movs	r0, #3
 8976 3044 FFF7FEFF 		bl	LCD_WriteReg
2276:hardware/src/lcd.c **** 		LCD_WriteReg(0x0008,0x0202);
 8977              		.loc 1 2276 3
 8978 3048 40F20221 		movw	r1, #514
 8979 304c 0820     		movs	r0, #8
 8980 304e FFF7FEFF 		bl	LCD_WriteReg
2277:hardware/src/lcd.c **** 		LCD_WriteReg(0x000a,0x0000);
 8981              		.loc 1 2277 3
 8982 3052 0021     		movs	r1, #0
 8983 3054 0A20     		movs	r0, #10
 8984 3056 FFF7FEFF 		bl	LCD_WriteReg
2278:hardware/src/lcd.c **** 		LCD_WriteReg(0x000c,0x0000);
 8985              		.loc 1 2278 3
 8986 305a 0021     		movs	r1, #0
ARM GAS  /tmp/ccRHtd69.s 			page 208


 8987 305c 0C20     		movs	r0, #12
 8988 305e FFF7FEFF 		bl	LCD_WriteReg
2279:hardware/src/lcd.c **** 		LCD_WriteReg(0x000d,0x0000);
 8989              		.loc 1 2279 3
 8990 3062 0021     		movs	r1, #0
 8991 3064 0D20     		movs	r0, #13
 8992 3066 FFF7FEFF 		bl	LCD_WriteReg
2280:hardware/src/lcd.c **** 		LCD_WriteReg(0x000e,0x0030);
 8993              		.loc 1 2280 3
 8994 306a 3021     		movs	r1, #48
 8995 306c 0E20     		movs	r0, #14
 8996 306e FFF7FEFF 		bl	LCD_WriteReg
2281:hardware/src/lcd.c **** 		LCD_WriteReg(0x0050,0x0000);
 8997              		.loc 1 2281 3
 8998 3072 0021     		movs	r1, #0
 8999 3074 5020     		movs	r0, #80
 9000 3076 FFF7FEFF 		bl	LCD_WriteReg
2282:hardware/src/lcd.c **** 		LCD_WriteReg(0x0051,0x00ef);
 9001              		.loc 1 2282 3
 9002 307a EF21     		movs	r1, #239
 9003 307c 5120     		movs	r0, #81
 9004 307e FFF7FEFF 		bl	LCD_WriteReg
2283:hardware/src/lcd.c **** 		LCD_WriteReg(0x0052,0x0000);
 9005              		.loc 1 2283 3
 9006 3082 0021     		movs	r1, #0
 9007 3084 5220     		movs	r0, #82
 9008 3086 FFF7FEFF 		bl	LCD_WriteReg
2284:hardware/src/lcd.c **** 		LCD_WriteReg(0x0053,0x013f);
 9009              		.loc 1 2284 3
 9010 308a 40F23F11 		movw	r1, #319
 9011 308e 5320     		movs	r0, #83
 9012 3090 FFF7FEFF 		bl	LCD_WriteReg
2285:hardware/src/lcd.c **** 		LCD_WriteReg(0x0060,0x2700);
 9013              		.loc 1 2285 3
 9014 3094 4FF41C51 		mov	r1, #9984
 9015 3098 6020     		movs	r0, #96
 9016 309a FFF7FEFF 		bl	LCD_WriteReg
2286:hardware/src/lcd.c **** 		LCD_WriteReg(0x0061,0x0001);
 9017              		.loc 1 2286 3
 9018 309e 0121     		movs	r1, #1
 9019 30a0 6120     		movs	r0, #97
 9020 30a2 FFF7FEFF 		bl	LCD_WriteReg
2287:hardware/src/lcd.c **** 		LCD_WriteReg(0x006a,0x0000);
 9021              		.loc 1 2287 3
 9022 30a6 0021     		movs	r1, #0
 9023 30a8 6A20     		movs	r0, #106
 9024 30aa FFF7FEFF 		bl	LCD_WriteReg
2288:hardware/src/lcd.c **** 		//LCD_WriteReg(0x0080,0x0000);
2289:hardware/src/lcd.c **** 		//LCD_WriteReg(0x0081,0x0000);
2290:hardware/src/lcd.c **** 		LCD_WriteReg(0x0090,0X0011);
 9025              		.loc 1 2290 3
 9026 30ae 1121     		movs	r1, #17
 9027 30b0 9020     		movs	r0, #144
 9028 30b2 FFF7FEFF 		bl	LCD_WriteReg
2291:hardware/src/lcd.c **** 		LCD_WriteReg(0x0092,0x0600);
 9029              		.loc 1 2291 3
 9030 30b6 4FF4C061 		mov	r1, #1536
ARM GAS  /tmp/ccRHtd69.s 			page 209


 9031 30ba 9220     		movs	r0, #146
 9032 30bc FFF7FEFF 		bl	LCD_WriteReg
2292:hardware/src/lcd.c **** 		LCD_WriteReg(0x0093,0x0402);
 9033              		.loc 1 2292 3
 9034 30c0 40F20241 		movw	r1, #1026
 9035 30c4 9320     		movs	r0, #147
 9036 30c6 FFF7FEFF 		bl	LCD_WriteReg
2293:hardware/src/lcd.c **** 		LCD_WriteReg(0x0094,0x0002);
 9037              		.loc 1 2293 3
 9038 30ca 0221     		movs	r1, #2
 9039 30cc 9420     		movs	r0, #148
 9040 30ce FFF7FEFF 		bl	LCD_WriteReg
2294:hardware/src/lcd.c **** 		delay_ms(20);
 9041              		.loc 1 2294 3
 9042 30d2 1420     		movs	r0, #20
 9043 30d4 FFF7FEFF 		bl	delay_ms
2295:hardware/src/lcd.c **** 		
2296:hardware/src/lcd.c **** 		LCD_WriteReg(0x0007,0x0001);
 9044              		.loc 1 2296 3
 9045 30d8 0121     		movs	r1, #1
 9046 30da 0720     		movs	r0, #7
 9047 30dc FFF7FEFF 		bl	LCD_WriteReg
2297:hardware/src/lcd.c **** 		delay_ms(20);
 9048              		.loc 1 2297 3
 9049 30e0 1420     		movs	r0, #20
 9050 30e2 FFF7FEFF 		bl	delay_ms
2298:hardware/src/lcd.c **** 		LCD_WriteReg(0x0007,0x0061);
 9051              		.loc 1 2298 3
 9052 30e6 6121     		movs	r1, #97
 9053 30e8 0720     		movs	r0, #7
 9054 30ea FFF7FEFF 		bl	LCD_WriteReg
2299:hardware/src/lcd.c **** 		LCD_WriteReg(0x0007,0x0173);
 9055              		.loc 1 2299 3
 9056 30ee 40F27311 		movw	r1, #371
 9057 30f2 0720     		movs	r0, #7
 9058 30f4 FFF7FEFF 		bl	LCD_WriteReg
2300:hardware/src/lcd.c **** 		
2301:hardware/src/lcd.c **** 		LCD_WriteReg(0x0020,0x0000);
 9059              		.loc 1 2301 3
 9060 30f8 0021     		movs	r1, #0
 9061 30fa 2020     		movs	r0, #32
 9062 30fc FFF7FEFF 		bl	LCD_WriteReg
2302:hardware/src/lcd.c **** 		LCD_WriteReg(0x0021,0x0000);	  
 9063              		.loc 1 2302 3
 9064 3100 0021     		movs	r1, #0
 9065 3102 2120     		movs	r0, #33
 9066 3104 FFF7FEFF 		bl	LCD_WriteReg
2303:hardware/src/lcd.c **** 		LCD_WriteReg(0x00,0x22);  
 9067              		.loc 1 2303 3
 9068 3108 2221     		movs	r1, #34
 9069 310a 0020     		movs	r0, #0
 9070 310c FFF7FEFF 		bl	LCD_WriteReg
 9071 3110 14E3     		b	.L172
 9072              	.L182:
2304:hardware/src/lcd.c **** 	}else if(lcddev.id==0xC505)
 9073              		.loc 1 2304 17
 9074 3112 6B4B     		ldr	r3, .L203
ARM GAS  /tmp/ccRHtd69.s 			page 210


 9075 3114 9B88     		ldrh	r3, [r3, #4]
 9076              		.loc 1 2304 10
 9077 3116 4CF20552 		movw	r2, #50437
 9078 311a 9342     		cmp	r3, r2
 9079 311c 40F0D280 		bne	.L183
2305:hardware/src/lcd.c **** 	{
2306:hardware/src/lcd.c **** 		LCD_WriteReg(0x0000,0x0000);
 9080              		.loc 1 2306 3
 9081 3120 0021     		movs	r1, #0
 9082 3122 0020     		movs	r0, #0
 9083 3124 FFF7FEFF 		bl	LCD_WriteReg
2307:hardware/src/lcd.c **** 		LCD_WriteReg(0x0000,0x0000);
 9084              		.loc 1 2307 3
 9085 3128 0021     		movs	r1, #0
 9086 312a 0020     		movs	r0, #0
 9087 312c FFF7FEFF 		bl	LCD_WriteReg
2308:hardware/src/lcd.c **** 		delay_ms(20);		  
 9088              		.loc 1 2308 3
 9089 3130 1420     		movs	r0, #20
 9090 3132 FFF7FEFF 		bl	delay_ms
2309:hardware/src/lcd.c **** 		LCD_WriteReg(0x0000,0x0000);
 9091              		.loc 1 2309 3
 9092 3136 0021     		movs	r1, #0
 9093 3138 0020     		movs	r0, #0
 9094 313a FFF7FEFF 		bl	LCD_WriteReg
2310:hardware/src/lcd.c **** 		LCD_WriteReg(0x0000,0x0000);
 9095              		.loc 1 2310 3
 9096 313e 0021     		movs	r1, #0
 9097 3140 0020     		movs	r0, #0
 9098 3142 FFF7FEFF 		bl	LCD_WriteReg
2311:hardware/src/lcd.c **** 		LCD_WriteReg(0x0000,0x0000);
 9099              		.loc 1 2311 3
 9100 3146 0021     		movs	r1, #0
 9101 3148 0020     		movs	r0, #0
 9102 314a FFF7FEFF 		bl	LCD_WriteReg
2312:hardware/src/lcd.c **** 		LCD_WriteReg(0x0000,0x0000);
 9103              		.loc 1 2312 3
 9104 314e 0021     		movs	r1, #0
 9105 3150 0020     		movs	r0, #0
 9106 3152 FFF7FEFF 		bl	LCD_WriteReg
2313:hardware/src/lcd.c ****  		LCD_WriteReg(0x00a4,0x0001);
 9107              		.loc 1 2313 4
 9108 3156 0121     		movs	r1, #1
 9109 3158 A420     		movs	r0, #164
 9110 315a FFF7FEFF 		bl	LCD_WriteReg
2314:hardware/src/lcd.c **** 		delay_ms(20);		  
 9111              		.loc 1 2314 3
 9112 315e 1420     		movs	r0, #20
 9113 3160 FFF7FEFF 		bl	delay_ms
2315:hardware/src/lcd.c **** 		LCD_WriteReg(0x0060,0x2700);
 9114              		.loc 1 2315 3
 9115 3164 4FF41C51 		mov	r1, #9984
 9116 3168 6020     		movs	r0, #96
 9117 316a FFF7FEFF 		bl	LCD_WriteReg
2316:hardware/src/lcd.c **** 		LCD_WriteReg(0x0008,0x0806);
 9118              		.loc 1 2316 3
 9119 316e 40F60601 		movw	r1, #2054
ARM GAS  /tmp/ccRHtd69.s 			page 211


 9120 3172 0820     		movs	r0, #8
 9121 3174 FFF7FEFF 		bl	LCD_WriteReg
2317:hardware/src/lcd.c **** 		
2318:hardware/src/lcd.c **** 		LCD_WriteReg(0x0030,0x0703);//gamma setting
 9122              		.loc 1 2318 3
 9123 3178 40F20371 		movw	r1, #1795
 9124 317c 3020     		movs	r0, #48
 9125 317e FFF7FEFF 		bl	LCD_WriteReg
2319:hardware/src/lcd.c **** 		LCD_WriteReg(0x0031,0x0001);
 9126              		.loc 1 2319 3
 9127 3182 0121     		movs	r1, #1
 9128 3184 3120     		movs	r0, #49
 9129 3186 FFF7FEFF 		bl	LCD_WriteReg
2320:hardware/src/lcd.c **** 		LCD_WriteReg(0x0032,0x0004);
 9130              		.loc 1 2320 3
 9131 318a 0421     		movs	r1, #4
 9132 318c 3220     		movs	r0, #50
 9133 318e FFF7FEFF 		bl	LCD_WriteReg
2321:hardware/src/lcd.c **** 		LCD_WriteReg(0x0033,0x0102);
 9134              		.loc 1 2321 3
 9135 3192 4FF48171 		mov	r1, #258
 9136 3196 3320     		movs	r0, #51
 9137 3198 FFF7FEFF 		bl	LCD_WriteReg
2322:hardware/src/lcd.c **** 		LCD_WriteReg(0x0034,0x0300);
 9138              		.loc 1 2322 3
 9139 319c 4FF44071 		mov	r1, #768
 9140 31a0 3420     		movs	r0, #52
 9141 31a2 FFF7FEFF 		bl	LCD_WriteReg
2323:hardware/src/lcd.c **** 		LCD_WriteReg(0x0035,0x0103);
 9142              		.loc 1 2323 3
 9143 31a6 40F20311 		movw	r1, #259
 9144 31aa 3520     		movs	r0, #53
 9145 31ac FFF7FEFF 		bl	LCD_WriteReg
2324:hardware/src/lcd.c **** 		LCD_WriteReg(0x0036,0x001F);
 9146              		.loc 1 2324 3
 9147 31b0 1F21     		movs	r1, #31
 9148 31b2 3620     		movs	r0, #54
 9149 31b4 FFF7FEFF 		bl	LCD_WriteReg
2325:hardware/src/lcd.c **** 		LCD_WriteReg(0x0037,0x0703);
 9150              		.loc 1 2325 3
 9151 31b8 40F20371 		movw	r1, #1795
 9152 31bc 3720     		movs	r0, #55
 9153 31be FFF7FEFF 		bl	LCD_WriteReg
2326:hardware/src/lcd.c **** 		LCD_WriteReg(0x0038,0x0001);
 9154              		.loc 1 2326 3
 9155 31c2 0121     		movs	r1, #1
 9156 31c4 3820     		movs	r0, #56
 9157 31c6 FFF7FEFF 		bl	LCD_WriteReg
2327:hardware/src/lcd.c **** 		LCD_WriteReg(0x0039,0x0004);
 9158              		.loc 1 2327 3
 9159 31ca 0421     		movs	r1, #4
 9160 31cc 3920     		movs	r0, #57
 9161 31ce FFF7FEFF 		bl	LCD_WriteReg
2328:hardware/src/lcd.c **** 		
2329:hardware/src/lcd.c **** 		
2330:hardware/src/lcd.c **** 		
2331:hardware/src/lcd.c **** 		LCD_WriteReg(0x0090, 0x0015);	//80Hz
ARM GAS  /tmp/ccRHtd69.s 			page 212


 9162              		.loc 1 2331 3
 9163 31d2 1521     		movs	r1, #21
 9164 31d4 9020     		movs	r0, #144
 9165 31d6 FFF7FEFF 		bl	LCD_WriteReg
2332:hardware/src/lcd.c **** 		LCD_WriteReg(0x0010, 0X0410);	//BT,AP
 9166              		.loc 1 2332 3
 9167 31da 4FF48261 		mov	r1, #1040
 9168 31de 1020     		movs	r0, #16
 9169 31e0 FFF7FEFF 		bl	LCD_WriteReg
2333:hardware/src/lcd.c **** 		LCD_WriteReg(0x0011,0x0247);	//DC1,DC0,VC
 9170              		.loc 1 2333 3
 9171 31e4 40F24721 		movw	r1, #583
 9172 31e8 1120     		movs	r0, #17
 9173 31ea FFF7FEFF 		bl	LCD_WriteReg
2334:hardware/src/lcd.c **** 		LCD_WriteReg(0x0012, 0x01BC);
 9174              		.loc 1 2334 3
 9175 31ee 4FF4DE71 		mov	r1, #444
 9176 31f2 1220     		movs	r0, #18
 9177 31f4 FFF7FEFF 		bl	LCD_WriteReg
2335:hardware/src/lcd.c **** 		LCD_WriteReg(0x0013, 0x0e00);
 9178              		.loc 1 2335 3
 9179 31f8 4FF46061 		mov	r1, #3584
 9180 31fc 1320     		movs	r0, #19
 9181 31fe FFF7FEFF 		bl	LCD_WriteReg
2336:hardware/src/lcd.c **** 		delay_ms(120);
 9182              		.loc 1 2336 3
 9183 3202 7820     		movs	r0, #120
 9184 3204 FFF7FEFF 		bl	delay_ms
2337:hardware/src/lcd.c **** 		LCD_WriteReg(0x0001, 0x0100);
 9185              		.loc 1 2337 3
 9186 3208 4FF48071 		mov	r1, #256
 9187 320c 0120     		movs	r0, #1
 9188 320e FFF7FEFF 		bl	LCD_WriteReg
2338:hardware/src/lcd.c **** 		LCD_WriteReg(0x0002, 0x0200);
 9189              		.loc 1 2338 3
 9190 3212 4FF40071 		mov	r1, #512
 9191 3216 0220     		movs	r0, #2
 9192 3218 FFF7FEFF 		bl	LCD_WriteReg
2339:hardware/src/lcd.c **** 		LCD_WriteReg(0x0003, 0x1030);
 9193              		.loc 1 2339 3
 9194 321c 41F23001 		movw	r1, #4144
 9195 3220 0320     		movs	r0, #3
 9196 3222 FFF7FEFF 		bl	LCD_WriteReg
2340:hardware/src/lcd.c **** 		
2341:hardware/src/lcd.c **** 		LCD_WriteReg(0x000A, 0x0008);
 9197              		.loc 1 2341 3
 9198 3226 0821     		movs	r1, #8
 9199 3228 0A20     		movs	r0, #10
 9200 322a FFF7FEFF 		bl	LCD_WriteReg
2342:hardware/src/lcd.c **** 		LCD_WriteReg(0x000C, 0x0000);
 9201              		.loc 1 2342 3
 9202 322e 0021     		movs	r1, #0
 9203 3230 0C20     		movs	r0, #12
 9204 3232 FFF7FEFF 		bl	LCD_WriteReg
2343:hardware/src/lcd.c **** 		
2344:hardware/src/lcd.c **** 		LCD_WriteReg(0x000E, 0x0020);
 9205              		.loc 1 2344 3
ARM GAS  /tmp/ccRHtd69.s 			page 213


 9206 3236 2021     		movs	r1, #32
 9207 3238 0E20     		movs	r0, #14
 9208 323a FFF7FEFF 		bl	LCD_WriteReg
2345:hardware/src/lcd.c **** 		LCD_WriteReg(0x000F, 0x0000);
 9209              		.loc 1 2345 3
 9210 323e 0021     		movs	r1, #0
 9211 3240 0F20     		movs	r0, #15
 9212 3242 FFF7FEFF 		bl	LCD_WriteReg
2346:hardware/src/lcd.c **** 		LCD_WriteReg(0x0020, 0x0000);	//H Start
 9213              		.loc 1 2346 3
 9214 3246 0021     		movs	r1, #0
 9215 3248 2020     		movs	r0, #32
 9216 324a FFF7FEFF 		bl	LCD_WriteReg
2347:hardware/src/lcd.c **** 		LCD_WriteReg(0x0021, 0x0000);	//V Start
 9217              		.loc 1 2347 3
 9218 324e 0021     		movs	r1, #0
 9219 3250 2120     		movs	r0, #33
 9220 3252 FFF7FEFF 		bl	LCD_WriteReg
2348:hardware/src/lcd.c **** 		LCD_WriteReg(0x002A,0x003D);	//vcom2
 9221              		.loc 1 2348 3
 9222 3256 3D21     		movs	r1, #61
 9223 3258 2A20     		movs	r0, #42
 9224 325a FFF7FEFF 		bl	LCD_WriteReg
2349:hardware/src/lcd.c **** 		delay_ms(20);
 9225              		.loc 1 2349 3
 9226 325e 1420     		movs	r0, #20
 9227 3260 FFF7FEFF 		bl	delay_ms
2350:hardware/src/lcd.c **** 		LCD_WriteReg(0x0029, 0x002d);
 9228              		.loc 1 2350 3
 9229 3264 2D21     		movs	r1, #45
 9230 3266 2920     		movs	r0, #41
 9231 3268 FFF7FEFF 		bl	LCD_WriteReg
2351:hardware/src/lcd.c **** 		LCD_WriteReg(0x0050, 0x0000);
 9232              		.loc 1 2351 3
 9233 326c 0021     		movs	r1, #0
 9234 326e 5020     		movs	r0, #80
 9235 3270 FFF7FEFF 		bl	LCD_WriteReg
2352:hardware/src/lcd.c **** 		LCD_WriteReg(0x0051, 0xD0EF);
 9236              		.loc 1 2352 3
 9237 3274 4DF2EF01 		movw	r1, #53487
 9238 3278 5120     		movs	r0, #81
 9239 327a FFF7FEFF 		bl	LCD_WriteReg
2353:hardware/src/lcd.c **** 		LCD_WriteReg(0x0052, 0x0000);
 9240              		.loc 1 2353 3
 9241 327e 0021     		movs	r1, #0
 9242 3280 5220     		movs	r0, #82
 9243 3282 FFF7FEFF 		bl	LCD_WriteReg
2354:hardware/src/lcd.c **** 		LCD_WriteReg(0x0053, 0x013F);
 9244              		.loc 1 2354 3
 9245 3286 40F23F11 		movw	r1, #319
 9246 328a 5320     		movs	r0, #83
 9247 328c FFF7FEFF 		bl	LCD_WriteReg
2355:hardware/src/lcd.c **** 		LCD_WriteReg(0x0061, 0x0000);
 9248              		.loc 1 2355 3
 9249 3290 0021     		movs	r1, #0
 9250 3292 6120     		movs	r0, #97
 9251 3294 FFF7FEFF 		bl	LCD_WriteReg
ARM GAS  /tmp/ccRHtd69.s 			page 214


2356:hardware/src/lcd.c **** 		LCD_WriteReg(0x006A, 0x0000);
 9252              		.loc 1 2356 3
 9253 3298 0021     		movs	r1, #0
 9254 329a 6A20     		movs	r0, #106
 9255 329c FFF7FEFF 		bl	LCD_WriteReg
2357:hardware/src/lcd.c **** 		LCD_WriteReg(0x0092,0x0300); 
 9256              		.loc 1 2357 3
 9257 32a0 4FF44071 		mov	r1, #768
 9258 32a4 9220     		movs	r0, #146
 9259 32a6 FFF7FEFF 		bl	LCD_WriteReg
2358:hardware/src/lcd.c ****  
2359:hardware/src/lcd.c ****  		LCD_WriteReg(0x0093, 0x0005);
 9260              		.loc 1 2359 4
 9261 32aa 0521     		movs	r1, #5
 9262 32ac 9320     		movs	r0, #147
 9263 32ae FFF7FEFF 		bl	LCD_WriteReg
2360:hardware/src/lcd.c **** 		LCD_WriteReg(0x0007, 0x0100);
 9264              		.loc 1 2360 3
 9265 32b2 4FF48071 		mov	r1, #256
 9266 32b6 0720     		movs	r0, #7
 9267 32b8 FFF7FEFF 		bl	LCD_WriteReg
 9268 32bc 3EE2     		b	.L172
 9269              	.L204:
 9270 32be 00BF     		.align	2
 9271              	.L203:
 9272 32c0 00000000 		.word	lcddev
 9273              	.L183:
2361:hardware/src/lcd.c **** 	}else if(lcddev.id==0x8989)//OK |/|/|
 9274              		.loc 1 2361 17
 9275 32c4 C14B     		ldr	r3, .L205
 9276 32c6 9B88     		ldrh	r3, [r3, #4]
 9277              		.loc 1 2361 10
 9278 32c8 48F68912 		movw	r2, #35209
 9279 32cc 9342     		cmp	r3, r2
 9280 32ce 40F0BB80 		bne	.L184
2362:hardware/src/lcd.c **** 	{	   
2363:hardware/src/lcd.c **** 		LCD_WriteReg(0x0000,0x0001);//打开晶振
 9281              		.loc 1 2363 3
 9282 32d2 0121     		movs	r1, #1
 9283 32d4 0020     		movs	r0, #0
 9284 32d6 FFF7FEFF 		bl	LCD_WriteReg
2364:hardware/src/lcd.c ****     	LCD_WriteReg(0x0003,0xA8A4);//0xA8A4
 9285              		.loc 1 2364 6
 9286 32da 4AF6A401 		movw	r1, #43172
 9287 32de 0320     		movs	r0, #3
 9288 32e0 FFF7FEFF 		bl	LCD_WriteReg
2365:hardware/src/lcd.c ****     	LCD_WriteReg(0x000C,0x0000);    
 9289              		.loc 1 2365 6
 9290 32e4 0021     		movs	r1, #0
 9291 32e6 0C20     		movs	r0, #12
 9292 32e8 FFF7FEFF 		bl	LCD_WriteReg
2366:hardware/src/lcd.c ****     	LCD_WriteReg(0x000D,0x080C);   
 9293              		.loc 1 2366 6
 9294 32ec 40F60C01 		movw	r1, #2060
 9295 32f0 0D20     		movs	r0, #13
 9296 32f2 FFF7FEFF 		bl	LCD_WriteReg
2367:hardware/src/lcd.c ****     	LCD_WriteReg(0x000E,0x2B00);    
ARM GAS  /tmp/ccRHtd69.s 			page 215


 9297              		.loc 1 2367 6
 9298 32f6 4FF42C51 		mov	r1, #11008
 9299 32fa 0E20     		movs	r0, #14
 9300 32fc FFF7FEFF 		bl	LCD_WriteReg
2368:hardware/src/lcd.c ****     	LCD_WriteReg(0x001E,0x00B0);    
 9301              		.loc 1 2368 6
 9302 3300 B021     		movs	r1, #176
 9303 3302 1E20     		movs	r0, #30
 9304 3304 FFF7FEFF 		bl	LCD_WriteReg
2369:hardware/src/lcd.c ****     	LCD_WriteReg(0x0001,0x2B3F);//驱动输出控制320*240  0x6B3F
 9305              		.loc 1 2369 6
 9306 3308 42F63F31 		movw	r1, #11071
 9307 330c 0120     		movs	r0, #1
 9308 330e FFF7FEFF 		bl	LCD_WriteReg
2370:hardware/src/lcd.c ****     	LCD_WriteReg(0x0002,0x0600);
 9309              		.loc 1 2370 6
 9310 3312 4FF4C061 		mov	r1, #1536
 9311 3316 0220     		movs	r0, #2
 9312 3318 FFF7FEFF 		bl	LCD_WriteReg
2371:hardware/src/lcd.c ****     	LCD_WriteReg(0x0010,0x0000);  
 9313              		.loc 1 2371 6
 9314 331c 0021     		movs	r1, #0
 9315 331e 1020     		movs	r0, #16
 9316 3320 FFF7FEFF 		bl	LCD_WriteReg
2372:hardware/src/lcd.c ****     	LCD_WriteReg(0x0011,0x6078); //定义数据格式  16位色 		横屏 0x6058
 9317              		.loc 1 2372 6
 9318 3324 46F27801 		movw	r1, #24696
 9319 3328 1120     		movs	r0, #17
 9320 332a FFF7FEFF 		bl	LCD_WriteReg
2373:hardware/src/lcd.c ****     	LCD_WriteReg(0x0005,0x0000);  
 9321              		.loc 1 2373 6
 9322 332e 0021     		movs	r1, #0
 9323 3330 0520     		movs	r0, #5
 9324 3332 FFF7FEFF 		bl	LCD_WriteReg
2374:hardware/src/lcd.c ****     	LCD_WriteReg(0x0006,0x0000);  
 9325              		.loc 1 2374 6
 9326 3336 0021     		movs	r1, #0
 9327 3338 0620     		movs	r0, #6
 9328 333a FFF7FEFF 		bl	LCD_WriteReg
2375:hardware/src/lcd.c ****     	LCD_WriteReg(0x0016,0xEF1C);  
 9329              		.loc 1 2375 6
 9330 333e 4EF61C71 		movw	r1, #61212
 9331 3342 1620     		movs	r0, #22
 9332 3344 FFF7FEFF 		bl	LCD_WriteReg
2376:hardware/src/lcd.c ****     	LCD_WriteReg(0x0017,0x0003);  
 9333              		.loc 1 2376 6
 9334 3348 0321     		movs	r1, #3
 9335 334a 1720     		movs	r0, #23
 9336 334c FFF7FEFF 		bl	LCD_WriteReg
2377:hardware/src/lcd.c ****     	LCD_WriteReg(0x0007,0x0233); //0x0233       
 9337              		.loc 1 2377 6
 9338 3350 40F23321 		movw	r1, #563
 9339 3354 0720     		movs	r0, #7
 9340 3356 FFF7FEFF 		bl	LCD_WriteReg
2378:hardware/src/lcd.c ****     	LCD_WriteReg(0x000B,0x0000);  
 9341              		.loc 1 2378 6
 9342 335a 0021     		movs	r1, #0
ARM GAS  /tmp/ccRHtd69.s 			page 216


 9343 335c 0B20     		movs	r0, #11
 9344 335e FFF7FEFF 		bl	LCD_WriteReg
2379:hardware/src/lcd.c ****     	LCD_WriteReg(0x000F,0x0000); //扫描开始地址
 9345              		.loc 1 2379 6
 9346 3362 0021     		movs	r1, #0
 9347 3364 0F20     		movs	r0, #15
 9348 3366 FFF7FEFF 		bl	LCD_WriteReg
2380:hardware/src/lcd.c ****     	LCD_WriteReg(0x0041,0x0000);  
 9349              		.loc 1 2380 6
 9350 336a 0021     		movs	r1, #0
 9351 336c 4120     		movs	r0, #65
 9352 336e FFF7FEFF 		bl	LCD_WriteReg
2381:hardware/src/lcd.c ****     	LCD_WriteReg(0x0042,0x0000);  
 9353              		.loc 1 2381 6
 9354 3372 0021     		movs	r1, #0
 9355 3374 4220     		movs	r0, #66
 9356 3376 FFF7FEFF 		bl	LCD_WriteReg
2382:hardware/src/lcd.c ****     	LCD_WriteReg(0x0048,0x0000);  
 9357              		.loc 1 2382 6
 9358 337a 0021     		movs	r1, #0
 9359 337c 4820     		movs	r0, #72
 9360 337e FFF7FEFF 		bl	LCD_WriteReg
2383:hardware/src/lcd.c ****     	LCD_WriteReg(0x0049,0x013F);  
 9361              		.loc 1 2383 6
 9362 3382 40F23F11 		movw	r1, #319
 9363 3386 4920     		movs	r0, #73
 9364 3388 FFF7FEFF 		bl	LCD_WriteReg
2384:hardware/src/lcd.c ****     	LCD_WriteReg(0x004A,0x0000);  
 9365              		.loc 1 2384 6
 9366 338c 0021     		movs	r1, #0
 9367 338e 4A20     		movs	r0, #74
 9368 3390 FFF7FEFF 		bl	LCD_WriteReg
2385:hardware/src/lcd.c ****     	LCD_WriteReg(0x004B,0x0000);  
 9369              		.loc 1 2385 6
 9370 3394 0021     		movs	r1, #0
 9371 3396 4B20     		movs	r0, #75
 9372 3398 FFF7FEFF 		bl	LCD_WriteReg
2386:hardware/src/lcd.c ****     	LCD_WriteReg(0x0044,0xEF00);  
 9373              		.loc 1 2386 6
 9374 339c 4FF46F41 		mov	r1, #61184
 9375 33a0 4420     		movs	r0, #68
 9376 33a2 FFF7FEFF 		bl	LCD_WriteReg
2387:hardware/src/lcd.c ****     	LCD_WriteReg(0x0045,0x0000);  
 9377              		.loc 1 2387 6
 9378 33a6 0021     		movs	r1, #0
 9379 33a8 4520     		movs	r0, #69
 9380 33aa FFF7FEFF 		bl	LCD_WriteReg
2388:hardware/src/lcd.c ****     	LCD_WriteReg(0x0046,0x013F);  
 9381              		.loc 1 2388 6
 9382 33ae 40F23F11 		movw	r1, #319
 9383 33b2 4620     		movs	r0, #70
 9384 33b4 FFF7FEFF 		bl	LCD_WriteReg
2389:hardware/src/lcd.c ****     	LCD_WriteReg(0x0030,0x0707);  
 9385              		.loc 1 2389 6
 9386 33b8 40F20771 		movw	r1, #1799
 9387 33bc 3020     		movs	r0, #48
 9388 33be FFF7FEFF 		bl	LCD_WriteReg
ARM GAS  /tmp/ccRHtd69.s 			page 217


2390:hardware/src/lcd.c ****     	LCD_WriteReg(0x0031,0x0204);  
 9389              		.loc 1 2390 6
 9390 33c2 4FF40171 		mov	r1, #516
 9391 33c6 3120     		movs	r0, #49
 9392 33c8 FFF7FEFF 		bl	LCD_WriteReg
2391:hardware/src/lcd.c ****     	LCD_WriteReg(0x0032,0x0204);  
 9393              		.loc 1 2391 6
 9394 33cc 4FF40171 		mov	r1, #516
 9395 33d0 3220     		movs	r0, #50
 9396 33d2 FFF7FEFF 		bl	LCD_WriteReg
2392:hardware/src/lcd.c ****     	LCD_WriteReg(0x0033,0x0502);  
 9397              		.loc 1 2392 6
 9398 33d6 40F20251 		movw	r1, #1282
 9399 33da 3320     		movs	r0, #51
 9400 33dc FFF7FEFF 		bl	LCD_WriteReg
2393:hardware/src/lcd.c ****     	LCD_WriteReg(0x0034,0x0507);  
 9401              		.loc 1 2393 6
 9402 33e0 40F20751 		movw	r1, #1287
 9403 33e4 3420     		movs	r0, #52
 9404 33e6 FFF7FEFF 		bl	LCD_WriteReg
2394:hardware/src/lcd.c ****     	LCD_WriteReg(0x0035,0x0204);  
 9405              		.loc 1 2394 6
 9406 33ea 4FF40171 		mov	r1, #516
 9407 33ee 3520     		movs	r0, #53
 9408 33f0 FFF7FEFF 		bl	LCD_WriteReg
2395:hardware/src/lcd.c ****     	LCD_WriteReg(0x0036,0x0204);  
 9409              		.loc 1 2395 6
 9410 33f4 4FF40171 		mov	r1, #516
 9411 33f8 3620     		movs	r0, #54
 9412 33fa FFF7FEFF 		bl	LCD_WriteReg
2396:hardware/src/lcd.c ****     	LCD_WriteReg(0x0037,0x0502);  
 9413              		.loc 1 2396 6
 9414 33fe 40F20251 		movw	r1, #1282
 9415 3402 3720     		movs	r0, #55
 9416 3404 FFF7FEFF 		bl	LCD_WriteReg
2397:hardware/src/lcd.c ****     	LCD_WriteReg(0x003A,0x0302);  
 9417              		.loc 1 2397 6
 9418 3408 40F20231 		movw	r1, #770
 9419 340c 3A20     		movs	r0, #58
 9420 340e FFF7FEFF 		bl	LCD_WriteReg
2398:hardware/src/lcd.c ****     	LCD_WriteReg(0x003B,0x0302);  
 9421              		.loc 1 2398 6
 9422 3412 40F20231 		movw	r1, #770
 9423 3416 3B20     		movs	r0, #59
 9424 3418 FFF7FEFF 		bl	LCD_WriteReg
2399:hardware/src/lcd.c ****     	LCD_WriteReg(0x0023,0x0000);  
 9425              		.loc 1 2399 6
 9426 341c 0021     		movs	r1, #0
 9427 341e 2320     		movs	r0, #35
 9428 3420 FFF7FEFF 		bl	LCD_WriteReg
2400:hardware/src/lcd.c ****     	LCD_WriteReg(0x0024,0x0000);  
 9429              		.loc 1 2400 6
 9430 3424 0021     		movs	r1, #0
 9431 3426 2420     		movs	r0, #36
 9432 3428 FFF7FEFF 		bl	LCD_WriteReg
2401:hardware/src/lcd.c ****     	LCD_WriteReg(0x0025,0x8000);  
 9433              		.loc 1 2401 6
ARM GAS  /tmp/ccRHtd69.s 			page 218


 9434 342c 4FF40041 		mov	r1, #32768
 9435 3430 2520     		movs	r0, #37
 9436 3432 FFF7FEFF 		bl	LCD_WriteReg
2402:hardware/src/lcd.c ****     	LCD_WriteReg(0x004f,0);        //行首址0
 9437              		.loc 1 2402 6
 9438 3436 0021     		movs	r1, #0
 9439 3438 4F20     		movs	r0, #79
 9440 343a FFF7FEFF 		bl	LCD_WriteReg
2403:hardware/src/lcd.c ****     	LCD_WriteReg(0x004e,0);        //列首址0
 9441              		.loc 1 2403 6
 9442 343e 0021     		movs	r1, #0
 9443 3440 4E20     		movs	r0, #78
 9444 3442 FFF7FEFF 		bl	LCD_WriteReg
 9445 3446 79E1     		b	.L172
 9446              	.L184:
2404:hardware/src/lcd.c **** 	}else if(lcddev.id==0x4531)//OK |/|/|
 9447              		.loc 1 2404 17
 9448 3448 604B     		ldr	r3, .L205
 9449 344a 9B88     		ldrh	r3, [r3, #4]
 9450              		.loc 1 2404 10
 9451 344c 44F23152 		movw	r2, #17713
 9452 3450 9342     		cmp	r3, r2
 9453 3452 40F0BD80 		bne	.L185
2405:hardware/src/lcd.c **** 	{
2406:hardware/src/lcd.c **** 		LCD_WriteReg(0X00,0X0001);   
 9454              		.loc 1 2406 3
 9455 3456 0121     		movs	r1, #1
 9456 3458 0020     		movs	r0, #0
 9457 345a FFF7FEFF 		bl	LCD_WriteReg
2407:hardware/src/lcd.c **** 		delay_ms(10);   
 9458              		.loc 1 2407 3
 9459 345e 0A20     		movs	r0, #10
 9460 3460 FFF7FEFF 		bl	delay_ms
2408:hardware/src/lcd.c **** 		LCD_WriteReg(0X10,0X1628);   
 9461              		.loc 1 2408 3
 9462 3464 41F22861 		movw	r1, #5672
 9463 3468 1020     		movs	r0, #16
 9464 346a FFF7FEFF 		bl	LCD_WriteReg
2409:hardware/src/lcd.c **** 		LCD_WriteReg(0X12,0X000e);//0x0006    
 9465              		.loc 1 2409 3
 9466 346e 0E21     		movs	r1, #14
 9467 3470 1220     		movs	r0, #18
 9468 3472 FFF7FEFF 		bl	LCD_WriteReg
2410:hardware/src/lcd.c **** 		LCD_WriteReg(0X13,0X0A39);   
 9469              		.loc 1 2410 3
 9470 3476 40F63921 		movw	r1, #2617
 9471 347a 1320     		movs	r0, #19
 9472 347c FFF7FEFF 		bl	LCD_WriteReg
2411:hardware/src/lcd.c **** 		delay_ms(10);   
 9473              		.loc 1 2411 3
 9474 3480 0A20     		movs	r0, #10
 9475 3482 FFF7FEFF 		bl	delay_ms
2412:hardware/src/lcd.c **** 		LCD_WriteReg(0X11,0X0040);   
 9476              		.loc 1 2412 3
 9477 3486 4021     		movs	r1, #64
 9478 3488 1120     		movs	r0, #17
 9479 348a FFF7FEFF 		bl	LCD_WriteReg
ARM GAS  /tmp/ccRHtd69.s 			page 219


2413:hardware/src/lcd.c **** 		LCD_WriteReg(0X15,0X0050);   
 9480              		.loc 1 2413 3
 9481 348e 5021     		movs	r1, #80
 9482 3490 1520     		movs	r0, #21
 9483 3492 FFF7FEFF 		bl	LCD_WriteReg
2414:hardware/src/lcd.c **** 		delay_ms(10);   
 9484              		.loc 1 2414 3
 9485 3496 0A20     		movs	r0, #10
 9486 3498 FFF7FEFF 		bl	delay_ms
2415:hardware/src/lcd.c **** 		LCD_WriteReg(0X12,0X001e);//16    
 9487              		.loc 1 2415 3
 9488 349c 1E21     		movs	r1, #30
 9489 349e 1220     		movs	r0, #18
 9490 34a0 FFF7FEFF 		bl	LCD_WriteReg
2416:hardware/src/lcd.c **** 		delay_ms(10);   
 9491              		.loc 1 2416 3
 9492 34a4 0A20     		movs	r0, #10
 9493 34a6 FFF7FEFF 		bl	delay_ms
2417:hardware/src/lcd.c **** 		LCD_WriteReg(0X10,0X1620);   
 9494              		.loc 1 2417 3
 9495 34aa 4FF4B151 		mov	r1, #5664
 9496 34ae 1020     		movs	r0, #16
 9497 34b0 FFF7FEFF 		bl	LCD_WriteReg
2418:hardware/src/lcd.c **** 		LCD_WriteReg(0X13,0X2A39);   
 9498              		.loc 1 2418 3
 9499 34b4 42F63921 		movw	r1, #10809
 9500 34b8 1320     		movs	r0, #19
 9501 34ba FFF7FEFF 		bl	LCD_WriteReg
2419:hardware/src/lcd.c **** 		delay_ms(10);   
 9502              		.loc 1 2419 3
 9503 34be 0A20     		movs	r0, #10
 9504 34c0 FFF7FEFF 		bl	delay_ms
2420:hardware/src/lcd.c **** 		LCD_WriteReg(0X01,0X0100);   
 9505              		.loc 1 2420 3
 9506 34c4 4FF48071 		mov	r1, #256
 9507 34c8 0120     		movs	r0, #1
 9508 34ca FFF7FEFF 		bl	LCD_WriteReg
2421:hardware/src/lcd.c **** 		LCD_WriteReg(0X02,0X0300);   
 9509              		.loc 1 2421 3
 9510 34ce 4FF44071 		mov	r1, #768
 9511 34d2 0220     		movs	r0, #2
 9512 34d4 FFF7FEFF 		bl	LCD_WriteReg
2422:hardware/src/lcd.c **** 		LCD_WriteReg(0X03,0X1038);//改变方向的   
 9513              		.loc 1 2422 3
 9514 34d8 41F23801 		movw	r1, #4152
 9515 34dc 0320     		movs	r0, #3
 9516 34de FFF7FEFF 		bl	LCD_WriteReg
2423:hardware/src/lcd.c **** 		LCD_WriteReg(0X08,0X0202);   
 9517              		.loc 1 2423 3
 9518 34e2 40F20221 		movw	r1, #514
 9519 34e6 0820     		movs	r0, #8
 9520 34e8 FFF7FEFF 		bl	LCD_WriteReg
2424:hardware/src/lcd.c **** 		LCD_WriteReg(0X0A,0X0008);   
 9521              		.loc 1 2424 3
 9522 34ec 0821     		movs	r1, #8
 9523 34ee 0A20     		movs	r0, #10
 9524 34f0 FFF7FEFF 		bl	LCD_WriteReg
ARM GAS  /tmp/ccRHtd69.s 			page 220


2425:hardware/src/lcd.c **** 		LCD_WriteReg(0X30,0X0000);   
 9525              		.loc 1 2425 3
 9526 34f4 0021     		movs	r1, #0
 9527 34f6 3020     		movs	r0, #48
 9528 34f8 FFF7FEFF 		bl	LCD_WriteReg
2426:hardware/src/lcd.c **** 		LCD_WriteReg(0X31,0X0402);   
 9529              		.loc 1 2426 3
 9530 34fc 40F20241 		movw	r1, #1026
 9531 3500 3120     		movs	r0, #49
 9532 3502 FFF7FEFF 		bl	LCD_WriteReg
2427:hardware/src/lcd.c **** 		LCD_WriteReg(0X32,0X0106);   
 9533              		.loc 1 2427 3
 9534 3506 4FF48371 		mov	r1, #262
 9535 350a 3220     		movs	r0, #50
 9536 350c FFF7FEFF 		bl	LCD_WriteReg
2428:hardware/src/lcd.c **** 		LCD_WriteReg(0X33,0X0503);   
 9537              		.loc 1 2428 3
 9538 3510 40F20351 		movw	r1, #1283
 9539 3514 3320     		movs	r0, #51
 9540 3516 FFF7FEFF 		bl	LCD_WriteReg
2429:hardware/src/lcd.c **** 		LCD_WriteReg(0X34,0X0104);   
 9541              		.loc 1 2429 3
 9542 351a 4FF48271 		mov	r1, #260
 9543 351e 3420     		movs	r0, #52
 9544 3520 FFF7FEFF 		bl	LCD_WriteReg
2430:hardware/src/lcd.c **** 		LCD_WriteReg(0X35,0X0301);   
 9545              		.loc 1 2430 3
 9546 3524 40F20131 		movw	r1, #769
 9547 3528 3520     		movs	r0, #53
 9548 352a FFF7FEFF 		bl	LCD_WriteReg
2431:hardware/src/lcd.c **** 		LCD_WriteReg(0X36,0X0707);   
 9549              		.loc 1 2431 3
 9550 352e 40F20771 		movw	r1, #1799
 9551 3532 3620     		movs	r0, #54
 9552 3534 FFF7FEFF 		bl	LCD_WriteReg
2432:hardware/src/lcd.c **** 		LCD_WriteReg(0X37,0X0305);   
 9553              		.loc 1 2432 3
 9554 3538 40F20531 		movw	r1, #773
 9555 353c 3720     		movs	r0, #55
 9556 353e FFF7FEFF 		bl	LCD_WriteReg
2433:hardware/src/lcd.c **** 		LCD_WriteReg(0X38,0X0208);   
 9557              		.loc 1 2433 3
 9558 3542 4FF40271 		mov	r1, #520
 9559 3546 3820     		movs	r0, #56
 9560 3548 FFF7FEFF 		bl	LCD_WriteReg
2434:hardware/src/lcd.c **** 		LCD_WriteReg(0X39,0X0F0B);   
 9561              		.loc 1 2434 3
 9562 354c 40F60B71 		movw	r1, #3851
 9563 3550 3920     		movs	r0, #57
 9564 3552 FFF7FEFF 		bl	LCD_WriteReg
2435:hardware/src/lcd.c **** 		LCD_WriteReg(0X41,0X0002);   
 9565              		.loc 1 2435 3
 9566 3556 0221     		movs	r1, #2
 9567 3558 4120     		movs	r0, #65
 9568 355a FFF7FEFF 		bl	LCD_WriteReg
2436:hardware/src/lcd.c **** 		LCD_WriteReg(0X60,0X2700);   
 9569              		.loc 1 2436 3
ARM GAS  /tmp/ccRHtd69.s 			page 221


 9570 355e 4FF41C51 		mov	r1, #9984
 9571 3562 6020     		movs	r0, #96
 9572 3564 FFF7FEFF 		bl	LCD_WriteReg
2437:hardware/src/lcd.c **** 		LCD_WriteReg(0X61,0X0001);   
 9573              		.loc 1 2437 3
 9574 3568 0121     		movs	r1, #1
 9575 356a 6120     		movs	r0, #97
 9576 356c FFF7FEFF 		bl	LCD_WriteReg
2438:hardware/src/lcd.c **** 		LCD_WriteReg(0X90,0X0210);   
 9577              		.loc 1 2438 3
 9578 3570 4FF40471 		mov	r1, #528
 9579 3574 9020     		movs	r0, #144
 9580 3576 FFF7FEFF 		bl	LCD_WriteReg
2439:hardware/src/lcd.c **** 		LCD_WriteReg(0X92,0X010A);   
 9581              		.loc 1 2439 3
 9582 357a 4FF48571 		mov	r1, #266
 9583 357e 9220     		movs	r0, #146
 9584 3580 FFF7FEFF 		bl	LCD_WriteReg
2440:hardware/src/lcd.c **** 		LCD_WriteReg(0X93,0X0004);   
 9585              		.loc 1 2440 3
 9586 3584 0421     		movs	r1, #4
 9587 3586 9320     		movs	r0, #147
 9588 3588 FFF7FEFF 		bl	LCD_WriteReg
2441:hardware/src/lcd.c **** 		LCD_WriteReg(0XA0,0X0100);   
 9589              		.loc 1 2441 3
 9590 358c 4FF48071 		mov	r1, #256
 9591 3590 A020     		movs	r0, #160
 9592 3592 FFF7FEFF 		bl	LCD_WriteReg
2442:hardware/src/lcd.c **** 		LCD_WriteReg(0X07,0X0001);   
 9593              		.loc 1 2442 3
 9594 3596 0121     		movs	r1, #1
 9595 3598 0720     		movs	r0, #7
 9596 359a FFF7FEFF 		bl	LCD_WriteReg
2443:hardware/src/lcd.c **** 		LCD_WriteReg(0X07,0X0021);   
 9597              		.loc 1 2443 3
 9598 359e 2121     		movs	r1, #33
 9599 35a0 0720     		movs	r0, #7
 9600 35a2 FFF7FEFF 		bl	LCD_WriteReg
2444:hardware/src/lcd.c **** 		LCD_WriteReg(0X07,0X0023);   
 9601              		.loc 1 2444 3
 9602 35a6 2321     		movs	r1, #35
 9603 35a8 0720     		movs	r0, #7
 9604 35aa FFF7FEFF 		bl	LCD_WriteReg
2445:hardware/src/lcd.c **** 		LCD_WriteReg(0X07,0X0033);   
 9605              		.loc 1 2445 3
 9606 35ae 3321     		movs	r1, #51
 9607 35b0 0720     		movs	r0, #7
 9608 35b2 FFF7FEFF 		bl	LCD_WriteReg
2446:hardware/src/lcd.c **** 		LCD_WriteReg(0X07,0X0133);   
 9609              		.loc 1 2446 3
 9610 35b6 40F23311 		movw	r1, #307
 9611 35ba 0720     		movs	r0, #7
 9612 35bc FFF7FEFF 		bl	LCD_WriteReg
2447:hardware/src/lcd.c **** 		LCD_WriteReg(0XA0,0X0000); 
 9613              		.loc 1 2447 3
 9614 35c0 0021     		movs	r1, #0
 9615 35c2 A020     		movs	r0, #160
ARM GAS  /tmp/ccRHtd69.s 			page 222


 9616 35c4 FFF7FEFF 		bl	LCD_WriteReg
 9617 35c8 B8E0     		b	.L172
 9618              	.L206:
 9619 35ca 00BF     		.align	2
 9620              	.L205:
 9621 35cc 00000000 		.word	lcddev
 9622              	.L185:
2448:hardware/src/lcd.c **** 	}else if(lcddev.id==0x4535)
 9623              		.loc 1 2448 17
 9624 35d0 614B     		ldr	r3, .L207
 9625 35d2 9B88     		ldrh	r3, [r3, #4]
 9626              		.loc 1 2448 10
 9627 35d4 44F23552 		movw	r2, #17717
 9628 35d8 9342     		cmp	r3, r2
 9629 35da 40F0AF80 		bne	.L172
2449:hardware/src/lcd.c **** 	{			      
2450:hardware/src/lcd.c **** 		LCD_WriteReg(0X15,0X0030);   
 9630              		.loc 1 2450 3
 9631 35de 3021     		movs	r1, #48
 9632 35e0 1520     		movs	r0, #21
 9633 35e2 FFF7FEFF 		bl	LCD_WriteReg
2451:hardware/src/lcd.c **** 		LCD_WriteReg(0X9A,0X0010);   
 9634              		.loc 1 2451 3
 9635 35e6 1021     		movs	r1, #16
 9636 35e8 9A20     		movs	r0, #154
 9637 35ea FFF7FEFF 		bl	LCD_WriteReg
2452:hardware/src/lcd.c ****  		LCD_WriteReg(0X11,0X0020);   
 9638              		.loc 1 2452 4
 9639 35ee 2021     		movs	r1, #32
 9640 35f0 1120     		movs	r0, #17
 9641 35f2 FFF7FEFF 		bl	LCD_WriteReg
2453:hardware/src/lcd.c ****  		LCD_WriteReg(0X10,0X3428);   
 9642              		.loc 1 2453 4
 9643 35f6 43F22841 		movw	r1, #13352
 9644 35fa 1020     		movs	r0, #16
 9645 35fc FFF7FEFF 		bl	LCD_WriteReg
2454:hardware/src/lcd.c **** 		LCD_WriteReg(0X12,0X0002);//16    
 9646              		.loc 1 2454 3
 9647 3600 0221     		movs	r1, #2
 9648 3602 1220     		movs	r0, #18
 9649 3604 FFF7FEFF 		bl	LCD_WriteReg
2455:hardware/src/lcd.c ****  		LCD_WriteReg(0X13,0X1038);   
 9650              		.loc 1 2455 4
 9651 3608 41F23801 		movw	r1, #4152
 9652 360c 1320     		movs	r0, #19
 9653 360e FFF7FEFF 		bl	LCD_WriteReg
2456:hardware/src/lcd.c **** 		delay_ms(40);   
 9654              		.loc 1 2456 3
 9655 3612 2820     		movs	r0, #40
 9656 3614 FFF7FEFF 		bl	delay_ms
2457:hardware/src/lcd.c **** 		LCD_WriteReg(0X12,0X0012);//16    
 9657              		.loc 1 2457 3
 9658 3618 1221     		movs	r1, #18
 9659 361a 1220     		movs	r0, #18
 9660 361c FFF7FEFF 		bl	LCD_WriteReg
2458:hardware/src/lcd.c **** 		delay_ms(40);   
 9661              		.loc 1 2458 3
ARM GAS  /tmp/ccRHtd69.s 			page 223


 9662 3620 2820     		movs	r0, #40
 9663 3622 FFF7FEFF 		bl	delay_ms
2459:hardware/src/lcd.c ****   		LCD_WriteReg(0X10,0X3420);   
 9664              		.loc 1 2459 5
 9665 3626 43F22041 		movw	r1, #13344
 9666 362a 1020     		movs	r0, #16
 9667 362c FFF7FEFF 		bl	LCD_WriteReg
2460:hardware/src/lcd.c ****  		LCD_WriteReg(0X13,0X3038);   
 9668              		.loc 1 2460 4
 9669 3630 43F23801 		movw	r1, #12344
 9670 3634 1320     		movs	r0, #19
 9671 3636 FFF7FEFF 		bl	LCD_WriteReg
2461:hardware/src/lcd.c **** 		delay_ms(70);   
 9672              		.loc 1 2461 3
 9673 363a 4620     		movs	r0, #70
 9674 363c FFF7FEFF 		bl	delay_ms
2462:hardware/src/lcd.c **** 		LCD_WriteReg(0X30,0X0000);   
 9675              		.loc 1 2462 3
 9676 3640 0021     		movs	r1, #0
 9677 3642 3020     		movs	r0, #48
 9678 3644 FFF7FEFF 		bl	LCD_WriteReg
2463:hardware/src/lcd.c **** 		LCD_WriteReg(0X31,0X0402);   
 9679              		.loc 1 2463 3
 9680 3648 40F20241 		movw	r1, #1026
 9681 364c 3120     		movs	r0, #49
 9682 364e FFF7FEFF 		bl	LCD_WriteReg
2464:hardware/src/lcd.c **** 		LCD_WriteReg(0X32,0X0307);   
 9683              		.loc 1 2464 3
 9684 3652 40F20731 		movw	r1, #775
 9685 3656 3220     		movs	r0, #50
 9686 3658 FFF7FEFF 		bl	LCD_WriteReg
2465:hardware/src/lcd.c **** 		LCD_WriteReg(0X33,0X0304);   
 9687              		.loc 1 2465 3
 9688 365c 4FF44171 		mov	r1, #772
 9689 3660 3320     		movs	r0, #51
 9690 3662 FFF7FEFF 		bl	LCD_WriteReg
2466:hardware/src/lcd.c **** 		LCD_WriteReg(0X34,0X0004);   
 9691              		.loc 1 2466 3
 9692 3666 0421     		movs	r1, #4
 9693 3668 3420     		movs	r0, #52
 9694 366a FFF7FEFF 		bl	LCD_WriteReg
2467:hardware/src/lcd.c **** 		LCD_WriteReg(0X35,0X0401);   
 9695              		.loc 1 2467 3
 9696 366e 40F20141 		movw	r1, #1025
 9697 3672 3520     		movs	r0, #53
 9698 3674 FFF7FEFF 		bl	LCD_WriteReg
2468:hardware/src/lcd.c **** 		LCD_WriteReg(0X36,0X0707);   
 9699              		.loc 1 2468 3
 9700 3678 40F20771 		movw	r1, #1799
 9701 367c 3620     		movs	r0, #54
 9702 367e FFF7FEFF 		bl	LCD_WriteReg
2469:hardware/src/lcd.c **** 		LCD_WriteReg(0X37,0X0305);   
 9703              		.loc 1 2469 3
 9704 3682 40F20531 		movw	r1, #773
 9705 3686 3720     		movs	r0, #55
 9706 3688 FFF7FEFF 		bl	LCD_WriteReg
2470:hardware/src/lcd.c **** 		LCD_WriteReg(0X38,0X0610);   
ARM GAS  /tmp/ccRHtd69.s 			page 224


 9707              		.loc 1 2470 3
 9708 368c 4FF4C261 		mov	r1, #1552
 9709 3690 3820     		movs	r0, #56
 9710 3692 FFF7FEFF 		bl	LCD_WriteReg
2471:hardware/src/lcd.c **** 		LCD_WriteReg(0X39,0X0610); 
 9711              		.loc 1 2471 3
 9712 3696 4FF4C261 		mov	r1, #1552
 9713 369a 3920     		movs	r0, #57
 9714 369c FFF7FEFF 		bl	LCD_WriteReg
2472:hardware/src/lcd.c **** 		  
2473:hardware/src/lcd.c **** 		LCD_WriteReg(0X01,0X0100);   
 9715              		.loc 1 2473 3
 9716 36a0 4FF48071 		mov	r1, #256
 9717 36a4 0120     		movs	r0, #1
 9718 36a6 FFF7FEFF 		bl	LCD_WriteReg
2474:hardware/src/lcd.c **** 		LCD_WriteReg(0X02,0X0300);   
 9719              		.loc 1 2474 3
 9720 36aa 4FF44071 		mov	r1, #768
 9721 36ae 0220     		movs	r0, #2
 9722 36b0 FFF7FEFF 		bl	LCD_WriteReg
2475:hardware/src/lcd.c **** 		LCD_WriteReg(0X03,0X1030);//改变方向的   
 9723              		.loc 1 2475 3
 9724 36b4 41F23001 		movw	r1, #4144
 9725 36b8 0320     		movs	r0, #3
 9726 36ba FFF7FEFF 		bl	LCD_WriteReg
2476:hardware/src/lcd.c **** 		LCD_WriteReg(0X08,0X0808);   
 9727              		.loc 1 2476 3
 9728 36be 40F60801 		movw	r1, #2056
 9729 36c2 0820     		movs	r0, #8
 9730 36c4 FFF7FEFF 		bl	LCD_WriteReg
2477:hardware/src/lcd.c **** 		LCD_WriteReg(0X0A,0X0008);   
 9731              		.loc 1 2477 3
 9732 36c8 0821     		movs	r1, #8
 9733 36ca 0A20     		movs	r0, #10
 9734 36cc FFF7FEFF 		bl	LCD_WriteReg
2478:hardware/src/lcd.c ****  		LCD_WriteReg(0X60,0X2700);   
 9735              		.loc 1 2478 4
 9736 36d0 4FF41C51 		mov	r1, #9984
 9737 36d4 6020     		movs	r0, #96
 9738 36d6 FFF7FEFF 		bl	LCD_WriteReg
2479:hardware/src/lcd.c **** 		LCD_WriteReg(0X61,0X0001);   
 9739              		.loc 1 2479 3
 9740 36da 0121     		movs	r1, #1
 9741 36dc 6120     		movs	r0, #97
 9742 36de FFF7FEFF 		bl	LCD_WriteReg
2480:hardware/src/lcd.c **** 		LCD_WriteReg(0X90,0X013E);   
 9743              		.loc 1 2480 3
 9744 36e2 4FF49F71 		mov	r1, #318
 9745 36e6 9020     		movs	r0, #144
 9746 36e8 FFF7FEFF 		bl	LCD_WriteReg
2481:hardware/src/lcd.c **** 		LCD_WriteReg(0X92,0X0100);   
 9747              		.loc 1 2481 3
 9748 36ec 4FF48071 		mov	r1, #256
 9749 36f0 9220     		movs	r0, #146
 9750 36f2 FFF7FEFF 		bl	LCD_WriteReg
2482:hardware/src/lcd.c **** 		LCD_WriteReg(0X93,0X0100);   
 9751              		.loc 1 2482 3
ARM GAS  /tmp/ccRHtd69.s 			page 225


 9752 36f6 4FF48071 		mov	r1, #256
 9753 36fa 9320     		movs	r0, #147
 9754 36fc FFF7FEFF 		bl	LCD_WriteReg
2483:hardware/src/lcd.c ****  		LCD_WriteReg(0XA0,0X3000);   
 9755              		.loc 1 2483 4
 9756 3700 4FF44051 		mov	r1, #12288
 9757 3704 A020     		movs	r0, #160
 9758 3706 FFF7FEFF 		bl	LCD_WriteReg
2484:hardware/src/lcd.c ****  		LCD_WriteReg(0XA3,0X0010);   
 9759              		.loc 1 2484 4
 9760 370a 1021     		movs	r1, #16
 9761 370c A320     		movs	r0, #163
 9762 370e FFF7FEFF 		bl	LCD_WriteReg
2485:hardware/src/lcd.c **** 		LCD_WriteReg(0X07,0X0001);   
 9763              		.loc 1 2485 3
 9764 3712 0121     		movs	r1, #1
 9765 3714 0720     		movs	r0, #7
 9766 3716 FFF7FEFF 		bl	LCD_WriteReg
2486:hardware/src/lcd.c **** 		LCD_WriteReg(0X07,0X0021);   
 9767              		.loc 1 2486 3
 9768 371a 2121     		movs	r1, #33
 9769 371c 0720     		movs	r0, #7
 9770 371e FFF7FEFF 		bl	LCD_WriteReg
2487:hardware/src/lcd.c **** 		LCD_WriteReg(0X07,0X0023);   
 9771              		.loc 1 2487 3
 9772 3722 2321     		movs	r1, #35
 9773 3724 0720     		movs	r0, #7
 9774 3726 FFF7FEFF 		bl	LCD_WriteReg
2488:hardware/src/lcd.c **** 		LCD_WriteReg(0X07,0X0033);   
 9775              		.loc 1 2488 3
 9776 372a 3321     		movs	r1, #51
 9777 372c 0720     		movs	r0, #7
 9778 372e FFF7FEFF 		bl	LCD_WriteReg
2489:hardware/src/lcd.c **** 		LCD_WriteReg(0X07,0X0133);   
 9779              		.loc 1 2489 3
 9780 3732 40F23311 		movw	r1, #307
 9781 3736 0720     		movs	r0, #7
 9782 3738 FFF7FEFF 		bl	LCD_WriteReg
 9783              	.L172:
2490:hardware/src/lcd.c **** 	}		 
2491:hardware/src/lcd.c **** 	LCD_Display_Dir(0);		 	//默认为竖屏
 9784              		.loc 1 2491 2
 9785 373c 0020     		movs	r0, #0
 9786 373e FFF7FEFF 		bl	LCD_Display_Dir
2492:hardware/src/lcd.c **** 	LCD_LED=1;					//点亮背光
 9787              		.loc 1 2492 2
 9788 3742 064B     		ldr	r3, .L207+4
 9789              		.loc 1 2492 9
 9790 3744 0122     		movs	r2, #1
 9791 3746 1A60     		str	r2, [r3]
2493:hardware/src/lcd.c **** 	LCD_Clear(WHITE);
 9792              		.loc 1 2493 2
 9793 3748 4FF6FF70 		movw	r0, #65535
 9794 374c FFF7FEFF 		bl	LCD_Clear
2494:hardware/src/lcd.c **** }  
 9795              		.loc 1 2494 1
 9796 3750 00BF     		nop
ARM GAS  /tmp/ccRHtd69.s 			page 226


 9797 3752 7837     		adds	r7, r7, #120
 9798              	.LCFI91:
 9799              		.cfi_def_cfa_offset 8
 9800 3754 BD46     		mov	sp, r7
 9801              	.LCFI92:
 9802              		.cfi_def_cfa_register 13
 9803              		@ sp needed
 9804 3756 80BD     		pop	{r7, pc}
 9805              	.L208:
 9806              		.align	2
 9807              	.L207:
 9808 3758 00000000 		.word	lcddev
 9809 375c 80812142 		.word	1109492096
 9810              		.cfi_endproc
 9811              	.LFE84:
 9813              		.section	.text.LCD_Clear,"ax",%progbits
 9814              		.align	1
 9815              		.global	LCD_Clear
 9816              		.syntax unified
 9817              		.thumb
 9818              		.thumb_func
 9819              		.fpu softvfp
 9821              	LCD_Clear:
 9822              	.LFB85:
2495:hardware/src/lcd.c **** //清屏函数
2496:hardware/src/lcd.c **** //color:要清屏的填充色
2497:hardware/src/lcd.c **** void LCD_Clear(u16 color)
2498:hardware/src/lcd.c **** {
 9823              		.loc 1 2498 1
 9824              		.cfi_startproc
 9825              		@ args = 0, pretend = 0, frame = 16
 9826              		@ frame_needed = 1, uses_anonymous_args = 0
 9827 0000 80B5     		push	{r7, lr}
 9828              	.LCFI93:
 9829              		.cfi_def_cfa_offset 8
 9830              		.cfi_offset 7, -8
 9831              		.cfi_offset 14, -4
 9832 0002 84B0     		sub	sp, sp, #16
 9833              	.LCFI94:
 9834              		.cfi_def_cfa_offset 24
 9835 0004 00AF     		add	r7, sp, #0
 9836              	.LCFI95:
 9837              		.cfi_def_cfa_register 7
 9838 0006 0346     		mov	r3, r0
 9839 0008 FB80     		strh	r3, [r7, #6]	@ movhi
2499:hardware/src/lcd.c **** 	u32 index=0;      
 9840              		.loc 1 2499 6
 9841 000a 0023     		movs	r3, #0
 9842 000c FB60     		str	r3, [r7, #12]
2500:hardware/src/lcd.c **** 	u32 totalpoint=lcddev.width;
 9843              		.loc 1 2500 23
 9844 000e 214B     		ldr	r3, .L214
 9845 0010 1B88     		ldrh	r3, [r3]
 9846              		.loc 1 2500 6
 9847 0012 BB60     		str	r3, [r7, #8]
2501:hardware/src/lcd.c **** 	totalpoint*=lcddev.height; 			//得到总点数
 9848              		.loc 1 2501 20
ARM GAS  /tmp/ccRHtd69.s 			page 227


 9849 0014 1F4B     		ldr	r3, .L214
 9850 0016 5B88     		ldrh	r3, [r3, #2]
 9851 0018 1A46     		mov	r2, r3
 9852              		.loc 1 2501 12
 9853 001a BB68     		ldr	r3, [r7, #8]
 9854 001c 02FB03F3 		mul	r3, r2, r3
 9855 0020 BB60     		str	r3, [r7, #8]
2502:hardware/src/lcd.c **** 	if((lcddev.id==0X6804)&&(lcddev.dir==1))//6804横屏的时候特殊处理  
 9856              		.loc 1 2502 12
 9857 0022 1C4B     		ldr	r3, .L214
 9858 0024 9B88     		ldrh	r3, [r3, #4]
 9859              		.loc 1 2502 4
 9860 0026 46F60402 		movw	r2, #26628
 9861 002a 9342     		cmp	r3, r2
 9862 002c 1AD1     		bne	.L210
 9863              		.loc 1 2502 33 discriminator 1
 9864 002e 194B     		ldr	r3, .L214
 9865 0030 9B79     		ldrb	r3, [r3, #6]	@ zero_extendqisi2
 9866              		.loc 1 2502 24 discriminator 1
 9867 0032 012B     		cmp	r3, #1
 9868 0034 16D1     		bne	.L210
2503:hardware/src/lcd.c **** 	{						    
2504:hardware/src/lcd.c ****  		lcddev.dir=0;	 
 9869              		.loc 1 2504 14
 9870 0036 174B     		ldr	r3, .L214
 9871 0038 0022     		movs	r2, #0
 9872 003a 9A71     		strb	r2, [r3, #6]
2505:hardware/src/lcd.c ****  		lcddev.setxcmd=0X2A;
 9873              		.loc 1 2505 18
 9874 003c 154B     		ldr	r3, .L214
 9875 003e 2A22     		movs	r2, #42
 9876 0040 5A81     		strh	r2, [r3, #10]	@ movhi
2506:hardware/src/lcd.c **** 		lcddev.setycmd=0X2B;  	 			
 9877              		.loc 1 2506 17
 9878 0042 144B     		ldr	r3, .L214
 9879 0044 2B22     		movs	r2, #43
 9880 0046 9A81     		strh	r2, [r3, #12]	@ movhi
2507:hardware/src/lcd.c **** 		LCD_SetCursor(0x00,0x0000);		//设置光标位置  
 9881              		.loc 1 2507 3
 9882 0048 0021     		movs	r1, #0
 9883 004a 0020     		movs	r0, #0
 9884 004c FFF7FEFF 		bl	LCD_SetCursor
2508:hardware/src/lcd.c ****  		lcddev.dir=1;	 
 9885              		.loc 1 2508 14
 9886 0050 104B     		ldr	r3, .L214
 9887 0052 0122     		movs	r2, #1
 9888 0054 9A71     		strb	r2, [r3, #6]
2509:hardware/src/lcd.c ****   		lcddev.setxcmd=0X2B;
 9889              		.loc 1 2509 19
 9890 0056 0F4B     		ldr	r3, .L214
 9891 0058 2B22     		movs	r2, #43
 9892 005a 5A81     		strh	r2, [r3, #10]	@ movhi
2510:hardware/src/lcd.c **** 		lcddev.setycmd=0X2A;  	 
 9893              		.loc 1 2510 17
 9894 005c 0D4B     		ldr	r3, .L214
 9895 005e 2A22     		movs	r2, #42
 9896 0060 9A81     		strh	r2, [r3, #12]	@ movhi
ARM GAS  /tmp/ccRHtd69.s 			page 228


 9897 0062 03E0     		b	.L211
 9898              	.L210:
2511:hardware/src/lcd.c ****  	}else LCD_SetCursor(0x00,0x0000);	//设置光标位置 
 9899              		.loc 1 2511 9
 9900 0064 0021     		movs	r1, #0
 9901 0066 0020     		movs	r0, #0
 9902 0068 FFF7FEFF 		bl	LCD_SetCursor
 9903              	.L211:
2512:hardware/src/lcd.c **** 	LCD_WriteRAM_Prepare();     		//开始写入GRAM	 	  
 9904              		.loc 1 2512 2
 9905 006c FFF7FEFF 		bl	LCD_WriteRAM_Prepare
2513:hardware/src/lcd.c **** 	for(index=0;index<totalpoint;index++)
 9906              		.loc 1 2513 11
 9907 0070 0023     		movs	r3, #0
 9908 0072 FB60     		str	r3, [r7, #12]
 9909              		.loc 1 2513 2
 9910 0074 05E0     		b	.L212
 9911              	.L213:
2514:hardware/src/lcd.c **** 	{
2515:hardware/src/lcd.c **** 		LCD->LCD_RAM=color;	   
 9912              		.loc 1 2515 6 discriminator 3
 9913 0076 084A     		ldr	r2, .L214+4
 9914              		.loc 1 2515 15 discriminator 3
 9915 0078 FB88     		ldrh	r3, [r7, #6]	@ movhi
 9916 007a 5380     		strh	r3, [r2, #2]	@ movhi
2513:hardware/src/lcd.c **** 	for(index=0;index<totalpoint;index++)
 9917              		.loc 1 2513 36 discriminator 3
 9918 007c FB68     		ldr	r3, [r7, #12]
 9919 007e 0133     		adds	r3, r3, #1
 9920 0080 FB60     		str	r3, [r7, #12]
 9921              	.L212:
2513:hardware/src/lcd.c **** 	for(index=0;index<totalpoint;index++)
 9922              		.loc 1 2513 2 discriminator 1
 9923 0082 FA68     		ldr	r2, [r7, #12]
 9924 0084 BB68     		ldr	r3, [r7, #8]
 9925 0086 9A42     		cmp	r2, r3
 9926 0088 F5D3     		bcc	.L213
2516:hardware/src/lcd.c **** 	}
2517:hardware/src/lcd.c **** }  
 9927              		.loc 1 2517 1
 9928 008a 00BF     		nop
 9929 008c 00BF     		nop
 9930 008e 1037     		adds	r7, r7, #16
 9931              	.LCFI96:
 9932              		.cfi_def_cfa_offset 8
 9933 0090 BD46     		mov	sp, r7
 9934              	.LCFI97:
 9935              		.cfi_def_cfa_register 13
 9936              		@ sp needed
 9937 0092 80BD     		pop	{r7, pc}
 9938              	.L215:
 9939              		.align	2
 9940              	.L214:
 9941 0094 00000000 		.word	lcddev
 9942 0098 FE07006C 		.word	1811941374
 9943              		.cfi_endproc
 9944              	.LFE85:
ARM GAS  /tmp/ccRHtd69.s 			page 229


 9946              		.section	.text.LCD_Fill,"ax",%progbits
 9947              		.align	1
 9948              		.global	LCD_Fill
 9949              		.syntax unified
 9950              		.thumb
 9951              		.thumb_func
 9952              		.fpu softvfp
 9954              	LCD_Fill:
 9955              	.LFB86:
2518:hardware/src/lcd.c **** //在指定区域内填充单个颜色
2519:hardware/src/lcd.c **** //(sx,sy),(ex,ey):填充矩形对角坐标,区域大小为:(ex-sx+1)*(ey-sy+1)   
2520:hardware/src/lcd.c **** //color:要填充的颜色
2521:hardware/src/lcd.c **** void LCD_Fill(u16 sx,u16 sy,u16 ex,u16 ey,u16 color)
2522:hardware/src/lcd.c **** {          
 9956              		.loc 1 2522 1
 9957              		.cfi_startproc
 9958              		@ args = 4, pretend = 0, frame = 16
 9959              		@ frame_needed = 1, uses_anonymous_args = 0
 9960 0000 90B5     		push	{r4, r7, lr}
 9961              	.LCFI98:
 9962              		.cfi_def_cfa_offset 12
 9963              		.cfi_offset 4, -12
 9964              		.cfi_offset 7, -8
 9965              		.cfi_offset 14, -4
 9966 0002 87B0     		sub	sp, sp, #28
 9967              	.LCFI99:
 9968              		.cfi_def_cfa_offset 40
 9969 0004 02AF     		add	r7, sp, #8
 9970              	.LCFI100:
 9971              		.cfi_def_cfa 7, 32
 9972 0006 0446     		mov	r4, r0
 9973 0008 0846     		mov	r0, r1
 9974 000a 1146     		mov	r1, r2
 9975 000c 1A46     		mov	r2, r3
 9976 000e 2346     		mov	r3, r4	@ movhi
 9977 0010 FB80     		strh	r3, [r7, #6]	@ movhi
 9978 0012 0346     		mov	r3, r0	@ movhi
 9979 0014 BB80     		strh	r3, [r7, #4]	@ movhi
 9980 0016 0B46     		mov	r3, r1	@ movhi
 9981 0018 7B80     		strh	r3, [r7, #2]	@ movhi
 9982 001a 1346     		mov	r3, r2	@ movhi
 9983 001c 3B80     		strh	r3, [r7]	@ movhi
2523:hardware/src/lcd.c **** 	u16 i,j;
2524:hardware/src/lcd.c **** 	u16 xlen=0;
 9984              		.loc 1 2524 6
 9985 001e 0023     		movs	r3, #0
 9986 0020 7B81     		strh	r3, [r7, #10]	@ movhi
2525:hardware/src/lcd.c **** 	u16 temp;
2526:hardware/src/lcd.c **** 	if((lcddev.id==0X6804)&&(lcddev.dir==1))	//6804横屏的时候特殊处理  
 9987              		.loc 1 2526 12
 9988 0022 324B     		ldr	r3, .L223
 9989 0024 9B88     		ldrh	r3, [r3, #4]
 9990              		.loc 1 2526 4
 9991 0026 46F60402 		movw	r2, #26628
 9992 002a 9342     		cmp	r3, r2
 9993 002c 33D1     		bne	.L217
 9994              		.loc 1 2526 33 discriminator 1
ARM GAS  /tmp/ccRHtd69.s 			page 230


 9995 002e 2F4B     		ldr	r3, .L223
 9996 0030 9B79     		ldrb	r3, [r3, #6]	@ zero_extendqisi2
 9997              		.loc 1 2526 24 discriminator 1
 9998 0032 012B     		cmp	r3, #1
 9999 0034 2FD1     		bne	.L217
2527:hardware/src/lcd.c **** 	{
2528:hardware/src/lcd.c **** 		temp=sx;
 10000              		.loc 1 2528 7
 10001 0036 FB88     		ldrh	r3, [r7, #6]	@ movhi
 10002 0038 3B81     		strh	r3, [r7, #8]	@ movhi
2529:hardware/src/lcd.c **** 		sx=sy;
 10003              		.loc 1 2529 5
 10004 003a BB88     		ldrh	r3, [r7, #4]	@ movhi
 10005 003c FB80     		strh	r3, [r7, #6]	@ movhi
2530:hardware/src/lcd.c **** 		sy=lcddev.width-ex-1;	  
 10006              		.loc 1 2530 12
 10007 003e 2B4B     		ldr	r3, .L223
 10008 0040 1A88     		ldrh	r2, [r3]
 10009              		.loc 1 2530 18
 10010 0042 7B88     		ldrh	r3, [r7, #2]	@ movhi
 10011 0044 D31A     		subs	r3, r2, r3
 10012 0046 9BB2     		uxth	r3, r3
 10013              		.loc 1 2530 5
 10014 0048 013B     		subs	r3, r3, #1
 10015 004a BB80     		strh	r3, [r7, #4]	@ movhi
2531:hardware/src/lcd.c **** 		ex=ey;
 10016              		.loc 1 2531 5
 10017 004c 3B88     		ldrh	r3, [r7]	@ movhi
 10018 004e 7B80     		strh	r3, [r7, #2]	@ movhi
2532:hardware/src/lcd.c **** 		ey=lcddev.width-temp-1;
 10019              		.loc 1 2532 12
 10020 0050 264B     		ldr	r3, .L223
 10021 0052 1A88     		ldrh	r2, [r3]
 10022              		.loc 1 2532 18
 10023 0054 3B89     		ldrh	r3, [r7, #8]	@ movhi
 10024 0056 D31A     		subs	r3, r2, r3
 10025 0058 9BB2     		uxth	r3, r3
 10026              		.loc 1 2532 5
 10027 005a 013B     		subs	r3, r3, #1
 10028 005c 3B80     		strh	r3, [r7]	@ movhi
2533:hardware/src/lcd.c ****  		lcddev.dir=0;	 
 10029              		.loc 1 2533 14
 10030 005e 234B     		ldr	r3, .L223
 10031 0060 0022     		movs	r2, #0
 10032 0062 9A71     		strb	r2, [r3, #6]
2534:hardware/src/lcd.c ****  		lcddev.setxcmd=0X2A;
 10033              		.loc 1 2534 18
 10034 0064 214B     		ldr	r3, .L223
 10035 0066 2A22     		movs	r2, #42
 10036 0068 5A81     		strh	r2, [r3, #10]	@ movhi
2535:hardware/src/lcd.c **** 		lcddev.setycmd=0X2B;  	 			
 10037              		.loc 1 2535 17
 10038 006a 204B     		ldr	r3, .L223
 10039 006c 2B22     		movs	r2, #43
 10040 006e 9A81     		strh	r2, [r3, #12]	@ movhi
2536:hardware/src/lcd.c **** 		LCD_Fill(sx,sy,ex,ey,color);  
 10041              		.loc 1 2536 3
ARM GAS  /tmp/ccRHtd69.s 			page 231


 10042 0070 3C88     		ldrh	r4, [r7]
 10043 0072 7A88     		ldrh	r2, [r7, #2]
 10044 0074 B988     		ldrh	r1, [r7, #4]
 10045 0076 F888     		ldrh	r0, [r7, #6]
 10046 0078 3B8C     		ldrh	r3, [r7, #32]
 10047 007a 0093     		str	r3, [sp]
 10048 007c 2346     		mov	r3, r4
 10049 007e FFF7FEFF 		bl	LCD_Fill
2537:hardware/src/lcd.c ****  		lcddev.dir=1;	 
 10050              		.loc 1 2537 14
 10051 0082 1A4B     		ldr	r3, .L223
 10052 0084 0122     		movs	r2, #1
 10053 0086 9A71     		strb	r2, [r3, #6]
2538:hardware/src/lcd.c ****   		lcddev.setxcmd=0X2B;
 10054              		.loc 1 2538 19
 10055 0088 184B     		ldr	r3, .L223
 10056 008a 2B22     		movs	r2, #43
 10057 008c 5A81     		strh	r2, [r3, #10]	@ movhi
2539:hardware/src/lcd.c **** 		lcddev.setycmd=0X2A;  	 
 10058              		.loc 1 2539 17
 10059 008e 174B     		ldr	r3, .L223
 10060 0090 2A22     		movs	r2, #42
 10061 0092 9A81     		strh	r2, [r3, #12]	@ movhi
 10062 0094 26E0     		b	.L218
 10063              	.L217:
2540:hardware/src/lcd.c ****  	}else
2541:hardware/src/lcd.c **** 	{
2542:hardware/src/lcd.c **** 		xlen=ex-sx+1;	 
 10064              		.loc 1 2542 10
 10065 0096 7A88     		ldrh	r2, [r7, #2]	@ movhi
 10066 0098 FB88     		ldrh	r3, [r7, #6]	@ movhi
 10067 009a D31A     		subs	r3, r2, r3
 10068 009c 9BB2     		uxth	r3, r3
 10069              		.loc 1 2542 7
 10070 009e 0133     		adds	r3, r3, #1
 10071 00a0 7B81     		strh	r3, [r7, #10]	@ movhi
2543:hardware/src/lcd.c **** 		for(i=sy;i<=ey;i++)
 10072              		.loc 1 2543 8
 10073 00a2 BB88     		ldrh	r3, [r7, #4]	@ movhi
 10074 00a4 FB81     		strh	r3, [r7, #14]	@ movhi
 10075              		.loc 1 2543 3
 10076 00a6 18E0     		b	.L219
 10077              	.L222:
2544:hardware/src/lcd.c **** 		{
2545:hardware/src/lcd.c **** 		 	LCD_SetCursor(sx,i);      				//设置光标位置 
 10078              		.loc 1 2545 5
 10079 00a8 FA89     		ldrh	r2, [r7, #14]
 10080 00aa FB88     		ldrh	r3, [r7, #6]
 10081 00ac 1146     		mov	r1, r2
 10082 00ae 1846     		mov	r0, r3
 10083 00b0 FFF7FEFF 		bl	LCD_SetCursor
2546:hardware/src/lcd.c **** 			LCD_WriteRAM_Prepare();     			//开始写入GRAM	  
 10084              		.loc 1 2546 4
 10085 00b4 FFF7FEFF 		bl	LCD_WriteRAM_Prepare
2547:hardware/src/lcd.c **** 			for(j=0;j<xlen;j++)LCD_WR_DATA(color);	//设置光标位置 	    
 10086              		.loc 1 2547 9
 10087 00b8 0023     		movs	r3, #0
ARM GAS  /tmp/ccRHtd69.s 			page 232


 10088 00ba BB81     		strh	r3, [r7, #12]	@ movhi
 10089              		.loc 1 2547 4
 10090 00bc 06E0     		b	.L220
 10091              	.L221:
 10092              		.loc 1 2547 23 discriminator 3
 10093 00be 3B8C     		ldrh	r3, [r7, #32]
 10094 00c0 1846     		mov	r0, r3
 10095 00c2 FFF7FEFF 		bl	LCD_WR_DATA
 10096              		.loc 1 2547 20 discriminator 3
 10097 00c6 BB89     		ldrh	r3, [r7, #12]
 10098 00c8 0133     		adds	r3, r3, #1
 10099 00ca BB81     		strh	r3, [r7, #12]	@ movhi
 10100              	.L220:
 10101              		.loc 1 2547 4 discriminator 1
 10102 00cc BA89     		ldrh	r2, [r7, #12]
 10103 00ce 7B89     		ldrh	r3, [r7, #10]
 10104 00d0 9A42     		cmp	r2, r3
 10105 00d2 F4D3     		bcc	.L221
2543:hardware/src/lcd.c **** 		{
 10106              		.loc 1 2543 19 discriminator 2
 10107 00d4 FB89     		ldrh	r3, [r7, #14]
 10108 00d6 0133     		adds	r3, r3, #1
 10109 00d8 FB81     		strh	r3, [r7, #14]	@ movhi
 10110              	.L219:
2543:hardware/src/lcd.c **** 		{
 10111              		.loc 1 2543 3 discriminator 1
 10112 00da FA89     		ldrh	r2, [r7, #14]
 10113 00dc 3B88     		ldrh	r3, [r7]
 10114 00de 9A42     		cmp	r2, r3
 10115 00e0 E2D9     		bls	.L222
2548:hardware/src/lcd.c **** 		}
2549:hardware/src/lcd.c **** 	}	 
2550:hardware/src/lcd.c **** }  
 10116              		.loc 1 2550 1
 10117 00e2 00BF     		nop
 10118              	.L218:
 10119 00e4 00BF     		nop
 10120 00e6 1437     		adds	r7, r7, #20
 10121              	.LCFI101:
 10122              		.cfi_def_cfa_offset 12
 10123 00e8 BD46     		mov	sp, r7
 10124              	.LCFI102:
 10125              		.cfi_def_cfa_register 13
 10126              		@ sp needed
 10127 00ea 90BD     		pop	{r4, r7, pc}
 10128              	.L224:
 10129              		.align	2
 10130              	.L223:
 10131 00ec 00000000 		.word	lcddev
 10132              		.cfi_endproc
 10133              	.LFE86:
 10135              		.section	.text.LCD_Color_Fill,"ax",%progbits
 10136              		.align	1
 10137              		.global	LCD_Color_Fill
 10138              		.syntax unified
 10139              		.thumb
 10140              		.thumb_func
ARM GAS  /tmp/ccRHtd69.s 			page 233


 10141              		.fpu softvfp
 10143              	LCD_Color_Fill:
 10144              	.LFB87:
2551:hardware/src/lcd.c **** //在指定区域内填充指定颜色块			 
2552:hardware/src/lcd.c **** //(sx,sy),(ex,ey):填充矩形对角坐标,区域大小为:(ex-sx+1)*(ey-sy+1)   
2553:hardware/src/lcd.c **** //color:要填充的颜色
2554:hardware/src/lcd.c **** void LCD_Color_Fill(u16 sx,u16 sy,u16 ex,u16 ey,u16 *color)
2555:hardware/src/lcd.c **** {  
 10145              		.loc 1 2555 1
 10146              		.cfi_startproc
 10147              		@ args = 4, pretend = 0, frame = 16
 10148              		@ frame_needed = 1, uses_anonymous_args = 0
 10149 0000 90B5     		push	{r4, r7, lr}
 10150              	.LCFI103:
 10151              		.cfi_def_cfa_offset 12
 10152              		.cfi_offset 4, -12
 10153              		.cfi_offset 7, -8
 10154              		.cfi_offset 14, -4
 10155 0002 85B0     		sub	sp, sp, #20
 10156              	.LCFI104:
 10157              		.cfi_def_cfa_offset 32
 10158 0004 00AF     		add	r7, sp, #0
 10159              	.LCFI105:
 10160              		.cfi_def_cfa_register 7
 10161 0006 0446     		mov	r4, r0
 10162 0008 0846     		mov	r0, r1
 10163 000a 1146     		mov	r1, r2
 10164 000c 1A46     		mov	r2, r3
 10165 000e 2346     		mov	r3, r4	@ movhi
 10166 0010 FB80     		strh	r3, [r7, #6]	@ movhi
 10167 0012 0346     		mov	r3, r0	@ movhi
 10168 0014 BB80     		strh	r3, [r7, #4]	@ movhi
 10169 0016 0B46     		mov	r3, r1	@ movhi
 10170 0018 7B80     		strh	r3, [r7, #2]	@ movhi
 10171 001a 1346     		mov	r3, r2	@ movhi
 10172 001c 3B80     		strh	r3, [r7]	@ movhi
2556:hardware/src/lcd.c **** 	u16 height,width;
2557:hardware/src/lcd.c **** 	u16 i,j;
2558:hardware/src/lcd.c **** 	width=ex-sx+1; 			//得到填充的宽度
 10173              		.loc 1 2558 10
 10174 001e 7A88     		ldrh	r2, [r7, #2]	@ movhi
 10175 0020 FB88     		ldrh	r3, [r7, #6]	@ movhi
 10176 0022 D31A     		subs	r3, r2, r3
 10177 0024 9BB2     		uxth	r3, r3
 10178              		.loc 1 2558 7
 10179 0026 0133     		adds	r3, r3, #1
 10180 0028 7B81     		strh	r3, [r7, #10]	@ movhi
2559:hardware/src/lcd.c **** 	height=ey-sy+1;			//高度
 10181              		.loc 1 2559 11
 10182 002a 3A88     		ldrh	r2, [r7]	@ movhi
 10183 002c BB88     		ldrh	r3, [r7, #4]	@ movhi
 10184 002e D31A     		subs	r3, r2, r3
 10185 0030 9BB2     		uxth	r3, r3
 10186              		.loc 1 2559 8
 10187 0032 0133     		adds	r3, r3, #1
 10188 0034 3B81     		strh	r3, [r7, #8]	@ movhi
2560:hardware/src/lcd.c ****  	for(i=0;i<height;i++)
ARM GAS  /tmp/ccRHtd69.s 			page 234


 10189              		.loc 1 2560 8
 10190 0036 0023     		movs	r3, #0
 10191 0038 FB81     		strh	r3, [r7, #14]	@ movhi
 10192              		.loc 1 2560 3
 10193 003a 23E0     		b	.L226
 10194              	.L229:
2561:hardware/src/lcd.c **** 	{
2562:hardware/src/lcd.c ****  		LCD_SetCursor(sx,sy+i);   	//设置光标位置 
 10195              		.loc 1 2562 4
 10196 003c BA88     		ldrh	r2, [r7, #4]	@ movhi
 10197 003e FB89     		ldrh	r3, [r7, #14]	@ movhi
 10198 0040 1344     		add	r3, r3, r2
 10199 0042 9AB2     		uxth	r2, r3
 10200 0044 FB88     		ldrh	r3, [r7, #6]
 10201 0046 1146     		mov	r1, r2
 10202 0048 1846     		mov	r0, r3
 10203 004a FFF7FEFF 		bl	LCD_SetCursor
2563:hardware/src/lcd.c **** 		LCD_WriteRAM_Prepare();     //开始写入GRAM
 10204              		.loc 1 2563 3
 10205 004e FFF7FEFF 		bl	LCD_WriteRAM_Prepare
2564:hardware/src/lcd.c **** 		for(j=0;j<width;j++)LCD->LCD_RAM=color[i*height+j];//写入数据 
 10206              		.loc 1 2564 8
 10207 0052 0023     		movs	r3, #0
 10208 0054 BB81     		strh	r3, [r7, #12]	@ movhi
 10209              		.loc 1 2564 3
 10210 0056 0EE0     		b	.L227
 10211              	.L228:
 10212              		.loc 1 2564 43 discriminator 3
 10213 0058 FB89     		ldrh	r3, [r7, #14]
 10214 005a 3A89     		ldrh	r2, [r7, #8]
 10215 005c 03FB02F2 		mul	r2, r3, r2
 10216              		.loc 1 2564 50 discriminator 3
 10217 0060 BB89     		ldrh	r3, [r7, #12]
 10218 0062 1344     		add	r3, r3, r2
 10219              		.loc 1 2564 41 discriminator 3
 10220 0064 5B00     		lsls	r3, r3, #1
 10221 0066 3A6A     		ldr	r2, [r7, #32]
 10222 0068 1344     		add	r3, r3, r2
 10223              		.loc 1 2564 26 discriminator 3
 10224 006a 0B4A     		ldr	r2, .L230
 10225              		.loc 1 2564 41 discriminator 3
 10226 006c 1B88     		ldrh	r3, [r3]
 10227              		.loc 1 2564 35 discriminator 3
 10228 006e 5380     		strh	r3, [r2, #2]	@ movhi
 10229              		.loc 1 2564 20 discriminator 3
 10230 0070 BB89     		ldrh	r3, [r7, #12]
 10231 0072 0133     		adds	r3, r3, #1
 10232 0074 BB81     		strh	r3, [r7, #12]	@ movhi
 10233              	.L227:
 10234              		.loc 1 2564 3 discriminator 1
 10235 0076 BA89     		ldrh	r2, [r7, #12]
 10236 0078 7B89     		ldrh	r3, [r7, #10]
 10237 007a 9A42     		cmp	r2, r3
 10238 007c ECD3     		bcc	.L228
2560:hardware/src/lcd.c **** 	{
 10239              		.loc 1 2560 21 discriminator 2
 10240 007e FB89     		ldrh	r3, [r7, #14]
ARM GAS  /tmp/ccRHtd69.s 			page 235


 10241 0080 0133     		adds	r3, r3, #1
 10242 0082 FB81     		strh	r3, [r7, #14]	@ movhi
 10243              	.L226:
2560:hardware/src/lcd.c **** 	{
 10244              		.loc 1 2560 3 discriminator 1
 10245 0084 FA89     		ldrh	r2, [r7, #14]
 10246 0086 3B89     		ldrh	r3, [r7, #8]
 10247 0088 9A42     		cmp	r2, r3
 10248 008a D7D3     		bcc	.L229
2565:hardware/src/lcd.c **** 	}	  
2566:hardware/src/lcd.c **** }  
 10249              		.loc 1 2566 1
 10250 008c 00BF     		nop
 10251 008e 00BF     		nop
 10252 0090 1437     		adds	r7, r7, #20
 10253              	.LCFI106:
 10254              		.cfi_def_cfa_offset 12
 10255 0092 BD46     		mov	sp, r7
 10256              	.LCFI107:
 10257              		.cfi_def_cfa_register 13
 10258              		@ sp needed
 10259 0094 90BD     		pop	{r4, r7, pc}
 10260              	.L231:
 10261 0096 00BF     		.align	2
 10262              	.L230:
 10263 0098 FE07006C 		.word	1811941374
 10264              		.cfi_endproc
 10265              	.LFE87:
 10267              		.section	.text.LCD_DrawLine,"ax",%progbits
 10268              		.align	1
 10269              		.global	LCD_DrawLine
 10270              		.syntax unified
 10271              		.thumb
 10272              		.thumb_func
 10273              		.fpu softvfp
 10275              	LCD_DrawLine:
 10276              	.LFB88:
2567:hardware/src/lcd.c **** //画线
2568:hardware/src/lcd.c **** //x1,y1:起点坐标
2569:hardware/src/lcd.c **** //x2,y2:终点坐标  
2570:hardware/src/lcd.c **** void LCD_DrawLine(u16 x1, u16 y1, u16 x2, u16 y2)
2571:hardware/src/lcd.c **** {
 10277              		.loc 1 2571 1
 10278              		.cfi_startproc
 10279              		@ args = 0, pretend = 0, frame = 48
 10280              		@ frame_needed = 1, uses_anonymous_args = 0
 10281 0000 90B5     		push	{r4, r7, lr}
 10282              	.LCFI108:
 10283              		.cfi_def_cfa_offset 12
 10284              		.cfi_offset 4, -12
 10285              		.cfi_offset 7, -8
 10286              		.cfi_offset 14, -4
 10287 0002 8DB0     		sub	sp, sp, #52
 10288              	.LCFI109:
 10289              		.cfi_def_cfa_offset 64
 10290 0004 00AF     		add	r7, sp, #0
 10291              	.LCFI110:
ARM GAS  /tmp/ccRHtd69.s 			page 236


 10292              		.cfi_def_cfa_register 7
 10293 0006 0446     		mov	r4, r0
 10294 0008 0846     		mov	r0, r1
 10295 000a 1146     		mov	r1, r2
 10296 000c 1A46     		mov	r2, r3
 10297 000e 2346     		mov	r3, r4	@ movhi
 10298 0010 FB80     		strh	r3, [r7, #6]	@ movhi
 10299 0012 0346     		mov	r3, r0	@ movhi
 10300 0014 BB80     		strh	r3, [r7, #4]	@ movhi
 10301 0016 0B46     		mov	r3, r1	@ movhi
 10302 0018 7B80     		strh	r3, [r7, #2]	@ movhi
 10303 001a 1346     		mov	r3, r2	@ movhi
 10304 001c 3B80     		strh	r3, [r7]	@ movhi
2572:hardware/src/lcd.c **** 	u16 t; 
2573:hardware/src/lcd.c **** 	int xerr=0,yerr=0,delta_x,delta_y,distance; 
 10305              		.loc 1 2573 6
 10306 001e 0023     		movs	r3, #0
 10307 0020 BB62     		str	r3, [r7, #40]
 10308              		.loc 1 2573 13
 10309 0022 0023     		movs	r3, #0
 10310 0024 7B62     		str	r3, [r7, #36]
2574:hardware/src/lcd.c **** 	int incx,incy,uRow,uCol; 
2575:hardware/src/lcd.c **** 	delta_x=x2-x1; //计算坐标增量 
 10311              		.loc 1 2575 12
 10312 0026 7A88     		ldrh	r2, [r7, #2]
 10313 0028 FB88     		ldrh	r3, [r7, #6]
 10314              		.loc 1 2575 9
 10315 002a D31A     		subs	r3, r2, r3
 10316 002c 3B62     		str	r3, [r7, #32]
2576:hardware/src/lcd.c **** 	delta_y=y2-y1; 
 10317              		.loc 1 2576 12
 10318 002e 3A88     		ldrh	r2, [r7]
 10319 0030 BB88     		ldrh	r3, [r7, #4]
 10320              		.loc 1 2576 9
 10321 0032 D31A     		subs	r3, r2, r3
 10322 0034 FB61     		str	r3, [r7, #28]
2577:hardware/src/lcd.c **** 	uRow=x1; 
 10323              		.loc 1 2577 6
 10324 0036 FB88     		ldrh	r3, [r7, #6]
 10325 0038 FB60     		str	r3, [r7, #12]
2578:hardware/src/lcd.c **** 	uCol=y1; 
 10326              		.loc 1 2578 6
 10327 003a BB88     		ldrh	r3, [r7, #4]
 10328 003c BB60     		str	r3, [r7, #8]
2579:hardware/src/lcd.c **** 	if(delta_x>0)incx=1; //设置单步方向 
 10329              		.loc 1 2579 4
 10330 003e 3B6A     		ldr	r3, [r7, #32]
 10331 0040 002B     		cmp	r3, #0
 10332 0042 02DD     		ble	.L233
 10333              		.loc 1 2579 19 discriminator 1
 10334 0044 0123     		movs	r3, #1
 10335 0046 7B61     		str	r3, [r7, #20]
 10336 0048 0BE0     		b	.L234
 10337              	.L233:
2580:hardware/src/lcd.c **** 	else if(delta_x==0)incx=0;//垂直线 
 10338              		.loc 1 2580 9
 10339 004a 3B6A     		ldr	r3, [r7, #32]
ARM GAS  /tmp/ccRHtd69.s 			page 237


 10340 004c 002B     		cmp	r3, #0
 10341 004e 02D1     		bne	.L235
 10342              		.loc 1 2580 25 discriminator 1
 10343 0050 0023     		movs	r3, #0
 10344 0052 7B61     		str	r3, [r7, #20]
 10345 0054 05E0     		b	.L234
 10346              	.L235:
2581:hardware/src/lcd.c **** 	else {incx=-1;delta_x=-delta_x;} 
 10347              		.loc 1 2581 12
 10348 0056 4FF0FF33 		mov	r3, #-1
 10349 005a 7B61     		str	r3, [r7, #20]
 10350              		.loc 1 2581 23
 10351 005c 3B6A     		ldr	r3, [r7, #32]
 10352 005e 5B42     		rsbs	r3, r3, #0
 10353 0060 3B62     		str	r3, [r7, #32]
 10354              	.L234:
2582:hardware/src/lcd.c **** 	if(delta_y>0)incy=1; 
 10355              		.loc 1 2582 4
 10356 0062 FB69     		ldr	r3, [r7, #28]
 10357 0064 002B     		cmp	r3, #0
 10358 0066 02DD     		ble	.L236
 10359              		.loc 1 2582 19 discriminator 1
 10360 0068 0123     		movs	r3, #1
 10361 006a 3B61     		str	r3, [r7, #16]
 10362 006c 0BE0     		b	.L237
 10363              	.L236:
2583:hardware/src/lcd.c **** 	else if(delta_y==0)incy=0;//水平线 
 10364              		.loc 1 2583 9
 10365 006e FB69     		ldr	r3, [r7, #28]
 10366 0070 002B     		cmp	r3, #0
 10367 0072 02D1     		bne	.L238
 10368              		.loc 1 2583 25 discriminator 1
 10369 0074 0023     		movs	r3, #0
 10370 0076 3B61     		str	r3, [r7, #16]
 10371 0078 05E0     		b	.L237
 10372              	.L238:
2584:hardware/src/lcd.c **** 	else{incy=-1;delta_y=-delta_y;} 
 10373              		.loc 1 2584 11
 10374 007a 4FF0FF33 		mov	r3, #-1
 10375 007e 3B61     		str	r3, [r7, #16]
 10376              		.loc 1 2584 22
 10377 0080 FB69     		ldr	r3, [r7, #28]
 10378 0082 5B42     		rsbs	r3, r3, #0
 10379 0084 FB61     		str	r3, [r7, #28]
 10380              	.L237:
2585:hardware/src/lcd.c **** 	if( delta_x>delta_y)distance=delta_x; //选取基本增量坐标轴 
 10381              		.loc 1 2585 4
 10382 0086 3A6A     		ldr	r2, [r7, #32]
 10383 0088 FB69     		ldr	r3, [r7, #28]
 10384 008a 9A42     		cmp	r2, r3
 10385 008c 02DD     		ble	.L239
 10386              		.loc 1 2585 30 discriminator 1
 10387 008e 3B6A     		ldr	r3, [r7, #32]
 10388 0090 BB61     		str	r3, [r7, #24]
 10389 0092 01E0     		b	.L240
 10390              	.L239:
2586:hardware/src/lcd.c **** 	else distance=delta_y; 
ARM GAS  /tmp/ccRHtd69.s 			page 238


 10391              		.loc 1 2586 15
 10392 0094 FB69     		ldr	r3, [r7, #28]
 10393 0096 BB61     		str	r3, [r7, #24]
 10394              	.L240:
2587:hardware/src/lcd.c **** 	for(t=0;t<=distance+1;t++ )//画线输出 
 10395              		.loc 1 2587 7
 10396 0098 0023     		movs	r3, #0
 10397 009a FB85     		strh	r3, [r7, #46]	@ movhi
 10398              		.loc 1 2587 2
 10399 009c 2AE0     		b	.L241
 10400              	.L244:
2588:hardware/src/lcd.c **** 	{  
2589:hardware/src/lcd.c **** 		LCD_DrawPoint(uRow,uCol);//画点 
 10401              		.loc 1 2589 3
 10402 009e FB68     		ldr	r3, [r7, #12]
 10403 00a0 9BB2     		uxth	r3, r3
 10404 00a2 BA68     		ldr	r2, [r7, #8]
 10405 00a4 92B2     		uxth	r2, r2
 10406 00a6 1146     		mov	r1, r2
 10407 00a8 1846     		mov	r0, r3
 10408 00aa FFF7FEFF 		bl	LCD_DrawPoint
2590:hardware/src/lcd.c **** 		xerr+=delta_x ; 
 10409              		.loc 1 2590 7
 10410 00ae BA6A     		ldr	r2, [r7, #40]
 10411 00b0 3B6A     		ldr	r3, [r7, #32]
 10412 00b2 1344     		add	r3, r3, r2
 10413 00b4 BB62     		str	r3, [r7, #40]
2591:hardware/src/lcd.c **** 		yerr+=delta_y ; 
 10414              		.loc 1 2591 7
 10415 00b6 7A6A     		ldr	r2, [r7, #36]
 10416 00b8 FB69     		ldr	r3, [r7, #28]
 10417 00ba 1344     		add	r3, r3, r2
 10418 00bc 7B62     		str	r3, [r7, #36]
2592:hardware/src/lcd.c **** 		if(xerr>distance) 
 10419              		.loc 1 2592 5
 10420 00be BA6A     		ldr	r2, [r7, #40]
 10421 00c0 BB69     		ldr	r3, [r7, #24]
 10422 00c2 9A42     		cmp	r2, r3
 10423 00c4 07DD     		ble	.L242
2593:hardware/src/lcd.c **** 		{ 
2594:hardware/src/lcd.c **** 			xerr-=distance; 
 10424              		.loc 1 2594 8
 10425 00c6 BA6A     		ldr	r2, [r7, #40]
 10426 00c8 BB69     		ldr	r3, [r7, #24]
 10427 00ca D31A     		subs	r3, r2, r3
 10428 00cc BB62     		str	r3, [r7, #40]
2595:hardware/src/lcd.c **** 			uRow+=incx; 
 10429              		.loc 1 2595 8
 10430 00ce FA68     		ldr	r2, [r7, #12]
 10431 00d0 7B69     		ldr	r3, [r7, #20]
 10432 00d2 1344     		add	r3, r3, r2
 10433 00d4 FB60     		str	r3, [r7, #12]
 10434              	.L242:
2596:hardware/src/lcd.c **** 		} 
2597:hardware/src/lcd.c **** 		if(yerr>distance) 
 10435              		.loc 1 2597 5
 10436 00d6 7A6A     		ldr	r2, [r7, #36]
ARM GAS  /tmp/ccRHtd69.s 			page 239


 10437 00d8 BB69     		ldr	r3, [r7, #24]
 10438 00da 9A42     		cmp	r2, r3
 10439 00dc 07DD     		ble	.L243
2598:hardware/src/lcd.c **** 		{ 
2599:hardware/src/lcd.c **** 			yerr-=distance; 
 10440              		.loc 1 2599 8
 10441 00de 7A6A     		ldr	r2, [r7, #36]
 10442 00e0 BB69     		ldr	r3, [r7, #24]
 10443 00e2 D31A     		subs	r3, r2, r3
 10444 00e4 7B62     		str	r3, [r7, #36]
2600:hardware/src/lcd.c **** 			uCol+=incy; 
 10445              		.loc 1 2600 8
 10446 00e6 BA68     		ldr	r2, [r7, #8]
 10447 00e8 3B69     		ldr	r3, [r7, #16]
 10448 00ea 1344     		add	r3, r3, r2
 10449 00ec BB60     		str	r3, [r7, #8]
 10450              	.L243:
2587:hardware/src/lcd.c **** 	{  
 10451              		.loc 1 2587 25 discriminator 2
 10452 00ee FB8D     		ldrh	r3, [r7, #46]
 10453 00f0 0133     		adds	r3, r3, #1
 10454 00f2 FB85     		strh	r3, [r7, #46]	@ movhi
 10455              	.L241:
2587:hardware/src/lcd.c **** 	{  
 10456              		.loc 1 2587 11 discriminator 1
 10457 00f4 FA8D     		ldrh	r2, [r7, #46]
2587:hardware/src/lcd.c **** 	{  
 10458              		.loc 1 2587 21 discriminator 1
 10459 00f6 BB69     		ldr	r3, [r7, #24]
 10460 00f8 0133     		adds	r3, r3, #1
2587:hardware/src/lcd.c **** 	{  
 10461              		.loc 1 2587 2 discriminator 1
 10462 00fa 9A42     		cmp	r2, r3
 10463 00fc CFDD     		ble	.L244
2601:hardware/src/lcd.c **** 		} 
2602:hardware/src/lcd.c **** 	}  
2603:hardware/src/lcd.c **** }    
 10464              		.loc 1 2603 1
 10465 00fe 00BF     		nop
 10466 0100 00BF     		nop
 10467 0102 3437     		adds	r7, r7, #52
 10468              	.LCFI111:
 10469              		.cfi_def_cfa_offset 12
 10470 0104 BD46     		mov	sp, r7
 10471              	.LCFI112:
 10472              		.cfi_def_cfa_register 13
 10473              		@ sp needed
 10474 0106 90BD     		pop	{r4, r7, pc}
 10475              		.cfi_endproc
 10476              	.LFE88:
 10478              		.section	.text.LCD_DrawRectangle,"ax",%progbits
 10479              		.align	1
 10480              		.global	LCD_DrawRectangle
 10481              		.syntax unified
 10482              		.thumb
 10483              		.thumb_func
 10484              		.fpu softvfp
ARM GAS  /tmp/ccRHtd69.s 			page 240


 10486              	LCD_DrawRectangle:
 10487              	.LFB89:
2604:hardware/src/lcd.c **** //画矩形	  
2605:hardware/src/lcd.c **** //(x1,y1),(x2,y2):矩形的对角坐标
2606:hardware/src/lcd.c **** void LCD_DrawRectangle(u16 x1, u16 y1, u16 x2, u16 y2)
2607:hardware/src/lcd.c **** {
 10488              		.loc 1 2607 1
 10489              		.cfi_startproc
 10490              		@ args = 0, pretend = 0, frame = 8
 10491              		@ frame_needed = 1, uses_anonymous_args = 0
 10492 0000 90B5     		push	{r4, r7, lr}
 10493              	.LCFI113:
 10494              		.cfi_def_cfa_offset 12
 10495              		.cfi_offset 4, -12
 10496              		.cfi_offset 7, -8
 10497              		.cfi_offset 14, -4
 10498 0002 83B0     		sub	sp, sp, #12
 10499              	.LCFI114:
 10500              		.cfi_def_cfa_offset 24
 10501 0004 00AF     		add	r7, sp, #0
 10502              	.LCFI115:
 10503              		.cfi_def_cfa_register 7
 10504 0006 0446     		mov	r4, r0
 10505 0008 0846     		mov	r0, r1
 10506 000a 1146     		mov	r1, r2
 10507 000c 1A46     		mov	r2, r3
 10508 000e 2346     		mov	r3, r4	@ movhi
 10509 0010 FB80     		strh	r3, [r7, #6]	@ movhi
 10510 0012 0346     		mov	r3, r0	@ movhi
 10511 0014 BB80     		strh	r3, [r7, #4]	@ movhi
 10512 0016 0B46     		mov	r3, r1	@ movhi
 10513 0018 7B80     		strh	r3, [r7, #2]	@ movhi
 10514 001a 1346     		mov	r3, r2	@ movhi
 10515 001c 3B80     		strh	r3, [r7]	@ movhi
2608:hardware/src/lcd.c **** 	LCD_DrawLine(x1,y1,x2,y1);
 10516              		.loc 1 2608 2
 10517 001e BB88     		ldrh	r3, [r7, #4]
 10518 0020 7A88     		ldrh	r2, [r7, #2]
 10519 0022 B988     		ldrh	r1, [r7, #4]
 10520 0024 F888     		ldrh	r0, [r7, #6]
 10521 0026 FFF7FEFF 		bl	LCD_DrawLine
2609:hardware/src/lcd.c **** 	LCD_DrawLine(x1,y1,x1,y2);
 10522              		.loc 1 2609 2
 10523 002a 3B88     		ldrh	r3, [r7]
 10524 002c FA88     		ldrh	r2, [r7, #6]
 10525 002e B988     		ldrh	r1, [r7, #4]
 10526 0030 F888     		ldrh	r0, [r7, #6]
 10527 0032 FFF7FEFF 		bl	LCD_DrawLine
2610:hardware/src/lcd.c **** 	LCD_DrawLine(x1,y2,x2,y2);
 10528              		.loc 1 2610 2
 10529 0036 3B88     		ldrh	r3, [r7]
 10530 0038 7A88     		ldrh	r2, [r7, #2]
 10531 003a 3988     		ldrh	r1, [r7]
 10532 003c F888     		ldrh	r0, [r7, #6]
 10533 003e FFF7FEFF 		bl	LCD_DrawLine
2611:hardware/src/lcd.c **** 	LCD_DrawLine(x2,y1,x2,y2);
 10534              		.loc 1 2611 2
ARM GAS  /tmp/ccRHtd69.s 			page 241


 10535 0042 3B88     		ldrh	r3, [r7]
 10536 0044 7A88     		ldrh	r2, [r7, #2]
 10537 0046 B988     		ldrh	r1, [r7, #4]
 10538 0048 7888     		ldrh	r0, [r7, #2]
 10539 004a FFF7FEFF 		bl	LCD_DrawLine
2612:hardware/src/lcd.c **** }
 10540              		.loc 1 2612 1
 10541 004e 00BF     		nop
 10542 0050 0C37     		adds	r7, r7, #12
 10543              	.LCFI116:
 10544              		.cfi_def_cfa_offset 12
 10545 0052 BD46     		mov	sp, r7
 10546              	.LCFI117:
 10547              		.cfi_def_cfa_register 13
 10548              		@ sp needed
 10549 0054 90BD     		pop	{r4, r7, pc}
 10550              		.cfi_endproc
 10551              	.LFE89:
 10553              		.section	.text.Draw_Circle,"ax",%progbits
 10554              		.align	1
 10555              		.global	Draw_Circle
 10556              		.syntax unified
 10557              		.thumb
 10558              		.thumb_func
 10559              		.fpu softvfp
 10561              	Draw_Circle:
 10562              	.LFB90:
2613:hardware/src/lcd.c **** //在指定位置画一个指定大小的圆
2614:hardware/src/lcd.c **** //(x,y):中心点
2615:hardware/src/lcd.c **** //r    :半径
2616:hardware/src/lcd.c **** void Draw_Circle(u16 x0,u16 y0,u8 r)
2617:hardware/src/lcd.c **** {
 10563              		.loc 1 2617 1
 10564              		.cfi_startproc
 10565              		@ args = 0, pretend = 0, frame = 24
 10566              		@ frame_needed = 1, uses_anonymous_args = 0
 10567 0000 80B5     		push	{r7, lr}
 10568              	.LCFI118:
 10569              		.cfi_def_cfa_offset 8
 10570              		.cfi_offset 7, -8
 10571              		.cfi_offset 14, -4
 10572 0002 86B0     		sub	sp, sp, #24
 10573              	.LCFI119:
 10574              		.cfi_def_cfa_offset 32
 10575 0004 00AF     		add	r7, sp, #0
 10576              	.LCFI120:
 10577              		.cfi_def_cfa_register 7
 10578 0006 0346     		mov	r3, r0
 10579 0008 FB80     		strh	r3, [r7, #6]	@ movhi
 10580 000a 0B46     		mov	r3, r1	@ movhi
 10581 000c BB80     		strh	r3, [r7, #4]	@ movhi
 10582 000e 1346     		mov	r3, r2
 10583 0010 FB70     		strb	r3, [r7, #3]
2618:hardware/src/lcd.c **** 	int a,b;
2619:hardware/src/lcd.c **** 	int di;
2620:hardware/src/lcd.c **** 	a=0;b=r;	  
 10584              		.loc 1 2620 3
ARM GAS  /tmp/ccRHtd69.s 			page 242


 10585 0012 0023     		movs	r3, #0
 10586 0014 7B61     		str	r3, [r7, #20]
 10587              		.loc 1 2620 7
 10588 0016 FB78     		ldrb	r3, [r7, #3]	@ zero_extendqisi2
 10589 0018 3B61     		str	r3, [r7, #16]
2621:hardware/src/lcd.c **** 	di=3-(r<<1);             //判断下个点位置的标志
 10590              		.loc 1 2621 9
 10591 001a FB78     		ldrb	r3, [r7, #3]	@ zero_extendqisi2
 10592 001c 5B00     		lsls	r3, r3, #1
 10593              		.loc 1 2621 4
 10594 001e C3F10303 		rsb	r3, r3, #3
 10595 0022 FB60     		str	r3, [r7, #12]
2622:hardware/src/lcd.c **** 	while(a<=b)
 10596              		.loc 1 2622 7
 10597 0024 7FE0     		b	.L247
 10598              	.L249:
2623:hardware/src/lcd.c **** 	{
2624:hardware/src/lcd.c **** 		LCD_DrawPoint(x0+a,y0-b);             //5
 10599              		.loc 1 2624 3
 10600 0026 7B69     		ldr	r3, [r7, #20]
 10601 0028 9AB2     		uxth	r2, r3
 10602 002a FB88     		ldrh	r3, [r7, #6]	@ movhi
 10603 002c 1344     		add	r3, r3, r2
 10604 002e 98B2     		uxth	r0, r3
 10605 0030 3B69     		ldr	r3, [r7, #16]
 10606 0032 9BB2     		uxth	r3, r3
 10607 0034 BA88     		ldrh	r2, [r7, #4]	@ movhi
 10608 0036 D31A     		subs	r3, r2, r3
 10609 0038 9BB2     		uxth	r3, r3
 10610 003a 1946     		mov	r1, r3
 10611 003c FFF7FEFF 		bl	LCD_DrawPoint
2625:hardware/src/lcd.c ****  		LCD_DrawPoint(x0+b,y0-a);             //0           
 10612              		.loc 1 2625 4
 10613 0040 3B69     		ldr	r3, [r7, #16]
 10614 0042 9AB2     		uxth	r2, r3
 10615 0044 FB88     		ldrh	r3, [r7, #6]	@ movhi
 10616 0046 1344     		add	r3, r3, r2
 10617 0048 98B2     		uxth	r0, r3
 10618 004a 7B69     		ldr	r3, [r7, #20]
 10619 004c 9BB2     		uxth	r3, r3
 10620 004e BA88     		ldrh	r2, [r7, #4]	@ movhi
 10621 0050 D31A     		subs	r3, r2, r3
 10622 0052 9BB2     		uxth	r3, r3
 10623 0054 1946     		mov	r1, r3
 10624 0056 FFF7FEFF 		bl	LCD_DrawPoint
2626:hardware/src/lcd.c **** 		LCD_DrawPoint(x0+b,y0+a);             //4               
 10625              		.loc 1 2626 3
 10626 005a 3B69     		ldr	r3, [r7, #16]
 10627 005c 9AB2     		uxth	r2, r3
 10628 005e FB88     		ldrh	r3, [r7, #6]	@ movhi
 10629 0060 1344     		add	r3, r3, r2
 10630 0062 98B2     		uxth	r0, r3
 10631 0064 7B69     		ldr	r3, [r7, #20]
 10632 0066 9AB2     		uxth	r2, r3
 10633 0068 BB88     		ldrh	r3, [r7, #4]	@ movhi
 10634 006a 1344     		add	r3, r3, r2
 10635 006c 9BB2     		uxth	r3, r3
ARM GAS  /tmp/ccRHtd69.s 			page 243


 10636 006e 1946     		mov	r1, r3
 10637 0070 FFF7FEFF 		bl	LCD_DrawPoint
2627:hardware/src/lcd.c **** 		LCD_DrawPoint(x0+a,y0+b);             //6 
 10638              		.loc 1 2627 3
 10639 0074 7B69     		ldr	r3, [r7, #20]
 10640 0076 9AB2     		uxth	r2, r3
 10641 0078 FB88     		ldrh	r3, [r7, #6]	@ movhi
 10642 007a 1344     		add	r3, r3, r2
 10643 007c 98B2     		uxth	r0, r3
 10644 007e 3B69     		ldr	r3, [r7, #16]
 10645 0080 9AB2     		uxth	r2, r3
 10646 0082 BB88     		ldrh	r3, [r7, #4]	@ movhi
 10647 0084 1344     		add	r3, r3, r2
 10648 0086 9BB2     		uxth	r3, r3
 10649 0088 1946     		mov	r1, r3
 10650 008a FFF7FEFF 		bl	LCD_DrawPoint
2628:hardware/src/lcd.c **** 		LCD_DrawPoint(x0-a,y0+b);             //1       
 10651              		.loc 1 2628 3
 10652 008e 7B69     		ldr	r3, [r7, #20]
 10653 0090 9BB2     		uxth	r3, r3
 10654 0092 FA88     		ldrh	r2, [r7, #6]	@ movhi
 10655 0094 D31A     		subs	r3, r2, r3
 10656 0096 98B2     		uxth	r0, r3
 10657 0098 3B69     		ldr	r3, [r7, #16]
 10658 009a 9AB2     		uxth	r2, r3
 10659 009c BB88     		ldrh	r3, [r7, #4]	@ movhi
 10660 009e 1344     		add	r3, r3, r2
 10661 00a0 9BB2     		uxth	r3, r3
 10662 00a2 1946     		mov	r1, r3
 10663 00a4 FFF7FEFF 		bl	LCD_DrawPoint
2629:hardware/src/lcd.c ****  		LCD_DrawPoint(x0-b,y0+a);             
 10664              		.loc 1 2629 4
 10665 00a8 3B69     		ldr	r3, [r7, #16]
 10666 00aa 9BB2     		uxth	r3, r3
 10667 00ac FA88     		ldrh	r2, [r7, #6]	@ movhi
 10668 00ae D31A     		subs	r3, r2, r3
 10669 00b0 98B2     		uxth	r0, r3
 10670 00b2 7B69     		ldr	r3, [r7, #20]
 10671 00b4 9AB2     		uxth	r2, r3
 10672 00b6 BB88     		ldrh	r3, [r7, #4]	@ movhi
 10673 00b8 1344     		add	r3, r3, r2
 10674 00ba 9BB2     		uxth	r3, r3
 10675 00bc 1946     		mov	r1, r3
 10676 00be FFF7FEFF 		bl	LCD_DrawPoint
2630:hardware/src/lcd.c **** 		LCD_DrawPoint(x0-a,y0-b);             //2             
 10677              		.loc 1 2630 3
 10678 00c2 7B69     		ldr	r3, [r7, #20]
 10679 00c4 9BB2     		uxth	r3, r3
 10680 00c6 FA88     		ldrh	r2, [r7, #6]	@ movhi
 10681 00c8 D31A     		subs	r3, r2, r3
 10682 00ca 98B2     		uxth	r0, r3
 10683 00cc 3B69     		ldr	r3, [r7, #16]
 10684 00ce 9BB2     		uxth	r3, r3
 10685 00d0 BA88     		ldrh	r2, [r7, #4]	@ movhi
 10686 00d2 D31A     		subs	r3, r2, r3
 10687 00d4 9BB2     		uxth	r3, r3
 10688 00d6 1946     		mov	r1, r3
ARM GAS  /tmp/ccRHtd69.s 			page 244


 10689 00d8 FFF7FEFF 		bl	LCD_DrawPoint
2631:hardware/src/lcd.c ****   		LCD_DrawPoint(x0-b,y0-a);             //7     	         
 10690              		.loc 1 2631 5
 10691 00dc 3B69     		ldr	r3, [r7, #16]
 10692 00de 9BB2     		uxth	r3, r3
 10693 00e0 FA88     		ldrh	r2, [r7, #6]	@ movhi
 10694 00e2 D31A     		subs	r3, r2, r3
 10695 00e4 98B2     		uxth	r0, r3
 10696 00e6 7B69     		ldr	r3, [r7, #20]
 10697 00e8 9BB2     		uxth	r3, r3
 10698 00ea BA88     		ldrh	r2, [r7, #4]	@ movhi
 10699 00ec D31A     		subs	r3, r2, r3
 10700 00ee 9BB2     		uxth	r3, r3
 10701 00f0 1946     		mov	r1, r3
 10702 00f2 FFF7FEFF 		bl	LCD_DrawPoint
2632:hardware/src/lcd.c **** 		a++;
 10703              		.loc 1 2632 4
 10704 00f6 7B69     		ldr	r3, [r7, #20]
 10705 00f8 0133     		adds	r3, r3, #1
 10706 00fa 7B61     		str	r3, [r7, #20]
2633:hardware/src/lcd.c **** 		//使用Bresenham算法画圆     
2634:hardware/src/lcd.c **** 		if(di<0)di +=4*a+6;	  
 10707              		.loc 1 2634 5
 10708 00fc FB68     		ldr	r3, [r7, #12]
 10709 00fe 002B     		cmp	r3, #0
 10710 0100 06DA     		bge	.L248
 10711              		.loc 1 2634 17 discriminator 1
 10712 0102 7B69     		ldr	r3, [r7, #20]
 10713 0104 9B00     		lsls	r3, r3, #2
 10714              		.loc 1 2634 19 discriminator 1
 10715 0106 0633     		adds	r3, r3, #6
 10716              		.loc 1 2634 14 discriminator 1
 10717 0108 FA68     		ldr	r2, [r7, #12]
 10718 010a 1344     		add	r3, r3, r2
 10719 010c FB60     		str	r3, [r7, #12]
 10720 010e 0AE0     		b	.L247
 10721              	.L248:
2635:hardware/src/lcd.c **** 		else
2636:hardware/src/lcd.c **** 		{
2637:hardware/src/lcd.c **** 			di+=10+4*(a-b);   
 10722              		.loc 1 2637 15
 10723 0110 7A69     		ldr	r2, [r7, #20]
 10724 0112 3B69     		ldr	r3, [r7, #16]
 10725 0114 D31A     		subs	r3, r2, r3
 10726              		.loc 1 2637 12
 10727 0116 9B00     		lsls	r3, r3, #2
 10728              		.loc 1 2637 10
 10729 0118 0A33     		adds	r3, r3, #10
 10730              		.loc 1 2637 6
 10731 011a FA68     		ldr	r2, [r7, #12]
 10732 011c 1344     		add	r3, r3, r2
 10733 011e FB60     		str	r3, [r7, #12]
2638:hardware/src/lcd.c **** 			b--;
 10734              		.loc 1 2638 5
 10735 0120 3B69     		ldr	r3, [r7, #16]
 10736 0122 013B     		subs	r3, r3, #1
 10737 0124 3B61     		str	r3, [r7, #16]
ARM GAS  /tmp/ccRHtd69.s 			page 245


 10738              	.L247:
2622:hardware/src/lcd.c **** 	{
 10739              		.loc 1 2622 7
 10740 0126 7A69     		ldr	r2, [r7, #20]
 10741 0128 3B69     		ldr	r3, [r7, #16]
 10742 012a 9A42     		cmp	r2, r3
 10743 012c 7FF77BAF 		ble	.L249
2639:hardware/src/lcd.c **** 		} 						    
2640:hardware/src/lcd.c **** 	}
2641:hardware/src/lcd.c **** } 									  
 10744              		.loc 1 2641 1
 10745 0130 00BF     		nop
 10746 0132 00BF     		nop
 10747 0134 1837     		adds	r7, r7, #24
 10748              	.LCFI121:
 10749              		.cfi_def_cfa_offset 8
 10750 0136 BD46     		mov	sp, r7
 10751              	.LCFI122:
 10752              		.cfi_def_cfa_register 13
 10753              		@ sp needed
 10754 0138 80BD     		pop	{r7, pc}
 10755              		.cfi_endproc
 10756              	.LFE90:
 10758              		.section	.text.LCD_ShowChar,"ax",%progbits
 10759              		.align	1
 10760              		.global	LCD_ShowChar
 10761              		.syntax unified
 10762              		.thumb
 10763              		.thumb_func
 10764              		.fpu softvfp
 10766              	LCD_ShowChar:
 10767              	.LFB91:
2642:hardware/src/lcd.c **** //在指定位置显示一个字符
2643:hardware/src/lcd.c **** //x,y:起始坐标
2644:hardware/src/lcd.c **** //num:要显示的字符:" "--->"~"
2645:hardware/src/lcd.c **** //size:字体大小 12/16
2646:hardware/src/lcd.c **** //mode:叠加方式(1)还是非叠加方式(0)
2647:hardware/src/lcd.c **** void LCD_ShowChar(u16 x,u16 y,u8 num,u8 size,u8 mode)
2648:hardware/src/lcd.c **** {  							  
 10768              		.loc 1 2648 1
 10769              		.cfi_startproc
 10770              		@ args = 4, pretend = 0, frame = 16
 10771              		@ frame_needed = 1, uses_anonymous_args = 0
 10772 0000 90B5     		push	{r4, r7, lr}
 10773              	.LCFI123:
 10774              		.cfi_def_cfa_offset 12
 10775              		.cfi_offset 4, -12
 10776              		.cfi_offset 7, -8
 10777              		.cfi_offset 14, -4
 10778 0002 85B0     		sub	sp, sp, #20
 10779              	.LCFI124:
 10780              		.cfi_def_cfa_offset 32
 10781 0004 00AF     		add	r7, sp, #0
 10782              	.LCFI125:
 10783              		.cfi_def_cfa_register 7
 10784 0006 0446     		mov	r4, r0
 10785 0008 0846     		mov	r0, r1
ARM GAS  /tmp/ccRHtd69.s 			page 246


 10786 000a 1146     		mov	r1, r2
 10787 000c 1A46     		mov	r2, r3
 10788 000e 2346     		mov	r3, r4	@ movhi
 10789 0010 FB80     		strh	r3, [r7, #6]	@ movhi
 10790 0012 0346     		mov	r3, r0	@ movhi
 10791 0014 BB80     		strh	r3, [r7, #4]	@ movhi
 10792 0016 0B46     		mov	r3, r1
 10793 0018 FB70     		strb	r3, [r7, #3]
 10794 001a 1346     		mov	r3, r2
 10795 001c BB70     		strb	r3, [r7, #2]
2649:hardware/src/lcd.c ****     u8 temp,t1,t;
2650:hardware/src/lcd.c **** 	u16 y0=y;
 10796              		.loc 1 2650 6
 10797 001e BB88     		ldrh	r3, [r7, #4]	@ movhi
 10798 0020 7B81     		strh	r3, [r7, #10]	@ movhi
2651:hardware/src/lcd.c **** 	u16 colortemp=POINT_COLOR;      			     
 10799              		.loc 1 2651 6
 10800 0022 654B     		ldr	r3, .L279
 10801 0024 1B88     		ldrh	r3, [r3]	@ movhi
 10802 0026 3B81     		strh	r3, [r7, #8]	@ movhi
2652:hardware/src/lcd.c **** 	//设置窗口		   
2653:hardware/src/lcd.c **** 	num=num-' ';//得到偏移后的值
 10803              		.loc 1 2653 5
 10804 0028 FB78     		ldrb	r3, [r7, #3]
 10805 002a 203B     		subs	r3, r3, #32
 10806 002c FB70     		strb	r3, [r7, #3]
2654:hardware/src/lcd.c **** 	if(!mode) //非叠加方式
 10807              		.loc 1 2654 4
 10808 002e 97F82030 		ldrb	r3, [r7, #32]	@ zero_extendqisi2
 10809 0032 002B     		cmp	r3, #0
 10810 0034 61D1     		bne	.L251
2655:hardware/src/lcd.c **** 	{
2656:hardware/src/lcd.c **** 	    for(t=0;t<size;t++)
 10811              		.loc 1 2656 11
 10812 0036 0023     		movs	r3, #0
 10813 0038 7B73     		strb	r3, [r7, #13]
 10814              		.loc 1 2656 6
 10815 003a 59E0     		b	.L252
 10816              	.L264:
2657:hardware/src/lcd.c **** 	    {   
2658:hardware/src/lcd.c **** 			if(size==12)temp=asc2_1206[num][t];  //调用1206字体
 10817              		.loc 1 2658 6
 10818 003c BB78     		ldrb	r3, [r7, #2]	@ zero_extendqisi2
 10819 003e 0C2B     		cmp	r3, #12
 10820 0040 0BD1     		bne	.L253
 10821              		.loc 1 2658 35 discriminator 1
 10822 0042 FA78     		ldrb	r2, [r7, #3]	@ zero_extendqisi2
 10823 0044 797B     		ldrb	r1, [r7, #13]	@ zero_extendqisi2
 10824              		.loc 1 2658 20 discriminator 1
 10825 0046 5D48     		ldr	r0, .L279+4
 10826 0048 1346     		mov	r3, r2
 10827 004a 5B00     		lsls	r3, r3, #1
 10828 004c 1344     		add	r3, r3, r2
 10829 004e 9B00     		lsls	r3, r3, #2
 10830 0050 0344     		add	r3, r3, r0
 10831 0052 0B44     		add	r3, r3, r1
 10832 0054 1B78     		ldrb	r3, [r3]
ARM GAS  /tmp/ccRHtd69.s 			page 247


 10833 0056 FB73     		strb	r3, [r7, #15]
 10834 0058 07E0     		b	.L254
 10835              	.L253:
2659:hardware/src/lcd.c **** 			else temp=asc2_1608[num][t];		 //调用1608字体 	                          
 10836              		.loc 1 2659 28
 10837 005a FA78     		ldrb	r2, [r7, #3]	@ zero_extendqisi2
 10838 005c 7B7B     		ldrb	r3, [r7, #13]	@ zero_extendqisi2
 10839              		.loc 1 2659 13
 10840 005e 5849     		ldr	r1, .L279+8
 10841 0060 1201     		lsls	r2, r2, #4
 10842 0062 0A44     		add	r2, r2, r1
 10843 0064 1344     		add	r3, r3, r2
 10844 0066 1B78     		ldrb	r3, [r3]
 10845 0068 FB73     		strb	r3, [r7, #15]
 10846              	.L254:
2660:hardware/src/lcd.c **** 	        for(t1=0;t1<8;t1++)
 10847              		.loc 1 2660 16
 10848 006a 0023     		movs	r3, #0
 10849 006c BB73     		strb	r3, [r7, #14]
 10850              		.loc 1 2660 10
 10851 006e 37E0     		b	.L255
 10852              	.L263:
2661:hardware/src/lcd.c **** 			{			    
2662:hardware/src/lcd.c **** 		        if(temp&0x80)POINT_COLOR=colortemp;
 10853              		.loc 1 2662 14
 10854 0070 97F90F30 		ldrsb	r3, [r7, #15]
 10855              		.loc 1 2662 13
 10856 0074 002B     		cmp	r3, #0
 10857 0076 03DA     		bge	.L256
 10858              		.loc 1 2662 35 discriminator 1
 10859 0078 4F4A     		ldr	r2, .L279
 10860 007a 3B89     		ldrh	r3, [r7, #8]	@ movhi
 10861 007c 1380     		strh	r3, [r2]	@ movhi
 10862 007e 03E0     		b	.L257
 10863              	.L256:
2663:hardware/src/lcd.c **** 				else POINT_COLOR=BACK_COLOR;
 10864              		.loc 1 2663 21
 10865 0080 504B     		ldr	r3, .L279+12
 10866 0082 1A88     		ldrh	r2, [r3]
 10867 0084 4C4B     		ldr	r3, .L279
 10868 0086 1A80     		strh	r2, [r3]	@ movhi
 10869              	.L257:
2664:hardware/src/lcd.c **** 				LCD_DrawPoint(x,y);	
 10870              		.loc 1 2664 5
 10871 0088 BA88     		ldrh	r2, [r7, #4]
 10872 008a FB88     		ldrh	r3, [r7, #6]
 10873 008c 1146     		mov	r1, r2
 10874 008e 1846     		mov	r0, r3
 10875 0090 FFF7FEFF 		bl	LCD_DrawPoint
2665:hardware/src/lcd.c **** 				temp<<=1;
 10876              		.loc 1 2665 9
 10877 0094 FB7B     		ldrb	r3, [r7, #15]
 10878 0096 5B00     		lsls	r3, r3, #1
 10879 0098 FB73     		strb	r3, [r7, #15]
2666:hardware/src/lcd.c **** 				y++;
 10880              		.loc 1 2666 6
 10881 009a BB88     		ldrh	r3, [r7, #4]
ARM GAS  /tmp/ccRHtd69.s 			page 248


 10882 009c 0133     		adds	r3, r3, #1
 10883 009e BB80     		strh	r3, [r7, #4]	@ movhi
2667:hardware/src/lcd.c **** 				if(x>=lcddev.width){POINT_COLOR=colortemp;return;}//超区域了
 10884              		.loc 1 2667 17
 10885 00a0 494B     		ldr	r3, .L279+16
 10886 00a2 1B88     		ldrh	r3, [r3]
 10887              		.loc 1 2667 7
 10888 00a4 FA88     		ldrh	r2, [r7, #6]
 10889 00a6 9A42     		cmp	r2, r3
 10890 00a8 03D3     		bcc	.L258
 10891              		.loc 1 2667 36 discriminator 1
 10892 00aa 434A     		ldr	r2, .L279
 10893 00ac 3B89     		ldrh	r3, [r7, #8]	@ movhi
 10894 00ae 1380     		strh	r3, [r2]	@ movhi
 10895              		.loc 1 2667 47 discriminator 1
 10896 00b0 7FE0     		b	.L250
 10897              	.L258:
2668:hardware/src/lcd.c **** 				if((y-y0)==size)
 10898              		.loc 1 2668 10
 10899 00b2 BA88     		ldrh	r2, [r7, #4]
 10900 00b4 7B89     		ldrh	r3, [r7, #10]
 10901 00b6 D21A     		subs	r2, r2, r3
 10902              		.loc 1 2668 14
 10903 00b8 BB78     		ldrb	r3, [r7, #2]	@ zero_extendqisi2
 10904              		.loc 1 2668 7
 10905 00ba 9A42     		cmp	r2, r3
 10906 00bc 0DD1     		bne	.L260
2669:hardware/src/lcd.c **** 				{
2670:hardware/src/lcd.c **** 					y=y0;
 10907              		.loc 1 2670 7
 10908 00be 7B89     		ldrh	r3, [r7, #10]	@ movhi
 10909 00c0 BB80     		strh	r3, [r7, #4]	@ movhi
2671:hardware/src/lcd.c **** 					x++;
 10910              		.loc 1 2671 7
 10911 00c2 FB88     		ldrh	r3, [r7, #6]
 10912 00c4 0133     		adds	r3, r3, #1
 10913 00c6 FB80     		strh	r3, [r7, #6]	@ movhi
2672:hardware/src/lcd.c **** 					if(x>=lcddev.width){POINT_COLOR=colortemp;return;}//超区域了
 10914              		.loc 1 2672 18
 10915 00c8 3F4B     		ldr	r3, .L279+16
 10916 00ca 1B88     		ldrh	r3, [r3]
 10917              		.loc 1 2672 8
 10918 00cc FA88     		ldrh	r2, [r7, #6]
 10919 00ce 9A42     		cmp	r2, r3
 10920 00d0 0AD3     		bcc	.L277
 10921              		.loc 1 2672 37 discriminator 1
 10922 00d2 394A     		ldr	r2, .L279
 10923 00d4 3B89     		ldrh	r3, [r7, #8]	@ movhi
 10924 00d6 1380     		strh	r3, [r2]	@ movhi
 10925              		.loc 1 2672 48 discriminator 1
 10926 00d8 6BE0     		b	.L250
 10927              	.L260:
2660:hardware/src/lcd.c **** 			{			    
 10928              		.loc 1 2660 26 discriminator 2
 10929 00da BB7B     		ldrb	r3, [r7, #14]	@ zero_extendqisi2
 10930 00dc 0133     		adds	r3, r3, #1
 10931 00de BB73     		strb	r3, [r7, #14]
ARM GAS  /tmp/ccRHtd69.s 			page 249


 10932              	.L255:
2660:hardware/src/lcd.c **** 			{			    
 10933              		.loc 1 2660 10 discriminator 1
 10934 00e0 BB7B     		ldrb	r3, [r7, #14]	@ zero_extendqisi2
 10935 00e2 072B     		cmp	r3, #7
 10936 00e4 C4D9     		bls	.L263
 10937 00e6 00E0     		b	.L262
 10938              	.L277:
2673:hardware/src/lcd.c **** 					break;
 10939              		.loc 1 2673 6
 10940 00e8 00BF     		nop
 10941              	.L262:
2656:hardware/src/lcd.c **** 	    {   
 10942              		.loc 1 2656 22 discriminator 2
 10943 00ea 7B7B     		ldrb	r3, [r7, #13]	@ zero_extendqisi2
 10944 00ec 0133     		adds	r3, r3, #1
 10945 00ee 7B73     		strb	r3, [r7, #13]
 10946              	.L252:
2656:hardware/src/lcd.c **** 	    {   
 10947              		.loc 1 2656 6 discriminator 1
 10948 00f0 7A7B     		ldrb	r2, [r7, #13]	@ zero_extendqisi2
 10949 00f2 BB78     		ldrb	r3, [r7, #2]	@ zero_extendqisi2
 10950 00f4 9A42     		cmp	r2, r3
 10951 00f6 A1D3     		bcc	.L264
 10952 00f8 58E0     		b	.L265
 10953              	.L251:
2674:hardware/src/lcd.c **** 				}
2675:hardware/src/lcd.c **** 			}  	 
2676:hardware/src/lcd.c **** 	    }    
2677:hardware/src/lcd.c **** 	}else//叠加方式
2678:hardware/src/lcd.c **** 	{
2679:hardware/src/lcd.c **** 	    for(t=0;t<size;t++)
 10954              		.loc 1 2679 11
 10955 00fa 0023     		movs	r3, #0
 10956 00fc 7B73     		strb	r3, [r7, #13]
 10957              		.loc 1 2679 6
 10958 00fe 51E0     		b	.L266
 10959              	.L276:
2680:hardware/src/lcd.c **** 	    {   
2681:hardware/src/lcd.c **** 			if(size==12)temp=asc2_1206[num][t];  //调用1206字体
 10960              		.loc 1 2681 6
 10961 0100 BB78     		ldrb	r3, [r7, #2]	@ zero_extendqisi2
 10962 0102 0C2B     		cmp	r3, #12
 10963 0104 0BD1     		bne	.L267
 10964              		.loc 1 2681 35 discriminator 1
 10965 0106 FA78     		ldrb	r2, [r7, #3]	@ zero_extendqisi2
 10966 0108 797B     		ldrb	r1, [r7, #13]	@ zero_extendqisi2
 10967              		.loc 1 2681 20 discriminator 1
 10968 010a 2C48     		ldr	r0, .L279+4
 10969 010c 1346     		mov	r3, r2
 10970 010e 5B00     		lsls	r3, r3, #1
 10971 0110 1344     		add	r3, r3, r2
 10972 0112 9B00     		lsls	r3, r3, #2
 10973 0114 0344     		add	r3, r3, r0
 10974 0116 0B44     		add	r3, r3, r1
 10975 0118 1B78     		ldrb	r3, [r3]
 10976 011a FB73     		strb	r3, [r7, #15]
ARM GAS  /tmp/ccRHtd69.s 			page 250


 10977 011c 07E0     		b	.L268
 10978              	.L267:
2682:hardware/src/lcd.c **** 			else temp=asc2_1608[num][t];		 //调用1608字体 	                          
 10979              		.loc 1 2682 28
 10980 011e FA78     		ldrb	r2, [r7, #3]	@ zero_extendqisi2
 10981 0120 7B7B     		ldrb	r3, [r7, #13]	@ zero_extendqisi2
 10982              		.loc 1 2682 13
 10983 0122 2749     		ldr	r1, .L279+8
 10984 0124 1201     		lsls	r2, r2, #4
 10985 0126 0A44     		add	r2, r2, r1
 10986 0128 1344     		add	r3, r3, r2
 10987 012a 1B78     		ldrb	r3, [r3]
 10988 012c FB73     		strb	r3, [r7, #15]
 10989              	.L268:
2683:hardware/src/lcd.c **** 	        for(t1=0;t1<8;t1++)
 10990              		.loc 1 2683 16
 10991 012e 0023     		movs	r3, #0
 10992 0130 BB73     		strb	r3, [r7, #14]
 10993              		.loc 1 2683 10
 10994 0132 2FE0     		b	.L269
 10995              	.L275:
2684:hardware/src/lcd.c **** 			{			    
2685:hardware/src/lcd.c **** 		        if(temp&0x80)LCD_DrawPoint(x,y); 
 10996              		.loc 1 2685 14
 10997 0134 97F90F30 		ldrsb	r3, [r7, #15]
 10998              		.loc 1 2685 13
 10999 0138 002B     		cmp	r3, #0
 11000 013a 05DA     		bge	.L270
 11001              		.loc 1 2685 24 discriminator 1
 11002 013c BA88     		ldrh	r2, [r7, #4]
 11003 013e FB88     		ldrh	r3, [r7, #6]
 11004 0140 1146     		mov	r1, r2
 11005 0142 1846     		mov	r0, r3
 11006 0144 FFF7FEFF 		bl	LCD_DrawPoint
 11007              	.L270:
2686:hardware/src/lcd.c **** 				temp<<=1;
 11008              		.loc 1 2686 9
 11009 0148 FB7B     		ldrb	r3, [r7, #15]
 11010 014a 5B00     		lsls	r3, r3, #1
 11011 014c FB73     		strb	r3, [r7, #15]
2687:hardware/src/lcd.c **** 				y++;
 11012              		.loc 1 2687 6
 11013 014e BB88     		ldrh	r3, [r7, #4]
 11014 0150 0133     		adds	r3, r3, #1
 11015 0152 BB80     		strh	r3, [r7, #4]	@ movhi
2688:hardware/src/lcd.c **** 				if(x>=lcddev.height){POINT_COLOR=colortemp;return;}//超区域了
 11016              		.loc 1 2688 17
 11017 0154 1C4B     		ldr	r3, .L279+16
 11018 0156 5B88     		ldrh	r3, [r3, #2]
 11019              		.loc 1 2688 7
 11020 0158 FA88     		ldrh	r2, [r7, #6]
 11021 015a 9A42     		cmp	r2, r3
 11022 015c 03D3     		bcc	.L271
 11023              		.loc 1 2688 37 discriminator 1
 11024 015e 164A     		ldr	r2, .L279
 11025 0160 3B89     		ldrh	r3, [r7, #8]	@ movhi
 11026 0162 1380     		strh	r3, [r2]	@ movhi
ARM GAS  /tmp/ccRHtd69.s 			page 251


 11027              		.loc 1 2688 48 discriminator 1
 11028 0164 25E0     		b	.L250
 11029              	.L271:
2689:hardware/src/lcd.c **** 				if((y-y0)==size)
 11030              		.loc 1 2689 10
 11031 0166 BA88     		ldrh	r2, [r7, #4]
 11032 0168 7B89     		ldrh	r3, [r7, #10]
 11033 016a D21A     		subs	r2, r2, r3
 11034              		.loc 1 2689 14
 11035 016c BB78     		ldrb	r3, [r7, #2]	@ zero_extendqisi2
 11036              		.loc 1 2689 7
 11037 016e 9A42     		cmp	r2, r3
 11038 0170 0DD1     		bne	.L272
2690:hardware/src/lcd.c **** 				{
2691:hardware/src/lcd.c **** 					y=y0;
 11039              		.loc 1 2691 7
 11040 0172 7B89     		ldrh	r3, [r7, #10]	@ movhi
 11041 0174 BB80     		strh	r3, [r7, #4]	@ movhi
2692:hardware/src/lcd.c **** 					x++;
 11042              		.loc 1 2692 7
 11043 0176 FB88     		ldrh	r3, [r7, #6]
 11044 0178 0133     		adds	r3, r3, #1
 11045 017a FB80     		strh	r3, [r7, #6]	@ movhi
2693:hardware/src/lcd.c **** 					if(x>=lcddev.width){POINT_COLOR=colortemp;return;}//超区域了
 11046              		.loc 1 2693 18
 11047 017c 124B     		ldr	r3, .L279+16
 11048 017e 1B88     		ldrh	r3, [r3]
 11049              		.loc 1 2693 8
 11050 0180 FA88     		ldrh	r2, [r7, #6]
 11051 0182 9A42     		cmp	r2, r3
 11052 0184 0AD3     		bcc	.L278
 11053              		.loc 1 2693 37 discriminator 1
 11054 0186 0C4A     		ldr	r2, .L279
 11055 0188 3B89     		ldrh	r3, [r7, #8]	@ movhi
 11056 018a 1380     		strh	r3, [r2]	@ movhi
 11057              		.loc 1 2693 48 discriminator 1
 11058 018c 11E0     		b	.L250
 11059              	.L272:
2683:hardware/src/lcd.c **** 			{			    
 11060              		.loc 1 2683 26 discriminator 2
 11061 018e BB7B     		ldrb	r3, [r7, #14]	@ zero_extendqisi2
 11062 0190 0133     		adds	r3, r3, #1
 11063 0192 BB73     		strb	r3, [r7, #14]
 11064              	.L269:
2683:hardware/src/lcd.c **** 			{			    
 11065              		.loc 1 2683 10 discriminator 1
 11066 0194 BB7B     		ldrb	r3, [r7, #14]	@ zero_extendqisi2
 11067 0196 072B     		cmp	r3, #7
 11068 0198 CCD9     		bls	.L275
 11069 019a 00E0     		b	.L274
 11070              	.L278:
2694:hardware/src/lcd.c **** 					break;
 11071              		.loc 1 2694 6
 11072 019c 00BF     		nop
 11073              	.L274:
2679:hardware/src/lcd.c **** 	    {   
 11074              		.loc 1 2679 22 discriminator 2
ARM GAS  /tmp/ccRHtd69.s 			page 252


 11075 019e 7B7B     		ldrb	r3, [r7, #13]	@ zero_extendqisi2
 11076 01a0 0133     		adds	r3, r3, #1
 11077 01a2 7B73     		strb	r3, [r7, #13]
 11078              	.L266:
2679:hardware/src/lcd.c **** 	    {   
 11079              		.loc 1 2679 6 discriminator 1
 11080 01a4 7A7B     		ldrb	r2, [r7, #13]	@ zero_extendqisi2
 11081 01a6 BB78     		ldrb	r3, [r7, #2]	@ zero_extendqisi2
 11082 01a8 9A42     		cmp	r2, r3
 11083 01aa A9D3     		bcc	.L276
 11084              	.L265:
2695:hardware/src/lcd.c **** 				}
2696:hardware/src/lcd.c **** 			}  	 
2697:hardware/src/lcd.c **** 	    }     
2698:hardware/src/lcd.c **** 	}
2699:hardware/src/lcd.c **** 	POINT_COLOR=colortemp;	    	   	 	  
 11085              		.loc 1 2699 13
 11086 01ac 024A     		ldr	r2, .L279
 11087 01ae 3B89     		ldrh	r3, [r7, #8]	@ movhi
 11088 01b0 1380     		strh	r3, [r2]	@ movhi
 11089              	.L250:
2700:hardware/src/lcd.c **** }   
 11090              		.loc 1 2700 1
 11091 01b2 1437     		adds	r7, r7, #20
 11092              	.LCFI126:
 11093              		.cfi_def_cfa_offset 12
 11094 01b4 BD46     		mov	sp, r7
 11095              	.LCFI127:
 11096              		.cfi_def_cfa_register 13
 11097              		@ sp needed
 11098 01b6 90BD     		pop	{r4, r7, pc}
 11099              	.L280:
 11100              		.align	2
 11101              	.L279:
 11102 01b8 00000000 		.word	POINT_COLOR
 11103 01bc 00000000 		.word	asc2_1206
 11104 01c0 00000000 		.word	asc2_1608
 11105 01c4 00000000 		.word	BACK_COLOR
 11106 01c8 00000000 		.word	lcddev
 11107              		.cfi_endproc
 11108              	.LFE91:
 11110              		.section	.text.LCD_Pow,"ax",%progbits
 11111              		.align	1
 11112              		.global	LCD_Pow
 11113              		.syntax unified
 11114              		.thumb
 11115              		.thumb_func
 11116              		.fpu softvfp
 11118              	LCD_Pow:
 11119              	.LFB92:
2701:hardware/src/lcd.c **** //m^n函数
2702:hardware/src/lcd.c **** //返回值:m^n次方.
2703:hardware/src/lcd.c **** u32 LCD_Pow(u8 m,u8 n)
2704:hardware/src/lcd.c **** {
 11120              		.loc 1 2704 1
 11121              		.cfi_startproc
 11122              		@ args = 0, pretend = 0, frame = 16
ARM GAS  /tmp/ccRHtd69.s 			page 253


 11123              		@ frame_needed = 1, uses_anonymous_args = 0
 11124              		@ link register save eliminated.
 11125 0000 80B4     		push	{r7}
 11126              	.LCFI128:
 11127              		.cfi_def_cfa_offset 4
 11128              		.cfi_offset 7, -4
 11129 0002 85B0     		sub	sp, sp, #20
 11130              	.LCFI129:
 11131              		.cfi_def_cfa_offset 24
 11132 0004 00AF     		add	r7, sp, #0
 11133              	.LCFI130:
 11134              		.cfi_def_cfa_register 7
 11135 0006 0346     		mov	r3, r0
 11136 0008 0A46     		mov	r2, r1
 11137 000a FB71     		strb	r3, [r7, #7]
 11138 000c 1346     		mov	r3, r2
 11139 000e BB71     		strb	r3, [r7, #6]
2705:hardware/src/lcd.c **** 	u32 result=1;	 
 11140              		.loc 1 2705 6
 11141 0010 0123     		movs	r3, #1
 11142 0012 FB60     		str	r3, [r7, #12]
2706:hardware/src/lcd.c **** 	while(n--)result*=m;    
 11143              		.loc 1 2706 7
 11144 0014 04E0     		b	.L282
 11145              	.L283:
 11146              		.loc 1 2706 18 discriminator 2
 11147 0016 FA79     		ldrb	r2, [r7, #7]	@ zero_extendqisi2
 11148 0018 FB68     		ldr	r3, [r7, #12]
 11149 001a 02FB03F3 		mul	r3, r2, r3
 11150 001e FB60     		str	r3, [r7, #12]
 11151              	.L282:
 11152              		.loc 1 2706 9 discriminator 1
 11153 0020 BB79     		ldrb	r3, [r7, #6]	@ zero_extendqisi2
 11154 0022 5A1E     		subs	r2, r3, #1
 11155 0024 BA71     		strb	r2, [r7, #6]
 11156              		.loc 1 2706 7 discriminator 1
 11157 0026 002B     		cmp	r3, #0
 11158 0028 F5D1     		bne	.L283
2707:hardware/src/lcd.c **** 	return result;
 11159              		.loc 1 2707 9
 11160 002a FB68     		ldr	r3, [r7, #12]
2708:hardware/src/lcd.c **** }			 
 11161              		.loc 1 2708 1
 11162 002c 1846     		mov	r0, r3
 11163 002e 1437     		adds	r7, r7, #20
 11164              	.LCFI131:
 11165              		.cfi_def_cfa_offset 4
 11166 0030 BD46     		mov	sp, r7
 11167              	.LCFI132:
 11168              		.cfi_def_cfa_register 13
 11169              		@ sp needed
 11170 0032 80BC     		pop	{r7}
 11171              	.LCFI133:
 11172              		.cfi_restore 7
 11173              		.cfi_def_cfa_offset 0
 11174 0034 7047     		bx	lr
 11175              		.cfi_endproc
ARM GAS  /tmp/ccRHtd69.s 			page 254


 11176              	.LFE92:
 11178              		.section	.text.LCD_ShowNum,"ax",%progbits
 11179              		.align	1
 11180              		.global	LCD_ShowNum
 11181              		.syntax unified
 11182              		.thumb
 11183              		.thumb_func
 11184              		.fpu softvfp
 11186              	LCD_ShowNum:
 11187              	.LFB93:
2709:hardware/src/lcd.c **** //显示数字,高位为0,则不显示
2710:hardware/src/lcd.c **** //x,y :起点坐标	 
2711:hardware/src/lcd.c **** //len :数字的位数
2712:hardware/src/lcd.c **** //size:字体大小
2713:hardware/src/lcd.c **** //color:颜色 
2714:hardware/src/lcd.c **** //num:数值(0~4294967295);	 
2715:hardware/src/lcd.c **** void LCD_ShowNum(u16 x,u16 y,u32 num,u8 len,u8 size)
2716:hardware/src/lcd.c **** {         	
 11188              		.loc 1 2716 1
 11189              		.cfi_startproc
 11190              		@ args = 4, pretend = 0, frame = 24
 11191              		@ frame_needed = 1, uses_anonymous_args = 0
 11192 0000 90B5     		push	{r4, r7, lr}
 11193              	.LCFI134:
 11194              		.cfi_def_cfa_offset 12
 11195              		.cfi_offset 4, -12
 11196              		.cfi_offset 7, -8
 11197              		.cfi_offset 14, -4
 11198 0002 89B0     		sub	sp, sp, #36
 11199              	.LCFI135:
 11200              		.cfi_def_cfa_offset 48
 11201 0004 02AF     		add	r7, sp, #8
 11202              	.LCFI136:
 11203              		.cfi_def_cfa 7, 40
 11204 0006 BA60     		str	r2, [r7, #8]
 11205 0008 1A46     		mov	r2, r3
 11206 000a 0346     		mov	r3, r0	@ movhi
 11207 000c FB81     		strh	r3, [r7, #14]	@ movhi
 11208 000e 0B46     		mov	r3, r1	@ movhi
 11209 0010 BB81     		strh	r3, [r7, #12]	@ movhi
 11210 0012 1346     		mov	r3, r2
 11211 0014 FB71     		strb	r3, [r7, #7]
2717:hardware/src/lcd.c **** 	u8 t,temp;
2718:hardware/src/lcd.c **** 	u8 enshow=0;						   
 11212              		.loc 1 2718 5
 11213 0016 0023     		movs	r3, #0
 11214 0018 BB75     		strb	r3, [r7, #22]
2719:hardware/src/lcd.c **** 	for(t=0;t<len;t++)
 11215              		.loc 1 2719 7
 11216 001a 0023     		movs	r3, #0
 11217 001c FB75     		strb	r3, [r7, #23]
 11218              		.loc 1 2719 2
 11219 001e 55E0     		b	.L286
 11220              	.L290:
2720:hardware/src/lcd.c **** 	{
2721:hardware/src/lcd.c **** 		temp=(num/LCD_Pow(10,len-t-1))%10;
 11221              		.loc 1 2721 27
ARM GAS  /tmp/ccRHtd69.s 			page 255


 11222 0020 FA79     		ldrb	r2, [r7, #7]
 11223 0022 FB7D     		ldrb	r3, [r7, #23]
 11224 0024 D31A     		subs	r3, r2, r3
 11225 0026 DBB2     		uxtb	r3, r3
 11226              		.loc 1 2721 13
 11227 0028 013B     		subs	r3, r3, #1
 11228 002a DBB2     		uxtb	r3, r3
 11229 002c 1946     		mov	r1, r3
 11230 002e 0A20     		movs	r0, #10
 11231 0030 FFF7FEFF 		bl	LCD_Pow
 11232 0034 0246     		mov	r2, r0
 11233              		.loc 1 2721 12
 11234 0036 BB68     		ldr	r3, [r7, #8]
 11235 0038 B3FBF2F1 		udiv	r1, r3, r2
 11236              		.loc 1 2721 33
 11237 003c 284B     		ldr	r3, .L291
 11238 003e A3FB0123 		umull	r2, r3, r3, r1
 11239 0042 DA08     		lsrs	r2, r3, #3
 11240 0044 1346     		mov	r3, r2
 11241 0046 9B00     		lsls	r3, r3, #2
 11242 0048 1344     		add	r3, r3, r2
 11243 004a 5B00     		lsls	r3, r3, #1
 11244 004c CA1A     		subs	r2, r1, r3
 11245              		.loc 1 2721 7
 11246 004e 1346     		mov	r3, r2
 11247 0050 7B75     		strb	r3, [r7, #21]
2722:hardware/src/lcd.c **** 		if(enshow==0&&t<(len-1))
 11248              		.loc 1 2722 5
 11249 0052 BB7D     		ldrb	r3, [r7, #22]	@ zero_extendqisi2
 11250 0054 002B     		cmp	r3, #0
 11251 0056 1FD1     		bne	.L287
 11252              		.loc 1 2722 18 discriminator 1
 11253 0058 FA7D     		ldrb	r2, [r7, #23]	@ zero_extendqisi2
 11254              		.loc 1 2722 23 discriminator 1
 11255 005a FB79     		ldrb	r3, [r7, #7]	@ zero_extendqisi2
 11256 005c 013B     		subs	r3, r3, #1
 11257              		.loc 1 2722 15 discriminator 1
 11258 005e 9A42     		cmp	r2, r3
 11259 0060 1ADA     		bge	.L287
2723:hardware/src/lcd.c **** 		{
2724:hardware/src/lcd.c **** 			if(temp==0)
 11260              		.loc 1 2724 6
 11261 0062 7B7D     		ldrb	r3, [r7, #21]	@ zero_extendqisi2
 11262 0064 002B     		cmp	r3, #0
 11263 0066 15D1     		bne	.L288
2725:hardware/src/lcd.c **** 			{
2726:hardware/src/lcd.c **** 				LCD_ShowChar(x+(size/2)*t,y,' ',size,0);
 11264              		.loc 1 2726 28
 11265 0068 97F82830 		ldrb	r3, [r7, #40]	@ zero_extendqisi2
 11266 006c 5B08     		lsrs	r3, r3, #1
 11267 006e DBB2     		uxtb	r3, r3
 11268 0070 9BB2     		uxth	r3, r3
 11269 0072 FA7D     		ldrb	r2, [r7, #23]	@ zero_extendqisi2
 11270 0074 92B2     		uxth	r2, r2
 11271 0076 02FB03F3 		mul	r3, r2, r3
 11272 007a 9AB2     		uxth	r2, r3
 11273              		.loc 1 2726 5
ARM GAS  /tmp/ccRHtd69.s 			page 256


 11274 007c FB89     		ldrh	r3, [r7, #14]	@ movhi
 11275 007e 1344     		add	r3, r3, r2
 11276 0080 98B2     		uxth	r0, r3
 11277 0082 97F82830 		ldrb	r3, [r7, #40]	@ zero_extendqisi2
 11278 0086 B989     		ldrh	r1, [r7, #12]
 11279 0088 0022     		movs	r2, #0
 11280 008a 0092     		str	r2, [sp]
 11281 008c 2022     		movs	r2, #32
 11282 008e FFF7FEFF 		bl	LCD_ShowChar
2727:hardware/src/lcd.c **** 				continue;
 11283              		.loc 1 2727 5
 11284 0092 18E0     		b	.L289
 11285              	.L288:
2728:hardware/src/lcd.c **** 			}else enshow=1; 
 11286              		.loc 1 2728 16
 11287 0094 0123     		movs	r3, #1
 11288 0096 BB75     		strb	r3, [r7, #22]
 11289              	.L287:
2729:hardware/src/lcd.c **** 		 	 
2730:hardware/src/lcd.c **** 		}
2731:hardware/src/lcd.c **** 	 	LCD_ShowChar(x+(size/2)*t,y,temp+'0',size,0); 
 11290              		.loc 1 2731 27
 11291 0098 97F82830 		ldrb	r3, [r7, #40]	@ zero_extendqisi2
 11292 009c 5B08     		lsrs	r3, r3, #1
 11293 009e DBB2     		uxtb	r3, r3
 11294 00a0 9BB2     		uxth	r3, r3
 11295 00a2 FA7D     		ldrb	r2, [r7, #23]	@ zero_extendqisi2
 11296 00a4 92B2     		uxth	r2, r2
 11297 00a6 02FB03F3 		mul	r3, r2, r3
 11298 00aa 9AB2     		uxth	r2, r3
 11299              		.loc 1 2731 4
 11300 00ac FB89     		ldrh	r3, [r7, #14]	@ movhi
 11301 00ae 1344     		add	r3, r3, r2
 11302 00b0 98B2     		uxth	r0, r3
 11303 00b2 7B7D     		ldrb	r3, [r7, #21]
 11304 00b4 3033     		adds	r3, r3, #48
 11305 00b6 DAB2     		uxtb	r2, r3
 11306 00b8 97F82830 		ldrb	r3, [r7, #40]	@ zero_extendqisi2
 11307 00bc B989     		ldrh	r1, [r7, #12]
 11308 00be 0024     		movs	r4, #0
 11309 00c0 0094     		str	r4, [sp]
 11310 00c2 FFF7FEFF 		bl	LCD_ShowChar
 11311              	.L289:
2719:hardware/src/lcd.c **** 	{
 11312              		.loc 1 2719 17 discriminator 2
 11313 00c6 FB7D     		ldrb	r3, [r7, #23]	@ zero_extendqisi2
 11314 00c8 0133     		adds	r3, r3, #1
 11315 00ca FB75     		strb	r3, [r7, #23]
 11316              	.L286:
2719:hardware/src/lcd.c **** 	{
 11317              		.loc 1 2719 2 discriminator 1
 11318 00cc FA7D     		ldrb	r2, [r7, #23]	@ zero_extendqisi2
 11319 00ce FB79     		ldrb	r3, [r7, #7]	@ zero_extendqisi2
 11320 00d0 9A42     		cmp	r2, r3
 11321 00d2 A5D3     		bcc	.L290
2732:hardware/src/lcd.c **** 	}
2733:hardware/src/lcd.c **** } 
ARM GAS  /tmp/ccRHtd69.s 			page 257


 11322              		.loc 1 2733 1
 11323 00d4 00BF     		nop
 11324 00d6 00BF     		nop
 11325 00d8 1C37     		adds	r7, r7, #28
 11326              	.LCFI137:
 11327              		.cfi_def_cfa_offset 12
 11328 00da BD46     		mov	sp, r7
 11329              	.LCFI138:
 11330              		.cfi_def_cfa_register 13
 11331              		@ sp needed
 11332 00dc 90BD     		pop	{r4, r7, pc}
 11333              	.L292:
 11334 00de 00BF     		.align	2
 11335              	.L291:
 11336 00e0 CDCCCCCC 		.word	-858993459
 11337              		.cfi_endproc
 11338              	.LFE93:
 11340              		.section	.text.LCD_ShowxNum,"ax",%progbits
 11341              		.align	1
 11342              		.global	LCD_ShowxNum
 11343              		.syntax unified
 11344              		.thumb
 11345              		.thumb_func
 11346              		.fpu softvfp
 11348              	LCD_ShowxNum:
 11349              	.LFB94:
2734:hardware/src/lcd.c **** //显示数字,高位为0,还是显示
2735:hardware/src/lcd.c **** //x,y:起点坐标
2736:hardware/src/lcd.c **** //num:数值(0~999999999);	 
2737:hardware/src/lcd.c **** //len:长度(即要显示的位数)
2738:hardware/src/lcd.c **** //size:字体大小
2739:hardware/src/lcd.c **** //mode:
2740:hardware/src/lcd.c **** //[7]:0,不填充;1,填充0.
2741:hardware/src/lcd.c **** //[6:1]:保留
2742:hardware/src/lcd.c **** //[0]:0,非叠加显示;1,叠加显示.
2743:hardware/src/lcd.c **** void LCD_ShowxNum(u16 x,u16 y,u32 num,u8 len,u8 size,u8 mode)
2744:hardware/src/lcd.c **** {  
 11350              		.loc 1 2744 1
 11351              		.cfi_startproc
 11352              		@ args = 8, pretend = 0, frame = 24
 11353              		@ frame_needed = 1, uses_anonymous_args = 0
 11354 0000 90B5     		push	{r4, r7, lr}
 11355              	.LCFI139:
 11356              		.cfi_def_cfa_offset 12
 11357              		.cfi_offset 4, -12
 11358              		.cfi_offset 7, -8
 11359              		.cfi_offset 14, -4
 11360 0002 89B0     		sub	sp, sp, #36
 11361              	.LCFI140:
 11362              		.cfi_def_cfa_offset 48
 11363 0004 02AF     		add	r7, sp, #8
 11364              	.LCFI141:
 11365              		.cfi_def_cfa 7, 40
 11366 0006 BA60     		str	r2, [r7, #8]
 11367 0008 1A46     		mov	r2, r3
 11368 000a 0346     		mov	r3, r0	@ movhi
 11369 000c FB81     		strh	r3, [r7, #14]	@ movhi
ARM GAS  /tmp/ccRHtd69.s 			page 258


 11370 000e 0B46     		mov	r3, r1	@ movhi
 11371 0010 BB81     		strh	r3, [r7, #12]	@ movhi
 11372 0012 1346     		mov	r3, r2
 11373 0014 FB71     		strb	r3, [r7, #7]
2745:hardware/src/lcd.c **** 	u8 t,temp;
2746:hardware/src/lcd.c **** 	u8 enshow=0;						   
 11374              		.loc 1 2746 5
 11375 0016 0023     		movs	r3, #0
 11376 0018 BB75     		strb	r3, [r7, #22]
2747:hardware/src/lcd.c **** 	for(t=0;t<len;t++)
 11377              		.loc 1 2747 7
 11378 001a 0023     		movs	r3, #0
 11379 001c FB75     		strb	r3, [r7, #23]
 11380              		.loc 1 2747 2
 11381 001e 7EE0     		b	.L294
 11382              	.L300:
2748:hardware/src/lcd.c **** 	{
2749:hardware/src/lcd.c **** 		temp=(num/LCD_Pow(10,len-t-1))%10;
 11383              		.loc 1 2749 27
 11384 0020 FA79     		ldrb	r2, [r7, #7]
 11385 0022 FB7D     		ldrb	r3, [r7, #23]
 11386 0024 D31A     		subs	r3, r2, r3
 11387 0026 DBB2     		uxtb	r3, r3
 11388              		.loc 1 2749 13
 11389 0028 013B     		subs	r3, r3, #1
 11390 002a DBB2     		uxtb	r3, r3
 11391 002c 1946     		mov	r1, r3
 11392 002e 0A20     		movs	r0, #10
 11393 0030 FFF7FEFF 		bl	LCD_Pow
 11394 0034 0246     		mov	r2, r0
 11395              		.loc 1 2749 12
 11396 0036 BB68     		ldr	r3, [r7, #8]
 11397 0038 B3FBF2F1 		udiv	r1, r3, r2
 11398              		.loc 1 2749 33
 11399 003c 3D4B     		ldr	r3, .L301
 11400 003e A3FB0123 		umull	r2, r3, r3, r1
 11401 0042 DA08     		lsrs	r2, r3, #3
 11402 0044 1346     		mov	r3, r2
 11403 0046 9B00     		lsls	r3, r3, #2
 11404 0048 1344     		add	r3, r3, r2
 11405 004a 5B00     		lsls	r3, r3, #1
 11406 004c CA1A     		subs	r2, r1, r3
 11407              		.loc 1 2749 7
 11408 004e 1346     		mov	r3, r2
 11409 0050 7B75     		strb	r3, [r7, #21]
2750:hardware/src/lcd.c **** 		if(enshow==0&&t<(len-1))
 11410              		.loc 1 2750 5
 11411 0052 BB7D     		ldrb	r3, [r7, #22]	@ zero_extendqisi2
 11412 0054 002B     		cmp	r3, #0
 11413 0056 43D1     		bne	.L295
 11414              		.loc 1 2750 18 discriminator 1
 11415 0058 FA7D     		ldrb	r2, [r7, #23]	@ zero_extendqisi2
 11416              		.loc 1 2750 23 discriminator 1
 11417 005a FB79     		ldrb	r3, [r7, #7]	@ zero_extendqisi2
 11418 005c 013B     		subs	r3, r3, #1
 11419              		.loc 1 2750 15 discriminator 1
 11420 005e 9A42     		cmp	r2, r3
ARM GAS  /tmp/ccRHtd69.s 			page 259


 11421 0060 3EDA     		bge	.L295
2751:hardware/src/lcd.c **** 		{
2752:hardware/src/lcd.c **** 			if(temp==0)
 11422              		.loc 1 2752 6
 11423 0062 7B7D     		ldrb	r3, [r7, #21]	@ zero_extendqisi2
 11424 0064 002B     		cmp	r3, #0
 11425 0066 39D1     		bne	.L296
2753:hardware/src/lcd.c **** 			{
2754:hardware/src/lcd.c **** 				if(mode&0X80)LCD_ShowChar(x+(size/2)*t,y,'0',size,mode&0X01);  
 11426              		.loc 1 2754 8
 11427 0068 97F92C30 		ldrsb	r3, [r7, #44]
 11428              		.loc 1 2754 7
 11429 006c 002B     		cmp	r3, #0
 11430 006e 1ADA     		bge	.L297
 11431              		.loc 1 2754 41 discriminator 1
 11432 0070 97F82830 		ldrb	r3, [r7, #40]	@ zero_extendqisi2
 11433 0074 5B08     		lsrs	r3, r3, #1
 11434 0076 DBB2     		uxtb	r3, r3
 11435 0078 9BB2     		uxth	r3, r3
 11436 007a FA7D     		ldrb	r2, [r7, #23]	@ zero_extendqisi2
 11437 007c 92B2     		uxth	r2, r2
 11438 007e 02FB03F3 		mul	r3, r2, r3
 11439 0082 9AB2     		uxth	r2, r3
 11440              		.loc 1 2754 18 discriminator 1
 11441 0084 FB89     		ldrh	r3, [r7, #14]	@ movhi
 11442 0086 1344     		add	r3, r3, r2
 11443 0088 98B2     		uxth	r0, r3
 11444 008a 97F82C30 		ldrb	r3, [r7, #44]
 11445 008e 03F00103 		and	r3, r3, #1
 11446 0092 DBB2     		uxtb	r3, r3
 11447 0094 97F82820 		ldrb	r2, [r7, #40]	@ zero_extendqisi2
 11448 0098 B989     		ldrh	r1, [r7, #12]
 11449 009a 0093     		str	r3, [sp]
 11450 009c 1346     		mov	r3, r2
 11451 009e 3022     		movs	r2, #48
 11452 00a0 FFF7FEFF 		bl	LCD_ShowChar
2755:hardware/src/lcd.c **** 				else LCD_ShowChar(x+(size/2)*t,y,' ',size,mode&0X01);  
2756:hardware/src/lcd.c ****  				continue;
 11453              		.loc 1 2756 6 discriminator 1
 11454 00a4 38E0     		b	.L299
 11455              	.L297:
2755:hardware/src/lcd.c **** 				else LCD_ShowChar(x+(size/2)*t,y,' ',size,mode&0X01);  
 11456              		.loc 1 2755 33
 11457 00a6 97F82830 		ldrb	r3, [r7, #40]	@ zero_extendqisi2
 11458 00aa 5B08     		lsrs	r3, r3, #1
 11459 00ac DBB2     		uxtb	r3, r3
 11460 00ae 9BB2     		uxth	r3, r3
 11461 00b0 FA7D     		ldrb	r2, [r7, #23]	@ zero_extendqisi2
 11462 00b2 92B2     		uxth	r2, r2
 11463 00b4 02FB03F3 		mul	r3, r2, r3
 11464 00b8 9AB2     		uxth	r2, r3
2755:hardware/src/lcd.c **** 				else LCD_ShowChar(x+(size/2)*t,y,' ',size,mode&0X01);  
 11465              		.loc 1 2755 10
 11466 00ba FB89     		ldrh	r3, [r7, #14]	@ movhi
 11467 00bc 1344     		add	r3, r3, r2
 11468 00be 98B2     		uxth	r0, r3
 11469 00c0 97F82C30 		ldrb	r3, [r7, #44]
ARM GAS  /tmp/ccRHtd69.s 			page 260


 11470 00c4 03F00103 		and	r3, r3, #1
 11471 00c8 DBB2     		uxtb	r3, r3
 11472 00ca 97F82820 		ldrb	r2, [r7, #40]	@ zero_extendqisi2
 11473 00ce B989     		ldrh	r1, [r7, #12]
 11474 00d0 0093     		str	r3, [sp]
 11475 00d2 1346     		mov	r3, r2
 11476 00d4 2022     		movs	r2, #32
 11477 00d6 FFF7FEFF 		bl	LCD_ShowChar
 11478              		.loc 1 2756 6
 11479 00da 1DE0     		b	.L299
 11480              	.L296:
2757:hardware/src/lcd.c **** 			}else enshow=1; 
 11481              		.loc 1 2757 16
 11482 00dc 0123     		movs	r3, #1
 11483 00de BB75     		strb	r3, [r7, #22]
 11484              	.L295:
2758:hardware/src/lcd.c **** 		 	 
2759:hardware/src/lcd.c **** 		}
2760:hardware/src/lcd.c **** 	 	LCD_ShowChar(x+(size/2)*t,y,temp+'0',size,mode&0X01); 
 11485              		.loc 1 2760 27
 11486 00e0 97F82830 		ldrb	r3, [r7, #40]	@ zero_extendqisi2
 11487 00e4 5B08     		lsrs	r3, r3, #1
 11488 00e6 DBB2     		uxtb	r3, r3
 11489 00e8 9BB2     		uxth	r3, r3
 11490 00ea FA7D     		ldrb	r2, [r7, #23]	@ zero_extendqisi2
 11491 00ec 92B2     		uxth	r2, r2
 11492 00ee 02FB03F3 		mul	r3, r2, r3
 11493 00f2 9AB2     		uxth	r2, r3
 11494              		.loc 1 2760 4
 11495 00f4 FB89     		ldrh	r3, [r7, #14]	@ movhi
 11496 00f6 1344     		add	r3, r3, r2
 11497 00f8 98B2     		uxth	r0, r3
 11498 00fa 7B7D     		ldrb	r3, [r7, #21]
 11499 00fc 3033     		adds	r3, r3, #48
 11500 00fe DAB2     		uxtb	r2, r3
 11501 0100 97F82C30 		ldrb	r3, [r7, #44]
 11502 0104 03F00103 		and	r3, r3, #1
 11503 0108 DBB2     		uxtb	r3, r3
 11504 010a 97F82840 		ldrb	r4, [r7, #40]	@ zero_extendqisi2
 11505 010e B989     		ldrh	r1, [r7, #12]
 11506 0110 0093     		str	r3, [sp]
 11507 0112 2346     		mov	r3, r4
 11508 0114 FFF7FEFF 		bl	LCD_ShowChar
 11509              	.L299:
2747:hardware/src/lcd.c **** 	{
 11510              		.loc 1 2747 17 discriminator 2
 11511 0118 FB7D     		ldrb	r3, [r7, #23]	@ zero_extendqisi2
 11512 011a 0133     		adds	r3, r3, #1
 11513 011c FB75     		strb	r3, [r7, #23]
 11514              	.L294:
2747:hardware/src/lcd.c **** 	{
 11515              		.loc 1 2747 2 discriminator 1
 11516 011e FA7D     		ldrb	r2, [r7, #23]	@ zero_extendqisi2
 11517 0120 FB79     		ldrb	r3, [r7, #7]	@ zero_extendqisi2
 11518 0122 9A42     		cmp	r2, r3
 11519 0124 FFF47CAF 		bcc	.L300
2761:hardware/src/lcd.c **** 	}
ARM GAS  /tmp/ccRHtd69.s 			page 261


2762:hardware/src/lcd.c **** } 
 11520              		.loc 1 2762 1
 11521 0128 00BF     		nop
 11522 012a 00BF     		nop
 11523 012c 1C37     		adds	r7, r7, #28
 11524              	.LCFI142:
 11525              		.cfi_def_cfa_offset 12
 11526 012e BD46     		mov	sp, r7
 11527              	.LCFI143:
 11528              		.cfi_def_cfa_register 13
 11529              		@ sp needed
 11530 0130 90BD     		pop	{r4, r7, pc}
 11531              	.L302:
 11532 0132 00BF     		.align	2
 11533              	.L301:
 11534 0134 CDCCCCCC 		.word	-858993459
 11535              		.cfi_endproc
 11536              	.LFE94:
 11538              		.section	.text.LCD_ShowString,"ax",%progbits
 11539              		.align	1
 11540              		.global	LCD_ShowString
 11541              		.syntax unified
 11542              		.thumb
 11543              		.thumb_func
 11544              		.fpu softvfp
 11546              	LCD_ShowString:
 11547              	.LFB95:
2763:hardware/src/lcd.c **** //显示字符串
2764:hardware/src/lcd.c **** //x,y:起点坐标
2765:hardware/src/lcd.c **** //width,height:区域大小  
2766:hardware/src/lcd.c **** //size:字体大小
2767:hardware/src/lcd.c **** //*p:字符串起始地址		  
2768:hardware/src/lcd.c **** void LCD_ShowString(u16 x,u16 y,u16 width,u16 height,u8 size,u8 *p)
2769:hardware/src/lcd.c **** {         
 11548              		.loc 1 2769 1
 11549              		.cfi_startproc
 11550              		@ args = 8, pretend = 0, frame = 16
 11551              		@ frame_needed = 1, uses_anonymous_args = 0
 11552 0000 90B5     		push	{r4, r7, lr}
 11553              	.LCFI144:
 11554              		.cfi_def_cfa_offset 12
 11555              		.cfi_offset 4, -12
 11556              		.cfi_offset 7, -8
 11557              		.cfi_offset 14, -4
 11558 0002 87B0     		sub	sp, sp, #28
 11559              	.LCFI145:
 11560              		.cfi_def_cfa_offset 40
 11561 0004 02AF     		add	r7, sp, #8
 11562              	.LCFI146:
 11563              		.cfi_def_cfa 7, 32
 11564 0006 0446     		mov	r4, r0
 11565 0008 0846     		mov	r0, r1
 11566 000a 1146     		mov	r1, r2
 11567 000c 1A46     		mov	r2, r3
 11568 000e 2346     		mov	r3, r4	@ movhi
 11569 0010 FB80     		strh	r3, [r7, #6]	@ movhi
 11570 0012 0346     		mov	r3, r0	@ movhi
ARM GAS  /tmp/ccRHtd69.s 			page 262


 11571 0014 BB80     		strh	r3, [r7, #4]	@ movhi
 11572 0016 0B46     		mov	r3, r1	@ movhi
 11573 0018 7B80     		strh	r3, [r7, #2]	@ movhi
 11574 001a 1346     		mov	r3, r2	@ movhi
 11575 001c 3B80     		strh	r3, [r7]	@ movhi
2770:hardware/src/lcd.c **** 	u8 x0=x;
 11576              		.loc 1 2770 5
 11577 001e FB88     		ldrh	r3, [r7, #6]	@ movhi
 11578 0020 FB73     		strb	r3, [r7, #15]
2771:hardware/src/lcd.c **** 	width+=x;
 11579              		.loc 1 2771 7
 11580 0022 7A88     		ldrh	r2, [r7, #2]	@ movhi
 11581 0024 FB88     		ldrh	r3, [r7, #6]	@ movhi
 11582 0026 1344     		add	r3, r3, r2
 11583 0028 7B80     		strh	r3, [r7, #2]	@ movhi
2772:hardware/src/lcd.c **** 	height+=y;
 11584              		.loc 1 2772 8
 11585 002a 3A88     		ldrh	r2, [r7]	@ movhi
 11586 002c BB88     		ldrh	r3, [r7, #4]	@ movhi
 11587 002e 1344     		add	r3, r3, r2
 11588 0030 3B80     		strh	r3, [r7]	@ movhi
2773:hardware/src/lcd.c ****     while((*p<='~')&&(*p>=' '))//判断是不是非法字符!
 11589              		.loc 1 2773 10
 11590 0032 24E0     		b	.L304
 11591              	.L308:
2774:hardware/src/lcd.c ****     {       
2775:hardware/src/lcd.c ****         if(x>=width){x=x0;y+=size;}
 11592              		.loc 1 2775 11
 11593 0034 FA88     		ldrh	r2, [r7, #6]
 11594 0036 7B88     		ldrh	r3, [r7, #2]
 11595 0038 9A42     		cmp	r2, r3
 11596 003a 07D3     		bcc	.L305
 11597              		.loc 1 2775 23 discriminator 1
 11598 003c FB7B     		ldrb	r3, [r7, #15]	@ zero_extendqisi2
 11599 003e FB80     		strh	r3, [r7, #6]	@ movhi
 11600              		.loc 1 2775 28 discriminator 1
 11601 0040 97F82030 		ldrb	r3, [r7, #32]	@ zero_extendqisi2
 11602 0044 9AB2     		uxth	r2, r3
 11603 0046 BB88     		ldrh	r3, [r7, #4]	@ movhi
 11604 0048 1344     		add	r3, r3, r2
 11605 004a BB80     		strh	r3, [r7, #4]	@ movhi
 11606              	.L305:
2776:hardware/src/lcd.c ****         if(y>=height)break;//退出
 11607              		.loc 1 2776 11
 11608 004c BA88     		ldrh	r2, [r7, #4]
 11609 004e 3B88     		ldrh	r3, [r7]
 11610 0050 9A42     		cmp	r2, r3
 11611 0052 1DD2     		bcs	.L310
2777:hardware/src/lcd.c ****         LCD_ShowChar(x,y,*p,size,0);
 11612              		.loc 1 2777 9
 11613 0054 7B6A     		ldr	r3, [r7, #36]
 11614 0056 1A78     		ldrb	r2, [r3]	@ zero_extendqisi2
 11615 0058 97F82030 		ldrb	r3, [r7, #32]	@ zero_extendqisi2
 11616 005c B988     		ldrh	r1, [r7, #4]
 11617 005e F888     		ldrh	r0, [r7, #6]
 11618 0060 0024     		movs	r4, #0
 11619 0062 0094     		str	r4, [sp]
ARM GAS  /tmp/ccRHtd69.s 			page 263


 11620 0064 FFF7FEFF 		bl	LCD_ShowChar
2778:hardware/src/lcd.c ****         x+=size/2;
 11621              		.loc 1 2778 10
 11622 0068 97F82030 		ldrb	r3, [r7, #32]	@ zero_extendqisi2
 11623 006c 5B08     		lsrs	r3, r3, #1
 11624 006e DBB2     		uxtb	r3, r3
 11625 0070 9AB2     		uxth	r2, r3
 11626 0072 FB88     		ldrh	r3, [r7, #6]	@ movhi
 11627 0074 1344     		add	r3, r3, r2
 11628 0076 FB80     		strh	r3, [r7, #6]	@ movhi
2779:hardware/src/lcd.c ****         p++;
 11629              		.loc 1 2779 10
 11630 0078 7B6A     		ldr	r3, [r7, #36]
 11631 007a 0133     		adds	r3, r3, #1
 11632 007c 7B62     		str	r3, [r7, #36]
 11633              	.L304:
2773:hardware/src/lcd.c ****     {       
 11634              		.loc 1 2773 12
 11635 007e 7B6A     		ldr	r3, [r7, #36]
 11636 0080 1B78     		ldrb	r3, [r3]	@ zero_extendqisi2
2773:hardware/src/lcd.c ****     {       
 11637              		.loc 1 2773 10
 11638 0082 7E2B     		cmp	r3, #126
 11639 0084 05D8     		bhi	.L311
2773:hardware/src/lcd.c ****     {       
 11640              		.loc 1 2773 23 discriminator 1
 11641 0086 7B6A     		ldr	r3, [r7, #36]
 11642 0088 1B78     		ldrb	r3, [r3]	@ zero_extendqisi2
2773:hardware/src/lcd.c ****     {       
 11643              		.loc 1 2773 20 discriminator 1
 11644 008a 1F2B     		cmp	r3, #31
 11645 008c D2D8     		bhi	.L308
2780:hardware/src/lcd.c ****     }  
2781:hardware/src/lcd.c **** }
 11646              		.loc 1 2781 1
 11647 008e 00E0     		b	.L311
 11648              	.L310:
2776:hardware/src/lcd.c ****         LCD_ShowChar(x,y,*p,size,0);
 11649              		.loc 1 2776 9
 11650 0090 00BF     		nop
 11651              	.L311:
 11652              		.loc 1 2781 1
 11653 0092 00BF     		nop
 11654 0094 1437     		adds	r7, r7, #20
 11655              	.LCFI147:
 11656              		.cfi_def_cfa_offset 12
 11657 0096 BD46     		mov	sp, r7
 11658              	.LCFI148:
 11659              		.cfi_def_cfa_register 13
 11660              		@ sp needed
 11661 0098 90BD     		pop	{r4, r7, pc}
 11662              		.cfi_endproc
 11663              	.LFE95:
 11665              		.section	.text.LCD_SimpleString,"ax",%progbits
 11666              		.align	1
 11667              		.global	LCD_SimpleString
 11668              		.syntax unified
ARM GAS  /tmp/ccRHtd69.s 			page 264


 11669              		.thumb
 11670              		.thumb_func
 11671              		.fpu softvfp
 11673              	LCD_SimpleString:
 11674              	.LFB96:
2782:hardware/src/lcd.c **** 
2783:hardware/src/lcd.c **** #if defined(LCD_SHOW_INFO) && LCD_SHOW_INFO
2784:hardware/src/lcd.c **** void LCD_SimpleString(u16 x,u16 y,u8 *p,u8 length)
2785:hardware/src/lcd.c **** {
 11675              		.loc 1 2785 1
 11676              		.cfi_startproc
 11677              		@ args = 0, pretend = 0, frame = 24
 11678              		@ frame_needed = 1, uses_anonymous_args = 0
 11679 0000 80B5     		push	{r7, lr}
 11680              	.LCFI149:
 11681              		.cfi_def_cfa_offset 8
 11682              		.cfi_offset 7, -8
 11683              		.cfi_offset 14, -4
 11684 0002 88B0     		sub	sp, sp, #32
 11685              	.LCFI150:
 11686              		.cfi_def_cfa_offset 40
 11687 0004 02AF     		add	r7, sp, #8
 11688              	.LCFI151:
 11689              		.cfi_def_cfa 7, 32
 11690 0006 BA60     		str	r2, [r7, #8]
 11691 0008 1A46     		mov	r2, r3
 11692 000a 0346     		mov	r3, r0	@ movhi
 11693 000c FB81     		strh	r3, [r7, #14]	@ movhi
 11694 000e 0B46     		mov	r3, r1	@ movhi
 11695 0010 BB81     		strh	r3, [r7, #12]	@ movhi
 11696 0012 1346     		mov	r3, r2
 11697 0014 FB71     		strb	r3, [r7, #7]
2786:hardware/src/lcd.c **** 	u8 end = x+length*8;
 11698              		.loc 1 2786 12
 11699 0016 FB89     		ldrh	r3, [r7, #14]	@ movhi
 11700 0018 DAB2     		uxtb	r2, r3
 11701 001a FB79     		ldrb	r3, [r7, #7]
 11702 001c DB00     		lsls	r3, r3, #3
 11703 001e DBB2     		uxtb	r3, r3
 11704              		.loc 1 2786 5
 11705 0020 1344     		add	r3, r3, r2
 11706 0022 FB75     		strb	r3, [r7, #23]
2787:hardware/src/lcd.c **** 	LCD_Set_Window(x,y,length*8,16);//将显示区域设置到屏幕中央  max 20 bytes string
 11707              		.loc 1 2787 2
 11708 0024 FB79     		ldrb	r3, [r7, #7]	@ zero_extendqisi2
 11709 0026 9BB2     		uxth	r3, r3
 11710 0028 DB00     		lsls	r3, r3, #3
 11711 002a 9AB2     		uxth	r2, r3
 11712 002c B989     		ldrh	r1, [r7, #12]
 11713 002e F889     		ldrh	r0, [r7, #14]
 11714 0030 1023     		movs	r3, #16
 11715 0032 FFF7FEFF 		bl	LCD_Set_Window
2788:hardware/src/lcd.c ****     while((*p<='~')&&(*p>=' '))//判断是不是非法字符!
 11716              		.loc 1 2788 10
 11717 0036 13E0     		b	.L313
 11718              	.L316:
2789:hardware/src/lcd.c ****     {
ARM GAS  /tmp/ccRHtd69.s 			page 265


2790:hardware/src/lcd.c ****         if(x>=end)
 11719              		.loc 1 2790 13
 11720 0038 FB7D     		ldrb	r3, [r7, #23]	@ zero_extendqisi2
 11721 003a 9BB2     		uxth	r3, r3
 11722              		.loc 1 2790 11
 11723 003c FA89     		ldrh	r2, [r7, #14]
 11724 003e 9A42     		cmp	r2, r3
 11725 0040 17D2     		bcs	.L318
2791:hardware/src/lcd.c **** 			break;
2792:hardware/src/lcd.c ****         LCD_ShowChar(x,y,*p,16,0);
 11726              		.loc 1 2792 9
 11727 0042 BB68     		ldr	r3, [r7, #8]
 11728 0044 1A78     		ldrb	r2, [r3]	@ zero_extendqisi2
 11729 0046 B989     		ldrh	r1, [r7, #12]
 11730 0048 F889     		ldrh	r0, [r7, #14]
 11731 004a 0023     		movs	r3, #0
 11732 004c 0093     		str	r3, [sp]
 11733 004e 1023     		movs	r3, #16
 11734 0050 FFF7FEFF 		bl	LCD_ShowChar
2793:hardware/src/lcd.c ****         x += 8;
 11735              		.loc 1 2793 11
 11736 0054 FB89     		ldrh	r3, [r7, #14]	@ movhi
 11737 0056 0833     		adds	r3, r3, #8
 11738 0058 FB81     		strh	r3, [r7, #14]	@ movhi
2794:hardware/src/lcd.c ****         p++;
 11739              		.loc 1 2794 10
 11740 005a BB68     		ldr	r3, [r7, #8]
 11741 005c 0133     		adds	r3, r3, #1
 11742 005e BB60     		str	r3, [r7, #8]
 11743              	.L313:
2788:hardware/src/lcd.c ****     {
 11744              		.loc 1 2788 12
 11745 0060 BB68     		ldr	r3, [r7, #8]
 11746 0062 1B78     		ldrb	r3, [r3]	@ zero_extendqisi2
2788:hardware/src/lcd.c ****     {
 11747              		.loc 1 2788 10
 11748 0064 7E2B     		cmp	r3, #126
 11749 0066 05D8     		bhi	.L319
2788:hardware/src/lcd.c ****     {
 11750              		.loc 1 2788 23 discriminator 1
 11751 0068 BB68     		ldr	r3, [r7, #8]
 11752 006a 1B78     		ldrb	r3, [r3]	@ zero_extendqisi2
2788:hardware/src/lcd.c ****     {
 11753              		.loc 1 2788 20 discriminator 1
 11754 006c 1F2B     		cmp	r3, #31
 11755 006e E3D8     		bhi	.L316
2795:hardware/src/lcd.c ****     }  
2796:hardware/src/lcd.c **** }
 11756              		.loc 1 2796 1
 11757 0070 00E0     		b	.L319
 11758              	.L318:
2791:hardware/src/lcd.c ****         LCD_ShowChar(x,y,*p,16,0);
 11759              		.loc 1 2791 4
 11760 0072 00BF     		nop
 11761              	.L319:
 11762              		.loc 1 2796 1
 11763 0074 00BF     		nop
ARM GAS  /tmp/ccRHtd69.s 			page 266


 11764 0076 1837     		adds	r7, r7, #24
 11765              	.LCFI152:
 11766              		.cfi_def_cfa_offset 8
 11767 0078 BD46     		mov	sp, r7
 11768              	.LCFI153:
 11769              		.cfi_def_cfa_register 13
 11770              		@ sp needed
 11771 007a 80BD     		pop	{r7, pc}
 11772              		.cfi_endproc
 11773              	.LFE96:
 11775              		.text
 11776              	.Letext0:
 11777              		.file 2 "/home/ubuntu/tools/gcc-arm-none-eabi-10-2020-q4-major/arm-none-eabi/include/machine/_defa
 11778              		.file 3 "/home/ubuntu/tools/gcc-arm-none-eabi-10-2020-q4-major/arm-none-eabi/include/sys/_stdint.h
 11779              		.file 4 "Inc/stm32f10x.h"
 11780              		.file 5 "Drivers/Inc/stm32f10x_fsmc.h"
 11781              		.file 6 "Drivers/Inc/stm32f10x_gpio.h"
 11782              		.file 7 "hardware/inc/lcd.h"
 11783              		.file 8 "hardware/inc/font.h"
ARM GAS  /tmp/ccRHtd69.s 			page 267


DEFINED SYMBOLS
                            *ABS*:0000000000000000 lcd.c
     /tmp/ccRHtd69.s:20     .rodata.asc2_1206:0000000000000000 asc2_1206
     /tmp/ccRHtd69.s:17     .rodata.asc2_1206:0000000000000000 $d
     /tmp/ccRHtd69.s:121    .rodata.asc2_1608:0000000000000000 asc2_1608
     /tmp/ccRHtd69.s:118    .rodata.asc2_1608:0000000000000000 $d
     /tmp/ccRHtd69.s:306    .bss.POINT_COLOR:0000000000000000 POINT_COLOR
     /tmp/ccRHtd69.s:303    .bss.POINT_COLOR:0000000000000000 $d
     /tmp/ccRHtd69.s:313    .data.BACK_COLOR:0000000000000000 BACK_COLOR
     /tmp/ccRHtd69.s:310    .data.BACK_COLOR:0000000000000000 $d
     /tmp/ccRHtd69.s:320    .bss.lcddev:0000000000000000 lcddev
     /tmp/ccRHtd69.s:317    .bss.lcddev:0000000000000000 $d
     /tmp/ccRHtd69.s:323    .text.LCD_WR_REG:0000000000000000 $t
     /tmp/ccRHtd69.s:331    .text.LCD_WR_REG:0000000000000000 LCD_WR_REG
     /tmp/ccRHtd69.s:373    .text.LCD_WR_REG:000000000000001c $d
     /tmp/ccRHtd69.s:378    .text.LCD_WR_DATA:0000000000000000 $t
     /tmp/ccRHtd69.s:385    .text.LCD_WR_DATA:0000000000000000 LCD_WR_DATA
     /tmp/ccRHtd69.s:426    .text.LCD_WR_DATA:000000000000001c $d
     /tmp/ccRHtd69.s:431    .text.LCD_RD_DATA:0000000000000000 $t
     /tmp/ccRHtd69.s:438    .text.LCD_RD_DATA:0000000000000000 LCD_RD_DATA
     /tmp/ccRHtd69.s:469    .text.LCD_RD_DATA:0000000000000010 $d
     /tmp/ccRHtd69.s:474    .text.LCD_WriteReg:0000000000000000 $t
     /tmp/ccRHtd69.s:481    .text.LCD_WriteReg:0000000000000000 LCD_WriteReg
     /tmp/ccRHtd69.s:530    .text.LCD_WriteReg:0000000000000028 $d
     /tmp/ccRHtd69.s:535    .text.LCD_ReadReg:0000000000000000 $t
     /tmp/ccRHtd69.s:542    .text.LCD_ReadReg:0000000000000000 LCD_ReadReg
     /tmp/ccRHtd69.s:585    .text.LCD_WriteRAM_Prepare:0000000000000000 $t
     /tmp/ccRHtd69.s:592    .text.LCD_WriteRAM_Prepare:0000000000000000 LCD_WriteRAM_Prepare
     /tmp/ccRHtd69.s:627    .text.LCD_WriteRAM_Prepare:0000000000000014 $d
     /tmp/ccRHtd69.s:633    .text.LCD_WriteRAM:0000000000000000 $t
     /tmp/ccRHtd69.s:640    .text.LCD_WriteRAM:0000000000000000 LCD_WriteRAM
     /tmp/ccRHtd69.s:681    .text.LCD_WriteRAM:000000000000001c $d
     /tmp/ccRHtd69.s:686    .text.LCD_BGR2RGB:0000000000000000 $t
     /tmp/ccRHtd69.s:693    .text.LCD_BGR2RGB:0000000000000000 LCD_BGR2RGB
     /tmp/ccRHtd69.s:762    .text.opt_delay:0000000000000000 $t
     /tmp/ccRHtd69.s:769    .text.opt_delay:0000000000000000 opt_delay
     /tmp/ccRHtd69.s:817    .text.LCD_ReadPoint:0000000000000000 $t
     /tmp/ccRHtd69.s:824    .text.LCD_ReadPoint:0000000000000000 LCD_ReadPoint
     /tmp/ccRHtd69.s:1283   .text.LCD_SetCursor:0000000000000000 LCD_SetCursor
     /tmp/ccRHtd69.s:1114   .text.LCD_ReadPoint:00000000000001a0 $d
     /tmp/ccRHtd69.s:1120   .text.LCD_DisplayOn:0000000000000000 $t
     /tmp/ccRHtd69.s:1127   .text.LCD_DisplayOn:0000000000000000 LCD_DisplayOn
     /tmp/ccRHtd69.s:1193   .text.LCD_DisplayOn:0000000000000054 $d
     /tmp/ccRHtd69.s:1198   .text.LCD_DisplayOff:0000000000000000 $t
     /tmp/ccRHtd69.s:1205   .text.LCD_DisplayOff:0000000000000000 LCD_DisplayOff
     /tmp/ccRHtd69.s:1271   .text.LCD_DisplayOff:0000000000000054 $d
     /tmp/ccRHtd69.s:1276   .text.LCD_SetCursor:0000000000000000 $t
     /tmp/ccRHtd69.s:1523   .text.LCD_SetCursor:0000000000000180 $d
     /tmp/ccRHtd69.s:1528   .text.LCD_Scan_Dir:0000000000000000 $t
     /tmp/ccRHtd69.s:1535   .text.LCD_Scan_Dir:0000000000000000 LCD_Scan_Dir
     /tmp/ccRHtd69.s:1581   .text.LCD_Scan_Dir:0000000000000034 $d
     /tmp/ccRHtd69.s:1589   .text.LCD_Scan_Dir:0000000000000054 $t
     /tmp/ccRHtd69.s:1679   .text.LCD_Scan_Dir:00000000000000c4 $d
     /tmp/ccRHtd69.s:1687   .text.LCD_Scan_Dir:00000000000000e4 $t
     /tmp/ccRHtd69.s:1980   .text.LCD_Scan_Dir:00000000000002a8 $d
     /tmp/ccRHtd69.s:1983   .text.LCD_Scan_Dir:00000000000002ac $t
     /tmp/ccRHtd69.s:2059   .text.LCD_Scan_Dir:000000000000032c $d
ARM GAS  /tmp/ccRHtd69.s 			page 268


     /tmp/ccRHtd69.s:2067   .text.LCD_Scan_Dir:000000000000034c $t
     /tmp/ccRHtd69.s:2164   .text.LCD_Scan_Dir:00000000000003d4 $d
     /tmp/ccRHtd69.s:2169   .text.LCD_DrawPoint:0000000000000000 $t
     /tmp/ccRHtd69.s:2176   .text.LCD_DrawPoint:0000000000000000 LCD_DrawPoint
     /tmp/ccRHtd69.s:2225   .text.LCD_DrawPoint:0000000000000030 $d
     /tmp/ccRHtd69.s:2231   .text.LCD_Fast_DrawPoint:0000000000000000 $t
     /tmp/ccRHtd69.s:2238   .text.LCD_Fast_DrawPoint:0000000000000000 LCD_Fast_DrawPoint
     /tmp/ccRHtd69.s:2488   .text.LCD_Fast_DrawPoint:0000000000000190 $d
     /tmp/ccRHtd69.s:2494   .text.LCD_Display_Dir:0000000000000000 $t
     /tmp/ccRHtd69.s:2501   .text.LCD_Display_Dir:0000000000000000 LCD_Display_Dir
     /tmp/ccRHtd69.s:2829   .text.LCD_Display_Dir:00000000000001f4 $d
     /tmp/ccRHtd69.s:2834   .text.LCD_Set_Window:0000000000000000 $t
     /tmp/ccRHtd69.s:2841   .text.LCD_Set_Window:0000000000000000 LCD_Set_Window
     /tmp/ccRHtd69.s:3227   .text.LCD_Set_Window:0000000000000274 $d
     /tmp/ccRHtd69.s:3232   .rodata:0000000000000000 $d
     /tmp/ccRHtd69.s:3236   .text.LCD_Init:0000000000000000 $t
     /tmp/ccRHtd69.s:3243   .text.LCD_Init:0000000000000000 LCD_Init
     /tmp/ccRHtd69.s:3641   .text.LCD_Init:00000000000002b4 $d
     /tmp/ccRHtd69.s:3649   .text.LCD_Init:00000000000002cc $t
     /tmp/ccRHtd69.s:4105   .text.LCD_Init:000000000000065c $d
     /tmp/ccRHtd69.s:4108   .text.LCD_Init:0000000000000660 $t
     /tmp/ccRHtd69.s:4118   .text.LCD_Init:0000000000000670 $d
     /tmp/ccRHtd69.s:4121   .text.LCD_Init:0000000000000674 $t
     /tmp/ccRHtd69.s:6044   .text.LCD_Init:0000000000001578 $d
     /tmp/ccRHtd69.s:6047   .text.LCD_Init:000000000000157c $t
     /tmp/ccRHtd69.s:8019   .text.LCD_Init:000000000000282c $d
     /tmp/ccRHtd69.s:8022   .text.LCD_Init:0000000000002830 $t
     /tmp/ccRHtd69.s:8403   .text.LCD_Init:0000000000002b6c $d
     /tmp/ccRHtd69.s:8406   .text.LCD_Init:0000000000002b70 $t
     /tmp/ccRHtd69.s:8829   .text.LCD_Init:0000000000002efc $d
     /tmp/ccRHtd69.s:8832   .text.LCD_Init:0000000000002f00 $t
     /tmp/ccRHtd69.s:9272   .text.LCD_Init:00000000000032c0 $d
     /tmp/ccRHtd69.s:9275   .text.LCD_Init:00000000000032c4 $t
     /tmp/ccRHtd69.s:9621   .text.LCD_Init:00000000000035cc $d
     /tmp/ccRHtd69.s:9624   .text.LCD_Init:00000000000035d0 $t
     /tmp/ccRHtd69.s:9821   .text.LCD_Clear:0000000000000000 LCD_Clear
     /tmp/ccRHtd69.s:9808   .text.LCD_Init:0000000000003758 $d
     /tmp/ccRHtd69.s:9814   .text.LCD_Clear:0000000000000000 $t
     /tmp/ccRHtd69.s:9941   .text.LCD_Clear:0000000000000094 $d
     /tmp/ccRHtd69.s:9947   .text.LCD_Fill:0000000000000000 $t
     /tmp/ccRHtd69.s:9954   .text.LCD_Fill:0000000000000000 LCD_Fill
     /tmp/ccRHtd69.s:10131  .text.LCD_Fill:00000000000000ec $d
     /tmp/ccRHtd69.s:10136  .text.LCD_Color_Fill:0000000000000000 $t
     /tmp/ccRHtd69.s:10143  .text.LCD_Color_Fill:0000000000000000 LCD_Color_Fill
     /tmp/ccRHtd69.s:10263  .text.LCD_Color_Fill:0000000000000098 $d
     /tmp/ccRHtd69.s:10268  .text.LCD_DrawLine:0000000000000000 $t
     /tmp/ccRHtd69.s:10275  .text.LCD_DrawLine:0000000000000000 LCD_DrawLine
     /tmp/ccRHtd69.s:10479  .text.LCD_DrawRectangle:0000000000000000 $t
     /tmp/ccRHtd69.s:10486  .text.LCD_DrawRectangle:0000000000000000 LCD_DrawRectangle
     /tmp/ccRHtd69.s:10554  .text.Draw_Circle:0000000000000000 $t
     /tmp/ccRHtd69.s:10561  .text.Draw_Circle:0000000000000000 Draw_Circle
     /tmp/ccRHtd69.s:10759  .text.LCD_ShowChar:0000000000000000 $t
     /tmp/ccRHtd69.s:10766  .text.LCD_ShowChar:0000000000000000 LCD_ShowChar
     /tmp/ccRHtd69.s:11102  .text.LCD_ShowChar:00000000000001b8 $d
     /tmp/ccRHtd69.s:11111  .text.LCD_Pow:0000000000000000 $t
     /tmp/ccRHtd69.s:11118  .text.LCD_Pow:0000000000000000 LCD_Pow
     /tmp/ccRHtd69.s:11179  .text.LCD_ShowNum:0000000000000000 $t
ARM GAS  /tmp/ccRHtd69.s 			page 269


     /tmp/ccRHtd69.s:11186  .text.LCD_ShowNum:0000000000000000 LCD_ShowNum
     /tmp/ccRHtd69.s:11336  .text.LCD_ShowNum:00000000000000e0 $d
     /tmp/ccRHtd69.s:11341  .text.LCD_ShowxNum:0000000000000000 $t
     /tmp/ccRHtd69.s:11348  .text.LCD_ShowxNum:0000000000000000 LCD_ShowxNum
     /tmp/ccRHtd69.s:11534  .text.LCD_ShowxNum:0000000000000134 $d
     /tmp/ccRHtd69.s:11539  .text.LCD_ShowString:0000000000000000 $t
     /tmp/ccRHtd69.s:11546  .text.LCD_ShowString:0000000000000000 LCD_ShowString
     /tmp/ccRHtd69.s:11666  .text.LCD_SimpleString:0000000000000000 $t
     /tmp/ccRHtd69.s:11673  .text.LCD_SimpleString:0000000000000000 LCD_SimpleString

UNDEFINED SYMBOLS
delay_us
RCC_AHBPeriphClockCmd
RCC_APB2PeriphClockCmd
GPIO_Init
FSMC_NORSRAMInit
FSMC_NORSRAMCmd
delay_ms
printf
