ARM GAS  /tmp/ccRHtd69.s 			page 1


   1              		.cpu cortex-m3
   2              		.eabi_attribute 20, 1
   3              		.eabi_attribute 21, 1
   4              		.eabi_attribute 23, 3
   5              		.eabi_attribute 24, 1
   6              		.eabi_attribute 25, 1
   7              		.eabi_attribute 26, 1
   8              		.eabi_attribute 30, 6
   9              		.eabi_attribute 34, 1
  10              		.eabi_attribute 18, 4
  11              		.file	"lcd.c"
  12              		.text
  13              	.Ltext0:
  14              		.cfi_sections	.debug_frame
  15              		.global	asc2_1206
  16              		.section	.rodata.asc2_1206,"a"
  17              		.align	2
  20              	asc2_1206:
  21 0000 00000000 		.ascii	"\000\000\000\000\000\000\000\000\000\000\000\000"
  21      00000000 
  21      00000000 
  22 000c 00000000 		.ascii	"\000\000\000\000?@\000\000\000\000\000\000"
  22      3F400000 
  22      00000000 
  23 0018 00003000 		.ascii	"\000\0000\000@\0000\000@\000\000\000"
  23      40003000 
  23      40000000 
  24 0024 09000BC0 		.ascii	"\011\000\013\300=\000\013\300=\000\011\000"
  24      3D000BC0 
  24      3D000900 
  25 0030 18C02440 		.ascii	"\030\300$@\177\340\"@1\200\000\000"
  25      7FE02240 
  25      31800000 
  26 003c 180024C0 		.ascii	"\030\000$\300\033\000\015\2002@\001\200"
  26      1B000D80 
  26      32400180 
  27 0048 03801C40 		.ascii	"\003\200\034@'@\034\200\007@\000@"
  27      27401C80 
  27      07400040 
  28 0054 10006000 		.ascii	"\020\000`\000\000\000\000\000\000\000\000\000"
  28      00000000 
  28      00000000 
  29 0060 00000000 		.ascii	"\000\000\000\000\000\000\037\200 @@ "
  29      00001F80 
  29      20404020 
  30 006c 00004020 		.ascii	"\000\000@  @\037\200\000\000\000\000"
  30      20401F80 
  30      00000000 
  31 0078 09000600 		.ascii	"\011\000\006\000\037\200\006\000\011\000\000\000"
  31      1F800600 
  31      09000000 
  32 0084 04000400 		.ascii	"\004\000\004\000?\200\004\000\004\000\000\000"
  32      3F800400 
  32      04000000 
  33 0090 00100060 		.ascii	"\000\020\000`\000\000\000\000\000\000\000\000"
  33      00000000 
  33      00000000 
ARM GAS  /tmp/ccRHtd69.s 			page 2


  34 009c 04000400 		.ascii	"\004\000\004\000\004\000\004\000\004\000\000\000"
  34      04000400 
  34      04000000 
  35 00a8 00000040 		.ascii	"\000\000\000@\000\000\000\000\000\000\000\000"
  35      00000000 
  35      00000000 
  36 00b4 002001C0 		.ascii	"\000 \001\300\006\0008\000@\000\000\000"
  36      06003800 
  36      40000000 
  37 00c0 1F802040 		.ascii	"\037\200 @ @ @\037\200\000\000"
  37      20402040 
  37      1F800000 
  38 00cc 00001040 		.ascii	"\000\000\020@?\300\000@\000\000\000\000"
  38      3FC00040 
  38      00000000 
  39 00d8 18C02140 		.ascii	"\030\300!@\"@$@\030@\000\000"
  39      22402440 
  39      18400000 
  40 00e4 10802040 		.ascii	"\020\200 @$@$@\033\200\000\000"
  40      24402440 
  40      1B800000 
  41 00f0 02000D00 		.ascii	"\002\000\015\000\021\000?\300\001@\000\000"
  41      11003FC0 
  41      01400000 
  42 00fc 3C802440 		.ascii	"<\200$@$@$@#\200\000\000"
  42      24402440 
  42      23800000 
  43 0108 1F802440 		.ascii	"\037\200$@$@4@\003\200\000\000"
  43      24403440 
  43      03800000 
  44 0114 30002000 		.ascii	"0\000 \000'\3008\000 \000\000\000"
  44      27C03800 
  44      20000000 
  45 0120 1B802440 		.ascii	"\033\200$@$@$@\033\200\000\000"
  45      24402440 
  45      1B800000 
  46 012c 1C0022C0 		.ascii	"\034\000\"\300\"@\"@\037\200\000\000"
  46      22402240 
  46      1F800000 
  47 0138 00000000 		.ascii	"\000\000\000\000\010@\000\000\000\000\000\000"
  47      08400000 
  47      00000000 
  48 0144 00000000 		.ascii	"\000\000\000\000\004`\000\000\000\000\000\000"
  48      04600000 
  48      00000000 
  49 0150 00000400 		.ascii	"\000\000\004\000\012\000\021\000 \200@@"
  49      0A001100 
  49      20804040 
  50 015c 09000900 		.ascii	"\011\000\011\000\011\000\011\000\011\000\000\000"
  50      09000900 
  50      09000000 
  51 0168 00004040 		.ascii	"\000\000@@ \200\021\000\012\000\004\000"
  51      20801100 
  51      0A000400 
  52 0174 18002000 		.ascii	"\030\000 \000#@$\000\030\000\000\000"
  52      23402400 
  52      18000000 
ARM GAS  /tmp/ccRHtd69.s 			page 3


  53 0180 1F802040 		.ascii	"\037\200 @'@)@\037@\000\000"
  53      27402940 
  53      1F400000 
  54 018c 004007C0 		.ascii	"\000@\007\3009\000\017\000\001\300\000@"
  54      39000F00 
  54      01C00040 
  55 0198 20403FC0 		.ascii	" @?\300$@$@\033\200\000\000"
  55      24402440 
  55      1B800000 
  56 01a4 1F802040 		.ascii	"\037\200 @ @ @0\200\000\000"
  56      20402040 
  56      30800000 
  57 01b0 20403FC0 		.ascii	" @?\300 @ @\037\200\000\000"
  57      20402040 
  57      1F800000 
  58 01bc 20403FC0 		.ascii	" @?\300$@.@0\300\000\000"
  58      24402E40 
  58      30C00000 
  59 01c8 20403FC0 		.ascii	" @?\300$@.\0000\000\000\000"
  59      24402E00 
  59      30000000 
  60 01d4 0F001080 		.ascii	"\017\000\020\200 @\"@3\200\002\000"
  60      20402240 
  60      33800200 
  61 01e0 20403FC0 		.ascii	" @?\300\004\000\004\000?\300 @"
  61      04000400 
  61      3FC02040 
  62 01ec 20402040 		.ascii	" @ @?\300 @ @\000\000"
  62      3FC02040 
  62      20400000 
  63 01f8 00602020 		.ascii	"\000`    ?\300 \000 \000"
  63      20203FC0 
  63      20002000 
  64 0204 20403FC0 		.ascii	" @?\300$@\013\0000\300 @"
  64      24400B00 
  64      30C02040 
  65 0210 20403FC0 		.ascii	" @?\300 @\000@\000@\000\300"
  65      20400040 
  65      004000C0 
  66 021c 3FC03C00 		.ascii	"?\300<\000\003\300<\000?\300\000\000"
  66      03C03C00 
  66      3FC00000 
  67 0228 20403FC0 		.ascii	" @?\300\014@#\000?\300 \000"
  67      0C402300 
  67      3FC02000 
  68 0234 1F802040 		.ascii	"\037\200 @ @ @\037\200\000\000"
  68      20402040 
  68      1F800000 
  69 0240 20403FC0 		.ascii	" @?\300$@$\000\030\000\000\000"
  69      24402400 
  69      18000000 
  70 024c 1F802140 		.ascii	"\037\200!@!@ \340\037\240\000\000"
  70      214020E0 
  70      1FA00000 
  71 0258 20403FC0 		.ascii	" @?\300$@&\000\031\300\000@"
  71      24402600 
  71      19C00040 
ARM GAS  /tmp/ccRHtd69.s 			page 4


  72 0264 18C02440 		.ascii	"\030\300$@$@\"@1\200\000\000"
  72      24402240 
  72      31800000 
  73 0270 30002040 		.ascii	"0\000 @?\300 @0\000\000\000"
  73      3FC02040 
  73      30000000 
  74 027c 20003F80 		.ascii	" \000?\200\000@\000@?\200 \000"
  74      00400040 
  74      3F802000 
  75 0288 20003E00 		.ascii	" \000>\000\001\300\007\0008\000 \000"
  75      01C00700 
  75      38002000 
  76 0294 380007C0 		.ascii	"8\000\007\300<\000\007\3008\000\000\000"
  76      3C0007C0 
  76      38000000 
  77 02a0 204039C0 		.ascii	" @9\300\006\0009\300 @\000\000"
  77      060039C0 
  77      20400000 
  78 02ac 20003840 		.ascii	" \0008@\007\3008@ \000\000\000"
  78      07C03840 
  78      20000000 
  79 02b8 304021C0 		.ascii	"0@!\300&@8@ \300\000\000"
  79      26403840 
  79      20C00000 
  80 02c4 00000000 		.ascii	"\000\000\000\000\177\340@ @ \000\000"
  80      7FE04020 
  80      40200000 
  81 02d0 00007000 		.ascii	"\000\000p\000\014\000\003\200\000@\000\000"
  81      0C000380 
  81      00400000 
  82 02dc 00004020 		.ascii	"\000\000@ @ \177\340\000\000\000\000"
  82      40207FE0 
  82      00000000 
  83 02e8 00002000 		.ascii	"\000\000 \000@\000 \000\000\000\000\000"
  83      40002000 
  83      00000000 
  84 02f4 00100010 		.ascii	"\000\020\000\020\000\020\000\020\000\020\000\020"
  84      00100010 
  84      00100010 
  85 0300 00000000 		.ascii	"\000\000\000\000@\000\000\000\000\000\000\000"
  85      40000000 
  85      00000000 
  86 030c 00000280 		.ascii	"\000\000\002\200\005@\005@\003\300\000@"
  86      05400540 
  86      03C00040 
  87 0318 20003FC0 		.ascii	" \000?\300\004@\004@\003\200\000\000"
  87      04400440 
  87      03800000 
  88 0324 00000380 		.ascii	"\000\000\003\200\004@\004@\006@\000\000"
  88      04400440 
  88      06400000 
  89 0330 00000380 		.ascii	"\000\000\003\200\004@$@?\300\000@"
  89      04402440 
  89      3FC00040 
  90 033c 00000380 		.ascii	"\000\000\003\200\005@\005@\003@\000\000"
  90      05400540 
  90      03400000 
ARM GAS  /tmp/ccRHtd69.s 			page 5


  91 0348 00000440 		.ascii	"\000\000\004@\037\300$@$@ \000"
  91      1FC02440 
  91      24402000 
  92 0354 000002E0 		.ascii	"\000\000\002\340\005P\005P\006P\004 "
  92      05500550 
  92      06500420 
  93 0360 20403FC0 		.ascii	" @?\300\004@\004\000\003\300\000@"
  93      04400400 
  93      03C00040 
  94 036c 00000440 		.ascii	"\000\000\004@'\300\000@\000\000\000\000"
  94      27C00040 
  94      00000000 
  95 0378 00100010 		.ascii	"\000\020\000\020\004\020'\340\000\000\000\000"
  95      041027E0 
  95      00000000 
  96 0384 20403FC0 		.ascii	" @?\300\001@\007\000\004\300\004@"
  96      01400700 
  96      04C00440 
  97 0390 20402040 		.ascii	" @ @?\300\000@\000@\000\000"
  97      3FC00040 
  97      00400000 
  98 039c 07C00400 		.ascii	"\007\300\004\000\007\300\004\000\003\300\000\000"
  98      07C00400 
  98      03C00000 
  99 03a8 044007C0 		.ascii	"\004@\007\300\004@\004\000\003\300\000@"
  99      04400400 
  99      03C00040 
 100 03b4 00000380 		.ascii	"\000\000\003\200\004@\004@\003\200\000\000"
 100      04400440 
 100      03800000 
 101 03c0 041007F0 		.ascii	"\004\020\007\360\004P\004@\003\200\000\000"
 101      04500440 
 101      03800000 
 102 03cc 00000380 		.ascii	"\000\000\003\200\004@\004P\007\360\000\020"
 102      04400450 
 102      07F00010 
 103 03d8 044007C0 		.ascii	"\004@\007\300\002@\004\000\004\000\000\000"
 103      02400400 
 103      04000000 
 104 03e4 00000640 		.ascii	"\000\000\006@\005@\005@\004\300\000\000"
 104      05400540 
 104      04C00000 
 105 03f0 00000400 		.ascii	"\000\000\004\000\037\200\004@\000@\000\000"
 105      1F800440 
 105      00400000 
 106 03fc 04000780 		.ascii	"\004\000\007\200\000@\004@\007\300\000@"
 106      00400440 
 106      07C00040 
 107 0408 04000700 		.ascii	"\004\000\007\000\004\300\001\200\006\000\004\000"
 107      04C00180 
 107      06000400 
 108 0414 060001C0 		.ascii	"\006\000\001\300\007\000\001\300\006\000\000\000"
 108      070001C0 
 108      06000000 
 109 0420 044006C0 		.ascii	"\004@\006\300\001\000\006\300\004@\000\000"
 109      010006C0 
 109      04400000 
ARM GAS  /tmp/ccRHtd69.s 			page 6


 110 042c 04100710 		.ascii	"\004\020\007\020\004\340\001\200\006\000\004\000"
 110      04E00180 
 110      06000400 
 111 0438 00000440 		.ascii	"\000\000\004@\005\300\006@\004@\000\000"
 111      05C00640 
 111      04400000 
 112 0444 00000000 		.ascii	"\000\000\000\000\004\000{\340@ \000\000"
 112      04007BE0 
 112      40200000 
 113 0450 00000000 		.ascii	"\000\000\000\000\000\000\377\360\000\000\000\000"
 113      0000FFF0 
 113      00000000 
 114 045c 00004020 		.ascii	"\000\000@ {\340\004\000\000\000\000\000"
 114      7BE00400 
 114      00000000 
 115 0468 40008000 		.ascii	"@\000\200\000@\000 \000 \000@\000"
 115      40002000 
 115      20004000 
 116              		.global	asc2_1608
 117              		.section	.rodata.asc2_1608,"a"
 118              		.align	2
 121              	asc2_1608:
 122 0000 00000000 		.ascii	"\000\000\000\000\000\000\000\000\000\000\000\000\000"
 122      00000000 
 122      00000000 
 122      00
 123 000d 000000   		.ascii	"\000\000\000"
 124 0010 00000000 		.ascii	"\000\000\000\000\000\000\037\314\000\014\000\000\000"
 124      00001FCC 
 124      000C0000 
 124      00
 125 001d 000000   		.ascii	"\000\000\000"
 126 0020 00000800 		.ascii	"\000\000\010\0000\000`\000\010\0000\000`\000\000\000"
 126      30006000 
 126      08003000 
 126      60000000 
 127 0030 022003FC 		.ascii	"\002 \003\374\036 \002 \003\374\036 \002 \000\000"
 127      1E200220 
 127      03FC1E20 
 127      02200000 
 128 0040 00000E18 		.ascii	"\000\000\016\030\021\004?\377\020\204\014x\000\000\000"
 128      11043FFF 
 128      10840C78 
 128      000000
 129 004f 00       		.ascii	"\000"
 130 0050 0F001084 		.ascii	"\017\000\020\204\0178\000\300\007x\030\204\000x\000"
 130      0F3800C0 
 130      07781884 
 130      007800
 131 005f 00       		.ascii	"\000"
 132 0060 00780F84 		.ascii	"\000x\017\204\020\304\021$\016\230\000\344\000\204\000"
 132      10C41124 
 132      0E9800E4 
 132      008400
 133 006f 08       		.ascii	"\010"
 134 0070 08006800 		.ascii	"\010\000h\000p\000\000\000\000\000\000\000\000\000\000"
 134      70000000 
ARM GAS  /tmp/ccRHtd69.s 			page 7


 134      00000000 
 134      000000
 135 007f 00       		.ascii	"\000"
 136 0080 00000000 		.ascii	"\000\000\000\000\000\000\007\340\030\030 \004@\002\000"
 136      000007E0 
 136      18182004 
 136      400200
 137 008f 00       		.ascii	"\000"
 138 0090 00004002 		.ascii	"\000\000@\002 \004\030\030\007\340\000\000\000\000\000"
 138      20041818 
 138      07E00000 
 138      000000
 139 009f 00       		.ascii	"\000"
 140 00a0 02400240 		.ascii	"\002@\002@\001\200\017\360\001\200\002@\002@\000\000"
 140      01800FF0 
 140      01800240 
 140      02400000 
 141 00b0 00800080 		.ascii	"\000\200\000\200\000\200\017\370\000\200\000\200\000"
 141      00800FF8 
 141      00800080 
 141      00
 142 00bd 800000   		.ascii	"\200\000\000"
 143 00c0 0001000D 		.ascii	"\000\001\000\015\000\016\000\000\000\000\000\000\000"
 143      000E0000 
 143      00000000 
 143      00
 144 00cd 000000   		.ascii	"\000\000\000"
 145 00d0 00000080 		.ascii	"\000\000\000\200\000\200\000\200\000\200\000\200\000"
 145      00800080 
 145      00800080 
 145      00
 146 00dd 800080   		.ascii	"\200\000\200"
 147 00e0 0000000C 		.ascii	"\000\000\000\014\000\014\000\000\000\000\000\000\000"
 147      000C0000 
 147      00000000 
 147      00
 148 00ed 000000   		.ascii	"\000\000\000"
 149 00f0 00000006 		.ascii	"\000\000\000\006\000\030\000`\001\200\006\000\030\000"
 149      00180060 
 149      01800600 
 149      1800
 150 00fe 2000     		.ascii	" \000"
 151 0100 000007F0 		.ascii	"\000\000\007\360\010\010\020\004\020\004\010\010\007"
 151      08081004 
 151      10040808 
 151      07
 152 010d F00000   		.ascii	"\360\000\000"
 153 0110 00000804 		.ascii	"\000\000\010\004\010\004\037\374\000\004\000\004\000"
 153      08041FFC 
 153      00040004 
 153      00
 154 011d 000000   		.ascii	"\000\000\000"
 155 0120 00000E0C 		.ascii	"\000\000\016\014\020\024\020$\020D\021\204\016\014\000"
 155      10141024 
 155      10441184 
 155      0E0C00
 156 012f 00       		.ascii	"\000"
ARM GAS  /tmp/ccRHtd69.s 			page 8


 157 0130 00000C18 		.ascii	"\000\000\014\030\020\004\021\004\021\004\022\210\014"
 157      10041104 
 157      11041288 
 157      0C
 158 013d 700000   		.ascii	"p\000\000"
 159 0140 000000E0 		.ascii	"\000\000\000\340\003 \004$\010$\037\374\000$\000\000"
 159      03200424 
 159      08241FFC 
 159      00240000 
 160 0150 00001F98 		.ascii	"\000\000\037\230\020\204\021\004\021\004\020\210\020"
 160      10841104 
 160      11041088 
 160      10
 161 015d 700000   		.ascii	"p\000\000"
 162 0160 000007F0 		.ascii	"\000\000\007\360\010\210\021\004\021\004\030\210\000"
 162      08881104 
 162      11041888 
 162      00
 163 016d 700000   		.ascii	"p\000\000"
 164 0170 00001C00 		.ascii	"\000\000\034\000\020\000\020\374\023\000\034\000\020"
 164      100010FC 
 164      13001C00 
 164      10
 165 017d 000000   		.ascii	"\000\000\000"
 166 0180 00000E38 		.ascii	"\000\000\0168\021D\020\204\020\204\021D\0168\000\000"
 166      11441084 
 166      10841144 
 166      0E380000 
 167 0190 00000700 		.ascii	"\000\000\007\000\010\214\020D\020D\010\210\007\360\000"
 167      088C1044 
 167      10440888 
 167      07F000
 168 019f 00       		.ascii	"\000"
 169 01a0 00000000 		.ascii	"\000\000\000\000\000\000\003\014\003\014\000\000\000"
 169      0000030C 
 169      030C0000 
 169      00
 170 01ad 000000   		.ascii	"\000\000\000"
 171 01b0 00000000 		.ascii	"\000\000\000\000\000\001\001\006\000\000\000\000\000"
 171      00010106 
 171      00000000 
 171      00
 172 01bd 000000   		.ascii	"\000\000\000"
 173 01c0 00000080 		.ascii	"\000\000\000\200\001@\002 \004\020\010\010\020\004\000"
 173      01400220 
 173      04100808 
 173      100400
 174 01cf 00       		.ascii	"\000"
 175 01d0 02200220 		.ascii	"\002 \002 \002 \002 \002 \002 \002 \000\000"
 175      02200220 
 175      02200220 
 175      02200000 
 176 01e0 00001004 		.ascii	"\000\000\020\004\010\010\004\020\002 \001@\000\200\000"
 176      08080410 
 176      02200140 
 176      008000
 177 01ef 00       		.ascii	"\000"
ARM GAS  /tmp/ccRHtd69.s 			page 9


 178 01f0 00000E00 		.ascii	"\000\000\016\000\022\000\020\014\020l\020\200\017\000"
 178      1200100C 
 178      106C1080 
 178      0F00
 179 01fe 0000     		.ascii	"\000\000"
 180 0200 03E00C18 		.ascii	"\003\340\014\030\023\344\024$\027\304\010(\007\320\000"
 180      13E41424 
 180      17C40828 
 180      07D000
 181 020f 00       		.ascii	"\000"
 182 0210 0004003C 		.ascii	"\000\004\000<\003\304\034@\007@\000\344\000\034\000"
 182      03C41C40 
 182      074000E4 
 182      001C00
 183 021f 04       		.ascii	"\004"
 184 0220 10041FFC 		.ascii	"\020\004\037\374\021\004\021\004\021\004\016\210\000"
 184      11041104 
 184      11040E88 
 184      00
 185 022d 700000   		.ascii	"p\000\000"
 186 0230 03E00C18 		.ascii	"\003\340\014\030\020\004\020\004\020\004\020\010\034"
 186      10041004 
 186      10041008 
 186      1C
 187 023d 100000   		.ascii	"\020\000\000"
 188 0240 10041FFC 		.ascii	"\020\004\037\374\020\004\020\004\020\004\010\010\007"
 188      10041004 
 188      10040808 
 188      07
 189 024d F00000   		.ascii	"\360\000\000"
 190 0250 10041FFC 		.ascii	"\020\004\037\374\021\004\021\004\027\304\020\004\010"
 190      11041104 
 190      17C41004 
 190      08
 191 025d 180000   		.ascii	"\030\000\000"
 192 0260 10041FFC 		.ascii	"\020\004\037\374\021\004\021\000\027\300\020\000\010"
 192      11041100 
 192      17C01000 
 192      08
 193 026d 000000   		.ascii	"\000\000\000"
 194 0270 03E00C18 		.ascii	"\003\340\014\030\020\004\020\004\020D\034x\000@\000"
 194      10041004 
 194      10441C78 
 194      004000
 195 027f 00       		.ascii	"\000"
 196 0280 10041FFC 		.ascii	"\020\004\037\374\020\204\000\200\000\200\020\204\037"
 196      10840080 
 196      00801084 
 196      1F
 197 028d FC1004   		.ascii	"\374\020\004"
 198 0290 00001004 		.ascii	"\000\000\020\004\020\004\037\374\020\004\020\004\000"
 198      10041FFC 
 198      10041004 
 198      00
 199 029d 000000   		.ascii	"\000\000\000"
 200 02a0 00030001 		.ascii	"\000\003\000\001\020\001\020\001\037\376\020\000\020"
 200      10011001 
ARM GAS  /tmp/ccRHtd69.s 			page 10


 200      1FFE1000 
 200      10
 201 02ad 000000   		.ascii	"\000\000\000"
 202 02b0 10041FFC 		.ascii	"\020\004\037\374\021\004\003\200\024d\030\034\020\004"
 202      11040380 
 202      1464181C 
 202      1004
 203 02be 0000     		.ascii	"\000\000"
 204 02c0 10041FFC 		.ascii	"\020\004\037\374\020\004\000\004\000\004\000\004\000"
 204      10040004 
 204      00040004 
 204      00
 205 02cd 0C0000   		.ascii	"\014\000\000"
 206 02d0 10041FFC 		.ascii	"\020\004\037\374\037\000\000\374\037\000\037\374\020"
 206      1F0000FC 
 206      1F001FFC 
 206      10
 207 02dd 040000   		.ascii	"\004\000\000"
 208 02e0 10041FFC 		.ascii	"\020\004\037\374\014\004\003\000\000\340\020\030\037"
 208      0C040300 
 208      00E01018 
 208      1F
 209 02ed FC1000   		.ascii	"\374\020\000"
 210 02f0 07F00808 		.ascii	"\007\360\010\010\020\004\020\004\020\004\010\010\007"
 210      10041004 
 210      10040808 
 210      07
 211 02fd F00000   		.ascii	"\360\000\000"
 212 0300 10041FFC 		.ascii	"\020\004\037\374\020\204\020\200\020\200\020\200\017"
 212      10841080 
 212      10801080 
 212      0F
 213 030d 000000   		.ascii	"\000\000\000"
 214 0310 07F00818 		.ascii	"\007\360\010\030\020$\020$\020\034\010\012\007\362\000"
 214      10241024 
 214      101C080A 
 214      07F200
 215 031f 00       		.ascii	"\000"
 216 0320 10041FFC 		.ascii	"\020\004\037\374\021\004\021\000\021\300\0210\016\014"
 216      11041100 
 216      11C01130 
 216      0E0C
 217 032e 0004     		.ascii	"\000\004"
 218 0330 00000E1C 		.ascii	"\000\000\016\034\021\004\020\204\020\204\020D\0348\000"
 218      11041084 
 218      10841044 
 218      1C3800
 219 033f 00       		.ascii	"\000"
 220 0340 18001000 		.ascii	"\030\000\020\000\020\004\037\374\020\004\020\000\030"
 220      10041FFC 
 220      10041000 
 220      18
 221 034d 000000   		.ascii	"\000\000\000"
 222 0350 10001FF8 		.ascii	"\020\000\037\370\020\004\000\004\000\004\020\004\037"
 222      10040004 
 222      00041004 
 222      1F
ARM GAS  /tmp/ccRHtd69.s 			page 11


 223 035d F81000   		.ascii	"\370\020\000"
 224 0360 10001E00 		.ascii	"\020\000\036\000\021\340\000\034\000p\023\200\034\000"
 224      11E0001C 
 224      00701380 
 224      1C00
 225 036e 1000     		.ascii	"\020\000"
 226 0370 1FC0103C 		.ascii	"\037\300\020<\000\340\037\000\000\340\020<\037\300\000"
 226      00E01F00 
 226      00E0103C 
 226      1FC000
 227 037f 00       		.ascii	"\000"
 228 0380 1004180C 		.ascii	"\020\004\030\014\0264\001\300\001\300\0264\030\014\020"
 228      163401C0 
 228      01C01634 
 228      180C10
 229 038f 04       		.ascii	"\004"
 230 0390 10001C00 		.ascii	"\020\000\034\000\023\004\000\374\023\004\034\000\020"
 230      130400FC 
 230      13041C00 
 230      10
 231 039d 000000   		.ascii	"\000\000\000"
 232 03a0 0804101C 		.ascii	"\010\004\020\034\020d\020\204\023\004\034\004\020\030"
 232      10641084 
 232      13041C04 
 232      1018
 233 03ae 0000     		.ascii	"\000\000"
 234 03b0 00000000 		.ascii	"\000\000\000\000\000\000\177\376@\002@\002@\002\000"
 234      00007FFE 
 234      40024002 
 234      400200
 235 03bf 00       		.ascii	"\000"
 236 03c0 00003000 		.ascii	"\000\0000\000\014\000\003\200\000`\000\034\000\003\000"
 236      0C000380 
 236      0060001C 
 236      000300
 237 03cf 00       		.ascii	"\000"
 238 03d0 00004002 		.ascii	"\000\000@\002@\002@\002\177\376\000\000\000\000\000"
 238      40024002 
 238      7FFE0000 
 238      000000
 239 03df 00       		.ascii	"\000"
 240 03e0 00000000 		.ascii	"\000\000\000\000 \000@\000@\000@\000 \000\000\000"
 240      20004000 
 240      40004000 
 240      20000000 
 241 03f0 00010001 		.ascii	"\000\001\000\001\000\001\000\001\000\001\000\001\000"
 241      00010001 
 241      00010001 
 241      00
 242 03fd 010001   		.ascii	"\001\000\001"
 243 0400 00004000 		.ascii	"\000\000@\000@\000 \000\000\000\000\000\000\000\000"
 243      40002000 
 243      00000000 
 243      000000
 244 040f 00       		.ascii	"\000"
 245 0410 00000098 		.ascii	"\000\000\000\230\001$\001D\001D\001D\000\374\000\004"
 245      01240144 
ARM GAS  /tmp/ccRHtd69.s 			page 12


 245      01440144 
 245      00FC0004 
 246 0420 10001FFC 		.ascii	"\020\000\037\374\000\210\001\004\001\004\000\210\000"
 246      00880104 
 246      01040088 
 246      00
 247 042d 700000   		.ascii	"p\000\000"
 248 0430 00000070 		.ascii	"\000\000\000p\000\210\001\004\001\004\001\004\000\210"
 248      00880104 
 248      01040104 
 248      0088
 249 043e 0000     		.ascii	"\000\000"
 250 0440 00000070 		.ascii	"\000\000\000p\000\210\001\004\001\004\021\010\037\374"
 250      00880104 
 250      01041108 
 250      1FFC
 251 044e 0004     		.ascii	"\000\004"
 252 0450 000000F8 		.ascii	"\000\000\000\370\001D\001D\001D\001D\000\310\000\000"
 252      01440144 
 252      01440144 
 252      00C80000 
 253 0460 00000104 		.ascii	"\000\000\001\004\001\004\017\374\021\004\021\004\021"
 253      01040FFC 
 253      11041104 
 253      11
 254 046d 001800   		.ascii	"\000\030\000"
 255 0470 000000D6 		.ascii	"\000\000\000\326\001)\001)\001)\001\311\001\006\000"
 255      01290129 
 255      012901C9 
 255      010600
 256 047f 00       		.ascii	"\000"
 257 0480 10041FFC 		.ascii	"\020\004\037\374\000\204\001\000\001\000\001\004\000"
 257      00840100 
 257      01000104 
 257      00
 258 048d FC0004   		.ascii	"\374\000\004"
 259 0490 00000104 		.ascii	"\000\000\001\004\031\004\031\374\000\004\000\004\000"
 259      190419FC 
 259      00040004 
 259      00
 260 049d 000000   		.ascii	"\000\000\000"
 261 04a0 00000003 		.ascii	"\000\000\000\003\000\001\001\001\031\001\031\376\000"
 261      00010101 
 261      190119FE 
 261      00
 262 04ad 000000   		.ascii	"\000\000\000"
 263 04b0 10041FFC 		.ascii	"\020\004\037\374\000$\000@\001\264\001\014\001\004\000"
 263      00240040 
 263      01B4010C 
 263      010400
 264 04bf 00       		.ascii	"\000"
 265 04c0 00001004 		.ascii	"\000\000\020\004\020\004\037\374\000\004\000\004\000"
 265      10041FFC 
 265      00040004 
 265      00
 266 04cd 000000   		.ascii	"\000\000\000"
 267 04d0 010401FC 		.ascii	"\001\004\001\374\001\004\001\000\001\374\001\004\001"
ARM GAS  /tmp/ccRHtd69.s 			page 13


 267      01040100 
 267      01FC0104 
 267      01
 268 04dd 0000FC   		.ascii	"\000\000\374"
 269 04e0 010401FC 		.ascii	"\001\004\001\374\000\204\001\000\001\000\001\004\000"
 269      00840100 
 269      01000104 
 269      00
 270 04ed FC0004   		.ascii	"\374\000\004"
 271 04f0 000000F8 		.ascii	"\000\000\000\370\001\004\001\004\001\004\001\004\000"
 271      01040104 
 271      01040104 
 271      00
 272 04fd F80000   		.ascii	"\370\000\000"
 273 0500 010101FF 		.ascii	"\001\001\001\377\000\205\001\004\001\004\000\210\000"
 273      00850104 
 273      01040088 
 273      00
 274 050d 700000   		.ascii	"p\000\000"
 275 0510 00000070 		.ascii	"\000\000\000p\000\210\001\004\001\004\001\005\001\377"
 275      00880104 
 275      01040105 
 275      01FF
 276 051e 0001     		.ascii	"\000\001"
 277 0520 01040104 		.ascii	"\001\004\001\004\001\374\000\204\001\004\001\000\001"
 277      01FC0084 
 277      01040100 
 277      01
 278 052d 800000   		.ascii	"\200\000\000"
 279 0530 000000CC 		.ascii	"\000\000\000\314\001$\001$\001$\001$\001\230\000\000"
 279      01240124 
 279      01240124 
 279      01980000 
 280 0540 00000100 		.ascii	"\000\000\001\000\001\000\007\370\001\004\001\004\000"
 280      010007F8 
 280      01040104 
 280      00
 281 054d 000000   		.ascii	"\000\000\000"
 282 0550 010001F8 		.ascii	"\001\000\001\370\000\004\000\004\000\004\001\010\001"
 282      00040004 
 282      00040108 
 282      01
 283 055d FC0004   		.ascii	"\374\000\004"
 284 0560 01000180 		.ascii	"\001\000\001\200\001p\000\014\000\020\001`\001\200\001"
 284      0170000C 
 284      00100160 
 284      018001
 285 056f 00       		.ascii	"\000"
 286 0570 01F0010C 		.ascii	"\001\360\001\014\0000\001\300\0000\001\014\001\360\001"
 286      003001C0 
 286      0030010C 
 286      01F001
 287 057f 00       		.ascii	"\000"
 288 0580 00000104 		.ascii	"\000\000\001\004\001\214\000t\001p\001\214\001\004\000"
 288      018C0074 
 288      0170018C 
 288      010400
ARM GAS  /tmp/ccRHtd69.s 			page 14


 289 058f 00       		.ascii	"\000"
 290 0590 01010181 		.ascii	"\001\001\001\201\001q\000\016\000\030\001`\001\200\001"
 290      0171000E 
 290      00180160 
 290      018001
 291 059f 00       		.ascii	"\000"
 292 05a0 00000184 		.ascii	"\000\000\001\204\001\014\0014\001D\001\204\001\014\000"
 292      010C0134 
 292      01440184 
 292      010C00
 293 05af 00       		.ascii	"\000"
 294 05b0 00000000 		.ascii	"\000\000\000\000\000\000\000\000\001\000>\374@\002@"
 294      00000000 
 294      01003EFC 
 294      400240
 295 05bf 02       		.ascii	"\002"
 296 05c0 00000000 		.ascii	"\000\000\000\000\000\000\000\000\377\377\000\000\000"
 296      00000000 
 296      FFFF0000 
 296      00
 297 05cd 000000   		.ascii	"\000\000\000"
 298 05d0 00004002 		.ascii	"\000\000@\002@\002>\374\001\000\000\000\000\000\000"
 298      40023EFC 
 298      01000000 
 298      000000
 299 05df 00       		.ascii	"\000"
 300 05e0 00006000 		.ascii	"\000\000`\000\200\000\200\000@\000@\000 \000 \000"
 300      80008000 
 300      40004000 
 300      20002000 
 301              		.global	POINT_COLOR
 302              		.section	.bss.POINT_COLOR,"aw",%nobits
 303              		.align	1
 306              	POINT_COLOR:
 307 0000 0000     		.space	2
 308              		.global	BACK_COLOR
 309              		.section	.data.BACK_COLOR,"aw"
 310              		.align	1
 313              	BACK_COLOR:
 314 0000 FFFF     		.short	-1
 315              		.global	lcddev
 316              		.section	.bss.lcddev,"aw",%nobits
 317              		.align	2
 320              	lcddev:
 321 0000 00000000 		.space	14
 321      00000000 
 321      00000000 
 321      0000
 322              		.section	.text.LCD_WR_REG,"ax",%progbits
 323              		.align	1
 324              		.global	LCD_WR_REG
 325              		.arch armv7-m
 326              		.syntax unified
 327              		.thumb
 328              		.thumb_func
 329              		.fpu softvfp
 331              	LCD_WR_REG:
ARM GAS  /tmp/ccRHtd69.s 			page 15


 332              	.LFB66:
 333              		.file 1 "hardware/src/lcd.c"
   1:hardware/src/lcd.c **** #include "lcd.h"
   2:hardware/src/lcd.c **** #include "stdio.h"
   3:hardware/src/lcd.c **** #include "font.h" 
   4:hardware/src/lcd.c **** #include "delay.h"
   5:hardware/src/lcd.c **** #include "AllHead.h"	   
   6:hardware/src/lcd.c **** 				 
   7:hardware/src/lcd.c **** //LCD的画笔颜色和背景色	   
   8:hardware/src/lcd.c **** u16 POINT_COLOR=0x0000;	//画笔颜色
   9:hardware/src/lcd.c **** u16 BACK_COLOR=0xFFFF;  //背景色 
  10:hardware/src/lcd.c **** 
  11:hardware/src/lcd.c **** //管理LCD重要参数
  12:hardware/src/lcd.c **** //默认为竖屏
  13:hardware/src/lcd.c **** _lcd_dev lcddev;
  14:hardware/src/lcd.c **** 	 
  15:hardware/src/lcd.c **** //写寄存器函数
  16:hardware/src/lcd.c **** //regval:寄存器值
  17:hardware/src/lcd.c **** void LCD_WR_REG(u16 regval)
  18:hardware/src/lcd.c **** { 
 334              		.loc 1 18 1
 335              		.cfi_startproc
 336              		@ args = 0, pretend = 0, frame = 8
 337              		@ frame_needed = 1, uses_anonymous_args = 0
 338              		@ link register save eliminated.
 339 0000 80B4     		push	{r7}
 340              	.LCFI0:
 341              		.cfi_def_cfa_offset 4
 342              		.cfi_offset 7, -4
 343 0002 83B0     		sub	sp, sp, #12
 344              	.LCFI1:
 345              		.cfi_def_cfa_offset 16
 346 0004 00AF     		add	r7, sp, #0
 347              	.LCFI2:
 348              		.cfi_def_cfa_register 7
 349 0006 0346     		mov	r3, r0
 350 0008 FB80     		strh	r3, [r7, #6]	@ movhi
  19:hardware/src/lcd.c **** 	LCD->LCD_REG=regval;//写入要写的寄存器序号	 
 351              		.loc 1 19 5
 352 000a 044A     		ldr	r2, .L2
 353              		.loc 1 19 14
 354 000c FB88     		ldrh	r3, [r7, #6]	@ movhi
 355 000e 1380     		strh	r3, [r2]	@ movhi
  20:hardware/src/lcd.c **** }
 356              		.loc 1 20 1
 357 0010 00BF     		nop
 358 0012 0C37     		adds	r7, r7, #12
 359              	.LCFI3:
 360              		.cfi_def_cfa_offset 4
 361 0014 BD46     		mov	sp, r7
 362              	.LCFI4:
 363              		.cfi_def_cfa_register 13
 364              		@ sp needed
 365 0016 80BC     		pop	{r7}
 366              	.LCFI5:
 367              		.cfi_restore 7
 368              		.cfi_def_cfa_offset 0
ARM GAS  /tmp/ccRHtd69.s 			page 16


 369 0018 7047     		bx	lr
 370              	.L3:
 371 001a 00BF     		.align	2
 372              	.L2:
 373 001c FE07006C 		.word	1811941374
 374              		.cfi_endproc
 375              	.LFE66:
 377              		.section	.text.LCD_WR_DATA,"ax",%progbits
 378              		.align	1
 379              		.global	LCD_WR_DATA
 380              		.syntax unified
 381              		.thumb
 382              		.thumb_func
 383              		.fpu softvfp
 385              	LCD_WR_DATA:
 386              	.LFB67:
  21:hardware/src/lcd.c **** //写LCD数据
  22:hardware/src/lcd.c **** //data:要写入的值
  23:hardware/src/lcd.c **** void LCD_WR_DATA(u16 data)
  24:hardware/src/lcd.c **** {										    	   
 387              		.loc 1 24 1
 388              		.cfi_startproc
 389              		@ args = 0, pretend = 0, frame = 8
 390              		@ frame_needed = 1, uses_anonymous_args = 0
 391              		@ link register save eliminated.
 392 0000 80B4     		push	{r7}
 393              	.LCFI6:
 394              		.cfi_def_cfa_offset 4
 395              		.cfi_offset 7, -4
 396 0002 83B0     		sub	sp, sp, #12
 397              	.LCFI7:
 398              		.cfi_def_cfa_offset 16
 399 0004 00AF     		add	r7, sp, #0
 400              	.LCFI8:
 401              		.cfi_def_cfa_register 7
 402 0006 0346     		mov	r3, r0
 403 0008 FB80     		strh	r3, [r7, #6]	@ movhi
  25:hardware/src/lcd.c **** 	LCD->LCD_RAM=data;		 
 404              		.loc 1 25 5
 405 000a 044A     		ldr	r2, .L5
 406              		.loc 1 25 14
 407 000c FB88     		ldrh	r3, [r7, #6]	@ movhi
 408 000e 5380     		strh	r3, [r2, #2]	@ movhi
  26:hardware/src/lcd.c **** }
 409              		.loc 1 26 1
 410 0010 00BF     		nop
 411 0012 0C37     		adds	r7, r7, #12
 412              	.LCFI9:
 413              		.cfi_def_cfa_offset 4
 414 0014 BD46     		mov	sp, r7
 415              	.LCFI10:
 416              		.cfi_def_cfa_register 13
 417              		@ sp needed
 418 0016 80BC     		pop	{r7}
 419              	.LCFI11:
 420              		.cfi_restore 7
 421              		.cfi_def_cfa_offset 0
ARM GAS  /tmp/ccRHtd69.s 			page 17


 422 0018 7047     		bx	lr
 423              	.L6:
 424 001a 00BF     		.align	2
 425              	.L5:
 426 001c FE07006C 		.word	1811941374
 427              		.cfi_endproc
 428              	.LFE67:
 430              		.section	.text.LCD_RD_DATA,"ax",%progbits
 431              		.align	1
 432              		.global	LCD_RD_DATA
 433              		.syntax unified
 434              		.thumb
 435              		.thumb_func
 436              		.fpu softvfp
 438              	LCD_RD_DATA:
 439              	.LFB68:
  27:hardware/src/lcd.c **** //读LCD数据
  28:hardware/src/lcd.c **** //返回值:读到的值
  29:hardware/src/lcd.c **** u16 LCD_RD_DATA(void)
  30:hardware/src/lcd.c **** {										    	   
 440              		.loc 1 30 1
 441              		.cfi_startproc
 442              		@ args = 0, pretend = 0, frame = 0
 443              		@ frame_needed = 1, uses_anonymous_args = 0
 444              		@ link register save eliminated.
 445 0000 80B4     		push	{r7}
 446              	.LCFI12:
 447              		.cfi_def_cfa_offset 4
 448              		.cfi_offset 7, -4
 449 0002 00AF     		add	r7, sp, #0
 450              	.LCFI13:
 451              		.cfi_def_cfa_register 7
  31:hardware/src/lcd.c **** 	return LCD->LCD_RAM;		 
 452              		.loc 1 31 12
 453 0004 024B     		ldr	r3, .L9
 454 0006 5B88     		ldrh	r3, [r3, #2]
  32:hardware/src/lcd.c **** }					   
 455              		.loc 1 32 1
 456 0008 1846     		mov	r0, r3
 457 000a BD46     		mov	sp, r7
 458              	.LCFI14:
 459              		.cfi_def_cfa_register 13
 460              		@ sp needed
 461 000c 80BC     		pop	{r7}
 462              	.LCFI15:
 463              		.cfi_restore 7
 464              		.cfi_def_cfa_offset 0
 465 000e 7047     		bx	lr
 466              	.L10:
 467              		.align	2
 468              	.L9:
 469 0010 FE07006C 		.word	1811941374
 470              		.cfi_endproc
 471              	.LFE68:
 473              		.section	.text.LCD_WriteReg,"ax",%progbits
 474              		.align	1
 475              		.global	LCD_WriteReg
ARM GAS  /tmp/ccRHtd69.s 			page 18


 476              		.syntax unified
 477              		.thumb
 478              		.thumb_func
 479              		.fpu softvfp
 481              	LCD_WriteReg:
 482              	.LFB69:
  33:hardware/src/lcd.c **** //写寄存器
  34:hardware/src/lcd.c **** //LCD_Reg:寄存器地址
  35:hardware/src/lcd.c **** //LCD_RegValue:要写入的数据
  36:hardware/src/lcd.c **** void LCD_WriteReg(u16 LCD_Reg, u16 LCD_RegValue)
  37:hardware/src/lcd.c **** {	
 483              		.loc 1 37 1
 484              		.cfi_startproc
 485              		@ args = 0, pretend = 0, frame = 8
 486              		@ frame_needed = 1, uses_anonymous_args = 0
 487              		@ link register save eliminated.
 488 0000 80B4     		push	{r7}
 489              	.LCFI16:
 490              		.cfi_def_cfa_offset 4
 491              		.cfi_offset 7, -4
 492 0002 83B0     		sub	sp, sp, #12
 493              	.LCFI17:
 494              		.cfi_def_cfa_offset 16
 495 0004 00AF     		add	r7, sp, #0
 496              	.LCFI18:
 497              		.cfi_def_cfa_register 7
 498 0006 0346     		mov	r3, r0
 499 0008 0A46     		mov	r2, r1
 500 000a FB80     		strh	r3, [r7, #6]	@ movhi
 501 000c 1346     		mov	r3, r2	@ movhi
 502 000e BB80     		strh	r3, [r7, #4]	@ movhi
  38:hardware/src/lcd.c **** 	LCD->LCD_REG = LCD_Reg;		//写入要写的寄存器序号	 
 503              		.loc 1 38 5
 504 0010 054A     		ldr	r2, .L12
 505              		.loc 1 38 15
 506 0012 FB88     		ldrh	r3, [r7, #6]	@ movhi
 507 0014 1380     		strh	r3, [r2]	@ movhi
  39:hardware/src/lcd.c **** 	LCD->LCD_RAM = LCD_RegValue;//写入数据	    		 
 508              		.loc 1 39 5
 509 0016 044A     		ldr	r2, .L12
 510              		.loc 1 39 15
 511 0018 BB88     		ldrh	r3, [r7, #4]	@ movhi
 512 001a 5380     		strh	r3, [r2, #2]	@ movhi
  40:hardware/src/lcd.c **** }	   
 513              		.loc 1 40 1
 514 001c 00BF     		nop
 515 001e 0C37     		adds	r7, r7, #12
 516              	.LCFI19:
 517              		.cfi_def_cfa_offset 4
 518 0020 BD46     		mov	sp, r7
 519              	.LCFI20:
 520              		.cfi_def_cfa_register 13
 521              		@ sp needed
 522 0022 80BC     		pop	{r7}
 523              	.LCFI21:
 524              		.cfi_restore 7
 525              		.cfi_def_cfa_offset 0
ARM GAS  /tmp/ccRHtd69.s 			page 19


 526 0024 7047     		bx	lr
 527              	.L13:
 528 0026 00BF     		.align	2
 529              	.L12:
 530 0028 FE07006C 		.word	1811941374
 531              		.cfi_endproc
 532              	.LFE69:
 534              		.section	.text.LCD_ReadReg,"ax",%progbits
 535              		.align	1
 536              		.global	LCD_ReadReg
 537              		.syntax unified
 538              		.thumb
 539              		.thumb_func
 540              		.fpu softvfp
 542              	LCD_ReadReg:
 543              	.LFB70:
  41:hardware/src/lcd.c **** //读寄存器
  42:hardware/src/lcd.c **** //LCD_Reg:寄存器地址
  43:hardware/src/lcd.c **** //返回值:读到的数据
  44:hardware/src/lcd.c **** u16 LCD_ReadReg(u16 LCD_Reg)
  45:hardware/src/lcd.c **** {										   
 544              		.loc 1 45 1
 545              		.cfi_startproc
 546              		@ args = 0, pretend = 0, frame = 8
 547              		@ frame_needed = 1, uses_anonymous_args = 0
 548 0000 80B5     		push	{r7, lr}
 549              	.LCFI22:
 550              		.cfi_def_cfa_offset 8
 551              		.cfi_offset 7, -8
 552              		.cfi_offset 14, -4
 553 0002 82B0     		sub	sp, sp, #8
 554              	.LCFI23:
 555              		.cfi_def_cfa_offset 16
 556 0004 00AF     		add	r7, sp, #0
 557              	.LCFI24:
 558              		.cfi_def_cfa_register 7
 559 0006 0346     		mov	r3, r0
 560 0008 FB80     		strh	r3, [r7, #6]	@ movhi
  46:hardware/src/lcd.c **** 	LCD_WR_REG(LCD_Reg);		//写入要读的寄存器序号
 561              		.loc 1 46 2
 562 000a FB88     		ldrh	r3, [r7, #6]
 563 000c 1846     		mov	r0, r3
 564 000e FFF7FEFF 		bl	LCD_WR_REG
  47:hardware/src/lcd.c **** 	delay_us(5);		  
 565              		.loc 1 47 2
 566 0012 0520     		movs	r0, #5
 567 0014 FFF7FEFF 		bl	delay_us
  48:hardware/src/lcd.c **** 	return LCD_RD_DATA();		//返回读到的值
 568              		.loc 1 48 9
 569 0018 FFF7FEFF 		bl	LCD_RD_DATA
 570 001c 0346     		mov	r3, r0
  49:hardware/src/lcd.c **** }   
 571              		.loc 1 49 1
 572 001e 1846     		mov	r0, r3
 573 0020 0837     		adds	r7, r7, #8
 574              	.LCFI25:
 575              		.cfi_def_cfa_offset 8
ARM GAS  /tmp/ccRHtd69.s 			page 20


 576 0022 BD46     		mov	sp, r7
 577              	.LCFI26:
 578              		.cfi_def_cfa_register 13
 579              		@ sp needed
 580 0024 80BD     		pop	{r7, pc}
 581              		.cfi_endproc
 582              	.LFE70:
 584              		.section	.text.LCD_WriteRAM_Prepare,"ax",%progbits
 585              		.align	1
 586              		.global	LCD_WriteRAM_Prepare
 587              		.syntax unified
 588              		.thumb
 589              		.thumb_func
 590              		.fpu softvfp
 592              	LCD_WriteRAM_Prepare:
 593              	.LFB71:
  50:hardware/src/lcd.c **** //开始写GRAM
  51:hardware/src/lcd.c **** void LCD_WriteRAM_Prepare(void)
  52:hardware/src/lcd.c **** {
 594              		.loc 1 52 1
 595              		.cfi_startproc
 596              		@ args = 0, pretend = 0, frame = 0
 597              		@ frame_needed = 1, uses_anonymous_args = 0
 598              		@ link register save eliminated.
 599 0000 80B4     		push	{r7}
 600              	.LCFI27:
 601              		.cfi_def_cfa_offset 4
 602              		.cfi_offset 7, -4
 603 0002 00AF     		add	r7, sp, #0
 604              	.LCFI28:
 605              		.cfi_def_cfa_register 7
  53:hardware/src/lcd.c ****  	LCD->LCD_REG=lcddev.wramcmd;	  
 606              		.loc 1 53 6
 607 0004 034B     		ldr	r3, .L17
 608              		.loc 1 53 22
 609 0006 044A     		ldr	r2, .L17+4
 610 0008 1289     		ldrh	r2, [r2, #8]
 611              		.loc 1 53 15
 612 000a 1A80     		strh	r2, [r3]	@ movhi
  54:hardware/src/lcd.c **** }	 
 613              		.loc 1 54 1
 614 000c 00BF     		nop
 615 000e BD46     		mov	sp, r7
 616              	.LCFI29:
 617              		.cfi_def_cfa_register 13
 618              		@ sp needed
 619 0010 80BC     		pop	{r7}
 620              	.LCFI30:
 621              		.cfi_restore 7
 622              		.cfi_def_cfa_offset 0
 623 0012 7047     		bx	lr
 624              	.L18:
 625              		.align	2
 626              	.L17:
 627 0014 FE07006C 		.word	1811941374
 628 0018 00000000 		.word	lcddev
 629              		.cfi_endproc
ARM GAS  /tmp/ccRHtd69.s 			page 21


 630              	.LFE71:
 632              		.section	.text.LCD_WriteRAM,"ax",%progbits
 633              		.align	1
 634              		.global	LCD_WriteRAM
 635              		.syntax unified
 636              		.thumb
 637              		.thumb_func
 638              		.fpu softvfp
 640              	LCD_WriteRAM:
 641              	.LFB72:
  55:hardware/src/lcd.c **** //LCD写GRAM
  56:hardware/src/lcd.c **** //RGB_Code:颜色值
  57:hardware/src/lcd.c **** void LCD_WriteRAM(u16 RGB_Code)
  58:hardware/src/lcd.c **** {							    
 642              		.loc 1 58 1
 643              		.cfi_startproc
 644              		@ args = 0, pretend = 0, frame = 8
 645              		@ frame_needed = 1, uses_anonymous_args = 0
 646              		@ link register save eliminated.
 647 0000 80B4     		push	{r7}
 648              	.LCFI31:
 649              		.cfi_def_cfa_offset 4
 650              		.cfi_offset 7, -4
 651 0002 83B0     		sub	sp, sp, #12
 652              	.LCFI32:
 653              		.cfi_def_cfa_offset 16
 654 0004 00AF     		add	r7, sp, #0
 655              	.LCFI33:
 656              		.cfi_def_cfa_register 7
 657 0006 0346     		mov	r3, r0
 658 0008 FB80     		strh	r3, [r7, #6]	@ movhi
  59:hardware/src/lcd.c **** 	LCD->LCD_RAM = RGB_Code;//写十六位GRAM
 659              		.loc 1 59 5
 660 000a 044A     		ldr	r2, .L20
 661              		.loc 1 59 15
 662 000c FB88     		ldrh	r3, [r7, #6]	@ movhi
 663 000e 5380     		strh	r3, [r2, #2]	@ movhi
  60:hardware/src/lcd.c **** }
 664              		.loc 1 60 1
 665 0010 00BF     		nop
 666 0012 0C37     		adds	r7, r7, #12
 667              	.LCFI34:
 668              		.cfi_def_cfa_offset 4
 669 0014 BD46     		mov	sp, r7
 670              	.LCFI35:
 671              		.cfi_def_cfa_register 13
 672              		@ sp needed
 673 0016 80BC     		pop	{r7}
 674              	.LCFI36:
 675              		.cfi_restore 7
 676              		.cfi_def_cfa_offset 0
 677 0018 7047     		bx	lr
 678              	.L21:
 679 001a 00BF     		.align	2
 680              	.L20:
 681 001c FE07006C 		.word	1811941374
 682              		.cfi_endproc
ARM GAS  /tmp/ccRHtd69.s 			page 22


 683              	.LFE72:
 685              		.section	.text.LCD_BGR2RGB,"ax",%progbits
 686              		.align	1
 687              		.global	LCD_BGR2RGB
 688              		.syntax unified
 689              		.thumb
 690              		.thumb_func
 691              		.fpu softvfp
 693              	LCD_BGR2RGB:
 694              	.LFB73:
  61:hardware/src/lcd.c **** //从ILI93xx读出的数据为GBR格式，而我们写入的时候为RGB格式。
  62:hardware/src/lcd.c **** //通过该函数转换
  63:hardware/src/lcd.c **** //c:GBR格式的颜色值
  64:hardware/src/lcd.c **** //返回值：RGB格式的颜色值
  65:hardware/src/lcd.c **** u16 LCD_BGR2RGB(u16 c)
  66:hardware/src/lcd.c **** {
 695              		.loc 1 66 1
 696              		.cfi_startproc
 697              		@ args = 0, pretend = 0, frame = 16
 698              		@ frame_needed = 1, uses_anonymous_args = 0
 699              		@ link register save eliminated.
 700 0000 80B4     		push	{r7}
 701              	.LCFI37:
 702              		.cfi_def_cfa_offset 4
 703              		.cfi_offset 7, -4
 704 0002 85B0     		sub	sp, sp, #20
 705              	.LCFI38:
 706              		.cfi_def_cfa_offset 24
 707 0004 00AF     		add	r7, sp, #0
 708              	.LCFI39:
 709              		.cfi_def_cfa_register 7
 710 0006 0346     		mov	r3, r0
 711 0008 FB80     		strh	r3, [r7, #6]	@ movhi
  67:hardware/src/lcd.c **** 	u16  r,g,b,rgb;   
  68:hardware/src/lcd.c **** 	b=(c>>0)&0x1f;
 712              		.loc 1 68 3
 713 000a FB88     		ldrh	r3, [r7, #6]	@ movhi
 714 000c 03F01F03 		and	r3, r3, #31
 715 0010 FB81     		strh	r3, [r7, #14]	@ movhi
  69:hardware/src/lcd.c **** 	g=(c>>5)&0x3f;
 716              		.loc 1 69 10
 717 0012 FB88     		ldrh	r3, [r7, #6]
 718 0014 5B09     		lsrs	r3, r3, #5
 719 0016 9BB2     		uxth	r3, r3
 720              		.loc 1 69 3
 721 0018 03F03F03 		and	r3, r3, #63
 722 001c BB81     		strh	r3, [r7, #12]	@ movhi
  70:hardware/src/lcd.c **** 	r=(c>>11)&0x1f;	 
 723              		.loc 1 70 3
 724 001e FB88     		ldrh	r3, [r7, #6]
 725 0020 DB0A     		lsrs	r3, r3, #11
 726 0022 7B81     		strh	r3, [r7, #10]	@ movhi
  71:hardware/src/lcd.c **** 	rgb=(b<<11)+(g<<5)+(r<<0);		 
 727              		.loc 1 71 8
 728 0024 FB89     		ldrh	r3, [r7, #14]	@ movhi
 729 0026 DB02     		lsls	r3, r3, #11
 730 0028 9AB2     		uxth	r2, r3
ARM GAS  /tmp/ccRHtd69.s 			page 23


 731              		.loc 1 71 16
 732 002a BB89     		ldrh	r3, [r7, #12]	@ movhi
 733 002c 5B01     		lsls	r3, r3, #5
 734 002e 9BB2     		uxth	r3, r3
 735              		.loc 1 71 13
 736 0030 1344     		add	r3, r3, r2
 737 0032 9AB2     		uxth	r2, r3
 738              		.loc 1 71 5
 739 0034 7B89     		ldrh	r3, [r7, #10]	@ movhi
 740 0036 1344     		add	r3, r3, r2
 741 0038 3B81     		strh	r3, [r7, #8]	@ movhi
  72:hardware/src/lcd.c **** 	return(rgb);
 742              		.loc 1 72 8
 743 003a 3B89     		ldrh	r3, [r7, #8]
  73:hardware/src/lcd.c **** } 
 744              		.loc 1 73 1
 745 003c 1846     		mov	r0, r3
 746 003e 1437     		adds	r7, r7, #20
 747              	.LCFI40:
 748              		.cfi_def_cfa_offset 4
 749 0040 BD46     		mov	sp, r7
 750              	.LCFI41:
 751              		.cfi_def_cfa_register 13
 752              		@ sp needed
 753 0042 80BC     		pop	{r7}
 754              	.LCFI42:
 755              		.cfi_restore 7
 756              		.cfi_def_cfa_offset 0
 757 0044 7047     		bx	lr
 758              		.cfi_endproc
 759              	.LFE73:
 761              		.section	.text.opt_delay,"ax",%progbits
 762              		.align	1
 763              		.global	opt_delay
 764              		.syntax unified
 765              		.thumb
 766              		.thumb_func
 767              		.fpu softvfp
 769              	opt_delay:
 770              	.LFB74:
  74:hardware/src/lcd.c **** //当mdk -O1时间优化时需要设置
  75:hardware/src/lcd.c **** //延时i
  76:hardware/src/lcd.c **** void opt_delay(u8 i)
  77:hardware/src/lcd.c **** {
 771              		.loc 1 77 1
 772              		.cfi_startproc
 773              		@ args = 0, pretend = 0, frame = 8
 774              		@ frame_needed = 1, uses_anonymous_args = 0
 775              		@ link register save eliminated.
 776 0000 80B4     		push	{r7}
 777              	.LCFI43:
 778              		.cfi_def_cfa_offset 4
 779              		.cfi_offset 7, -4
 780 0002 83B0     		sub	sp, sp, #12
 781              	.LCFI44:
 782              		.cfi_def_cfa_offset 16
 783 0004 00AF     		add	r7, sp, #0
ARM GAS  /tmp/ccRHtd69.s 			page 24


 784              	.LCFI45:
 785              		.cfi_def_cfa_register 7
 786 0006 0346     		mov	r3, r0
 787 0008 FB71     		strb	r3, [r7, #7]
  78:hardware/src/lcd.c **** 	while(i--);
 788              		.loc 1 78 7
 789 000a 00BF     		nop
 790              	.L25:
 791              		.loc 1 78 9 discriminator 1
 792 000c FB79     		ldrb	r3, [r7, #7]	@ zero_extendqisi2
 793 000e 5A1E     		subs	r2, r3, #1
 794 0010 FA71     		strb	r2, [r7, #7]
 795              		.loc 1 78 7 discriminator 1
 796 0012 002B     		cmp	r3, #0
 797 0014 FAD1     		bne	.L25
  79:hardware/src/lcd.c **** }
 798              		.loc 1 79 1
 799 0016 00BF     		nop
 800 0018 00BF     		nop
 801 001a 0C37     		adds	r7, r7, #12
 802              	.LCFI46:
 803              		.cfi_def_cfa_offset 4
 804 001c BD46     		mov	sp, r7
 805              	.LCFI47:
 806              		.cfi_def_cfa_register 13
 807              		@ sp needed
 808 001e 80BC     		pop	{r7}
 809              	.LCFI48:
 810              		.cfi_restore 7
 811              		.cfi_def_cfa_offset 0
 812 0020 7047     		bx	lr
 813              		.cfi_endproc
 814              	.LFE74:
 816              		.section	.text.LCD_ReadPoint,"ax",%progbits
 817              		.align	1
 818              		.global	LCD_ReadPoint
 819              		.syntax unified
 820              		.thumb
 821              		.thumb_func
 822              		.fpu softvfp
 824              	LCD_ReadPoint:
 825              	.LFB75:
  80:hardware/src/lcd.c **** //读取个某点的颜色值	 
  81:hardware/src/lcd.c **** //x,y:坐标
  82:hardware/src/lcd.c **** //返回值:此点的颜色
  83:hardware/src/lcd.c **** u16 LCD_ReadPoint(u16 x,u16 y)
  84:hardware/src/lcd.c **** {
 826              		.loc 1 84 1
 827              		.cfi_startproc
 828              		@ args = 0, pretend = 0, frame = 16
 829              		@ frame_needed = 1, uses_anonymous_args = 0
 830 0000 80B5     		push	{r7, lr}
 831              	.LCFI49:
 832              		.cfi_def_cfa_offset 8
 833              		.cfi_offset 7, -8
 834              		.cfi_offset 14, -4
 835 0002 84B0     		sub	sp, sp, #16
ARM GAS  /tmp/ccRHtd69.s 			page 25


 836              	.LCFI50:
 837              		.cfi_def_cfa_offset 24
 838 0004 00AF     		add	r7, sp, #0
 839              	.LCFI51:
 840              		.cfi_def_cfa_register 7
 841 0006 0346     		mov	r3, r0
 842 0008 0A46     		mov	r2, r1
 843 000a FB80     		strh	r3, [r7, #6]	@ movhi
 844 000c 1346     		mov	r3, r2	@ movhi
 845 000e BB80     		strh	r3, [r7, #4]	@ movhi
  85:hardware/src/lcd.c ****  	u16 r=0,g=0,b=0;
 846              		.loc 1 85 7
 847 0010 0023     		movs	r3, #0
 848 0012 FB81     		strh	r3, [r7, #14]	@ movhi
 849              		.loc 1 85 11
 850 0014 0023     		movs	r3, #0
 851 0016 BB81     		strh	r3, [r7, #12]	@ movhi
 852              		.loc 1 85 15
 853 0018 0023     		movs	r3, #0
 854 001a 7B81     		strh	r3, [r7, #10]	@ movhi
  86:hardware/src/lcd.c **** 	if(x>=lcddev.width||y>=lcddev.height)return 0;	//超过了范围,直接返回		   
 855              		.loc 1 86 14
 856 001c 604B     		ldr	r3, .L43
 857 001e 1B88     		ldrh	r3, [r3]
 858              		.loc 1 86 4
 859 0020 FA88     		ldrh	r2, [r7, #6]
 860 0022 9A42     		cmp	r2, r3
 861 0024 04D2     		bcs	.L27
 862              		.loc 1 86 31 discriminator 2
 863 0026 5E4B     		ldr	r3, .L43
 864 0028 5B88     		ldrh	r3, [r3, #2]
 865              		.loc 1 86 20 discriminator 2
 866 002a BA88     		ldrh	r2, [r7, #4]
 867 002c 9A42     		cmp	r2, r3
 868 002e 01D3     		bcc	.L28
 869              	.L27:
 870              		.loc 1 86 46 discriminator 3
 871 0030 0023     		movs	r3, #0
 872 0032 B1E0     		b	.L29
 873              	.L28:
  87:hardware/src/lcd.c **** 	LCD_SetCursor(x,y);	    
 874              		.loc 1 87 2
 875 0034 BA88     		ldrh	r2, [r7, #4]
 876 0036 FB88     		ldrh	r3, [r7, #6]
 877 0038 1146     		mov	r1, r2
 878 003a 1846     		mov	r0, r3
 879 003c FFF7FEFF 		bl	LCD_SetCursor
  88:hardware/src/lcd.c **** 	if(lcddev.id==0X9341||lcddev.id==0X6804||lcddev.id==0X5310)LCD_WR_REG(0X2E);//9341/6804/3510 发送
 880              		.loc 1 88 11
 881 0040 574B     		ldr	r3, .L43
 882 0042 9B88     		ldrh	r3, [r3, #4]
 883              		.loc 1 88 4
 884 0044 49F24132 		movw	r2, #37697
 885 0048 9342     		cmp	r3, r2
 886 004a 0BD0     		beq	.L30
 887              		.loc 1 88 30 discriminator 2
 888 004c 544B     		ldr	r3, .L43
ARM GAS  /tmp/ccRHtd69.s 			page 26


 889 004e 9B88     		ldrh	r3, [r3, #4]
 890              		.loc 1 88 22 discriminator 2
 891 0050 46F60402 		movw	r2, #26628
 892 0054 9342     		cmp	r3, r2
 893 0056 05D0     		beq	.L30
 894              		.loc 1 88 49 discriminator 4
 895 0058 514B     		ldr	r3, .L43
 896 005a 9B88     		ldrh	r3, [r3, #4]
 897              		.loc 1 88 41 discriminator 4
 898 005c 45F21032 		movw	r2, #21264
 899 0060 9342     		cmp	r3, r2
 900 0062 03D1     		bne	.L31
 901              	.L30:
 902              		.loc 1 88 61 discriminator 5
 903 0064 2E20     		movs	r0, #46
 904 0066 FFF7FEFF 		bl	LCD_WR_REG
 905 006a 0DE0     		b	.L32
 906              	.L31:
  89:hardware/src/lcd.c **** 	else if(lcddev.id==0X5510)LCD_WR_REG(0X2E00);	//5510 发送读GRAM指令
 907              		.loc 1 89 16
 908 006c 4C4B     		ldr	r3, .L43
 909 006e 9B88     		ldrh	r3, [r3, #4]
 910              		.loc 1 89 9
 911 0070 45F21052 		movw	r2, #21776
 912 0074 9342     		cmp	r3, r2
 913 0076 04D1     		bne	.L33
 914              		.loc 1 89 28 discriminator 1
 915 0078 4FF43850 		mov	r0, #11776
 916 007c FFF7FEFF 		bl	LCD_WR_REG
 917 0080 02E0     		b	.L32
 918              	.L33:
  90:hardware/src/lcd.c **** 	else LCD_WR_REG(R34);      		 				//其他IC发送读GRAM指令
 919              		.loc 1 90 7
 920 0082 2220     		movs	r0, #34
 921 0084 FFF7FEFF 		bl	LCD_WR_REG
 922              	.L32:
  91:hardware/src/lcd.c ****  	if(lcddev.id==0X9320)opt_delay(2);				//FOR 9320,延时2us	    
 923              		.loc 1 91 12
 924 0088 454B     		ldr	r3, .L43
 925 008a 9B88     		ldrh	r3, [r3, #4]
 926              		.loc 1 91 5
 927 008c 49F22032 		movw	r2, #37664
 928 0090 9342     		cmp	r3, r2
 929 0092 02D1     		bne	.L34
 930              		.loc 1 91 24 discriminator 1
 931 0094 0220     		movs	r0, #2
 932 0096 FFF7FEFF 		bl	opt_delay
 933              	.L34:
  92:hardware/src/lcd.c **** 	if(LCD->LCD_RAM)r=0;							//dummy Read	   
 934              		.loc 1 92 8
 935 009a 424B     		ldr	r3, .L43+4
 936 009c 5B88     		ldrh	r3, [r3, #2]
 937              		.loc 1 92 4
 938 009e 002B     		cmp	r3, #0
 939 00a0 01D0     		beq	.L35
 940              		.loc 1 92 19 discriminator 1
 941 00a2 0023     		movs	r3, #0
ARM GAS  /tmp/ccRHtd69.s 			page 27


 942 00a4 FB81     		strh	r3, [r7, #14]	@ movhi
 943              	.L35:
  93:hardware/src/lcd.c **** 	opt_delay(2);	  
 944              		.loc 1 93 2
 945 00a6 0220     		movs	r0, #2
 946 00a8 FFF7FEFF 		bl	opt_delay
  94:hardware/src/lcd.c ****  	r=LCD->LCD_RAM;  		  						//实际坐标颜色
 947              		.loc 1 94 8
 948 00ac 3D4B     		ldr	r3, .L43+4
 949              		.loc 1 94 4
 950 00ae 5B88     		ldrh	r3, [r3, #2]	@ movhi
 951 00b0 FB81     		strh	r3, [r7, #14]	@ movhi
  95:hardware/src/lcd.c ****  	if(lcddev.id==0X9341||lcddev.id==0X5310||lcddev.id==0X5510)		//9341/NT35310/NT35510要分2次读出
 952              		.loc 1 95 12
 953 00b2 3B4B     		ldr	r3, .L43
 954 00b4 9B88     		ldrh	r3, [r3, #4]
 955              		.loc 1 95 5
 956 00b6 49F24132 		movw	r2, #37697
 957 00ba 9342     		cmp	r3, r2
 958 00bc 0BD0     		beq	.L36
 959              		.loc 1 95 31 discriminator 1
 960 00be 384B     		ldr	r3, .L43
 961 00c0 9B88     		ldrh	r3, [r3, #4]
 962              		.loc 1 95 23 discriminator 1
 963 00c2 45F21032 		movw	r2, #21264
 964 00c6 9342     		cmp	r3, r2
 965 00c8 05D0     		beq	.L36
 966              		.loc 1 95 50 discriminator 2
 967 00ca 354B     		ldr	r3, .L43
 968 00cc 9B88     		ldrh	r3, [r3, #4]
 969              		.loc 1 95 42 discriminator 2
 970 00ce 45F21052 		movw	r2, #21776
 971 00d2 9342     		cmp	r3, r2
 972 00d4 0CD1     		bne	.L37
 973              	.L36:
  96:hardware/src/lcd.c ****  	{
  97:hardware/src/lcd.c **** 		opt_delay(2);	  
 974              		.loc 1 97 3
 975 00d6 0220     		movs	r0, #2
 976 00d8 FFF7FEFF 		bl	opt_delay
  98:hardware/src/lcd.c **** 		b=LCD->LCD_RAM; 
 977              		.loc 1 98 8
 978 00dc 314B     		ldr	r3, .L43+4
 979              		.loc 1 98 4
 980 00de 5B88     		ldrh	r3, [r3, #2]	@ movhi
 981 00e0 7B81     		strh	r3, [r7, #10]	@ movhi
  99:hardware/src/lcd.c **** 		g=r&0XFF;		//对于9341/5310/5510,第一次读取的是RG的值,R在前,G在后,各占8位
 982              		.loc 1 99 4
 983 00e2 FB89     		ldrh	r3, [r7, #14]	@ movhi
 984 00e4 DBB2     		uxtb	r3, r3
 985 00e6 BB81     		strh	r3, [r7, #12]	@ movhi
 100:hardware/src/lcd.c **** 		g<<=8;
 986              		.loc 1 100 4
 987 00e8 BB89     		ldrh	r3, [r7, #12]	@ movhi
 988 00ea 1B02     		lsls	r3, r3, #8
 989 00ec BB81     		strh	r3, [r7, #12]	@ movhi
 990 00ee 08E0     		b	.L38
ARM GAS  /tmp/ccRHtd69.s 			page 28


 991              	.L37:
 101:hardware/src/lcd.c **** 	}else if(lcddev.id==0X6804)r=LCD->LCD_RAM;		//6804第二次读取的才是真实值 
 992              		.loc 1 101 17
 993 00f0 2B4B     		ldr	r3, .L43
 994 00f2 9B88     		ldrh	r3, [r3, #4]
 995              		.loc 1 101 10
 996 00f4 46F60402 		movw	r2, #26628
 997 00f8 9342     		cmp	r3, r2
 998 00fa 02D1     		bne	.L38
 999              		.loc 1 101 34 discriminator 1
 1000 00fc 294B     		ldr	r3, .L43+4
 1001              		.loc 1 101 30 discriminator 1
 1002 00fe 5B88     		ldrh	r3, [r3, #2]	@ movhi
 1003 0100 FB81     		strh	r3, [r7, #14]	@ movhi
 1004              	.L38:
 102:hardware/src/lcd.c **** 	if(lcddev.id==0X9325||lcddev.id==0X4535||lcddev.id==0X4531||lcddev.id==0X8989||lcddev.id==0XB505)r
 1005              		.loc 1 102 11
 1006 0102 274B     		ldr	r3, .L43
 1007 0104 9B88     		ldrh	r3, [r3, #4]
 1008              		.loc 1 102 4
 1009 0106 49F22532 		movw	r2, #37669
 1010 010a 9342     		cmp	r3, r2
 1011 010c 17D0     		beq	.L39
 1012              		.loc 1 102 30 discriminator 2
 1013 010e 244B     		ldr	r3, .L43
 1014 0110 9B88     		ldrh	r3, [r3, #4]
 1015              		.loc 1 102 22 discriminator 2
 1016 0112 44F23552 		movw	r2, #17717
 1017 0116 9342     		cmp	r3, r2
 1018 0118 11D0     		beq	.L39
 1019              		.loc 1 102 49 discriminator 4
 1020 011a 214B     		ldr	r3, .L43
 1021 011c 9B88     		ldrh	r3, [r3, #4]
 1022              		.loc 1 102 41 discriminator 4
 1023 011e 44F23152 		movw	r2, #17713
 1024 0122 9342     		cmp	r3, r2
 1025 0124 0BD0     		beq	.L39
 1026              		.loc 1 102 68 discriminator 6
 1027 0126 1E4B     		ldr	r3, .L43
 1028 0128 9B88     		ldrh	r3, [r3, #4]
 1029              		.loc 1 102 60 discriminator 6
 1030 012a 48F68912 		movw	r2, #35209
 1031 012e 9342     		cmp	r3, r2
 1032 0130 05D0     		beq	.L39
 1033              		.loc 1 102 87 discriminator 8
 1034 0132 1B4B     		ldr	r3, .L43
 1035 0134 9B88     		ldrh	r3, [r3, #4]
 1036              		.loc 1 102 79 discriminator 8
 1037 0136 4BF20552 		movw	r2, #46341
 1038 013a 9342     		cmp	r3, r2
 1039 013c 01D1     		bne	.L40
 1040              	.L39:
 1041              		.loc 1 102 106 discriminator 9
 1042 013e FB89     		ldrh	r3, [r7, #14]
 1043 0140 2AE0     		b	.L29
 1044              	.L40:
 103:hardware/src/lcd.c **** 	else if(lcddev.id==0X9341||lcddev.id==0X5310||lcddev.id==0X5510)return (((r>>11)<<11)|((g>>10)<<5)
ARM GAS  /tmp/ccRHtd69.s 			page 29


 1045              		.loc 1 103 16
 1046 0142 174B     		ldr	r3, .L43
 1047 0144 9B88     		ldrh	r3, [r3, #4]
 1048              		.loc 1 103 9
 1049 0146 49F24132 		movw	r2, #37697
 1050 014a 9342     		cmp	r3, r2
 1051 014c 0BD0     		beq	.L41
 1052              		.loc 1 103 35 discriminator 2
 1053 014e 144B     		ldr	r3, .L43
 1054 0150 9B88     		ldrh	r3, [r3, #4]
 1055              		.loc 1 103 27 discriminator 2
 1056 0152 45F21032 		movw	r2, #21264
 1057 0156 9342     		cmp	r3, r2
 1058 0158 05D0     		beq	.L41
 1059              		.loc 1 103 54 discriminator 4
 1060 015a 114B     		ldr	r3, .L43
 1061 015c 9B88     		ldrh	r3, [r3, #4]
 1062              		.loc 1 103 46 discriminator 4
 1063 015e 45F21052 		movw	r2, #21776
 1064 0162 9342     		cmp	r3, r2
 1065 0164 13D1     		bne	.L42
 1066              	.L41:
 1067              		.loc 1 103 77 discriminator 5
 1068 0166 FB89     		ldrh	r3, [r7, #14]
 1069 0168 DB0A     		lsrs	r3, r3, #11
 1070 016a 9BB2     		uxth	r3, r3
 1071              		.loc 1 103 82 discriminator 5
 1072 016c DB02     		lsls	r3, r3, #11
 1073              		.loc 1 103 87 discriminator 5
 1074 016e 1AB2     		sxth	r2, r3
 1075              		.loc 1 103 91 discriminator 5
 1076 0170 BB89     		ldrh	r3, [r7, #12]
 1077 0172 9B0A     		lsrs	r3, r3, #10
 1078 0174 9BB2     		uxth	r3, r3
 1079              		.loc 1 103 96 discriminator 5
 1080 0176 5B01     		lsls	r3, r3, #5
 1081              		.loc 1 103 87 discriminator 5
 1082 0178 1BB2     		sxth	r3, r3
 1083 017a 1343     		orrs	r3, r3, r2
 1084 017c 1AB2     		sxth	r2, r3
 1085              		.loc 1 103 100 discriminator 5
 1086 017e 7B89     		ldrh	r3, [r7, #10]
 1087 0180 DB0A     		lsrs	r3, r3, #11
 1088 0182 9BB2     		uxth	r3, r3
 1089 0184 1BB2     		sxth	r3, r3
 1090 0186 1343     		orrs	r3, r3, r2
 1091 0188 1BB2     		sxth	r3, r3
 1092 018a 9BB2     		uxth	r3, r3
 1093 018c 04E0     		b	.L29
 1094              	.L42:
 104:hardware/src/lcd.c **** 	else return LCD_BGR2RGB(r);						//其他IC
 1095              		.loc 1 104 14
 1096 018e FB89     		ldrh	r3, [r7, #14]
 1097 0190 1846     		mov	r0, r3
 1098 0192 FFF7FEFF 		bl	LCD_BGR2RGB
 1099 0196 0346     		mov	r3, r0
 1100              	.L29:
ARM GAS  /tmp/ccRHtd69.s 			page 30


 105:hardware/src/lcd.c **** }			 
 1101              		.loc 1 105 1
 1102 0198 1846     		mov	r0, r3
 1103 019a 1037     		adds	r7, r7, #16
 1104              	.LCFI52:
 1105              		.cfi_def_cfa_offset 8
 1106 019c BD46     		mov	sp, r7
 1107              	.LCFI53:
 1108              		.cfi_def_cfa_register 13
 1109              		@ sp needed
 1110 019e 80BD     		pop	{r7, pc}
 1111              	.L44:
 1112              		.align	2
 1113              	.L43:
 1114 01a0 00000000 		.word	lcddev
 1115 01a4 FE07006C 		.word	1811941374
 1116              		.cfi_endproc
 1117              	.LFE75:
 1119              		.section	.text.LCD_DisplayOn,"ax",%progbits
 1120              		.align	1
 1121              		.global	LCD_DisplayOn
 1122              		.syntax unified
 1123              		.thumb
 1124              		.thumb_func
 1125              		.fpu softvfp
 1127              	LCD_DisplayOn:
 1128              	.LFB76:
 106:hardware/src/lcd.c **** //LCD开启显示
 107:hardware/src/lcd.c **** void LCD_DisplayOn(void)
 108:hardware/src/lcd.c **** {					   
 1129              		.loc 1 108 1
 1130              		.cfi_startproc
 1131              		@ args = 0, pretend = 0, frame = 0
 1132              		@ frame_needed = 1, uses_anonymous_args = 0
 1133 0000 80B5     		push	{r7, lr}
 1134              	.LCFI54:
 1135              		.cfi_def_cfa_offset 8
 1136              		.cfi_offset 7, -8
 1137              		.cfi_offset 14, -4
 1138 0002 00AF     		add	r7, sp, #0
 1139              	.LCFI55:
 1140              		.cfi_def_cfa_register 7
 109:hardware/src/lcd.c **** 	if(lcddev.id==0X9341||lcddev.id==0X6804||lcddev.id==0X5310)LCD_WR_REG(0X29);	//开启显示
 1141              		.loc 1 109 11
 1142 0004 134B     		ldr	r3, .L51
 1143 0006 9B88     		ldrh	r3, [r3, #4]
 1144              		.loc 1 109 4
 1145 0008 49F24132 		movw	r2, #37697
 1146 000c 9342     		cmp	r3, r2
 1147 000e 0BD0     		beq	.L46
 1148              		.loc 1 109 30 discriminator 2
 1149 0010 104B     		ldr	r3, .L51
 1150 0012 9B88     		ldrh	r3, [r3, #4]
 1151              		.loc 1 109 22 discriminator 2
 1152 0014 46F60402 		movw	r2, #26628
 1153 0018 9342     		cmp	r3, r2
 1154 001a 05D0     		beq	.L46
ARM GAS  /tmp/ccRHtd69.s 			page 31


 1155              		.loc 1 109 49 discriminator 4
 1156 001c 0D4B     		ldr	r3, .L51
 1157 001e 9B88     		ldrh	r3, [r3, #4]
 1158              		.loc 1 109 41 discriminator 4
 1159 0020 45F21032 		movw	r2, #21264
 1160 0024 9342     		cmp	r3, r2
 1161 0026 03D1     		bne	.L47
 1162              	.L46:
 1163              		.loc 1 109 61 discriminator 5
 1164 0028 2920     		movs	r0, #41
 1165 002a FFF7FEFF 		bl	LCD_WR_REG
 110:hardware/src/lcd.c **** 	else if(lcddev.id==0X5510)LCD_WR_REG(0X2900);	//开启显示
 111:hardware/src/lcd.c **** 	else LCD_WriteReg(R7,0x0173); 				 	//开启显示
 112:hardware/src/lcd.c **** }	 
 1166              		.loc 1 112 1 discriminator 5
 1167 002e 0FE0     		b	.L50
 1168              	.L47:
 110:hardware/src/lcd.c **** 	else if(lcddev.id==0X5510)LCD_WR_REG(0X2900);	//开启显示
 1169              		.loc 1 110 16
 1170 0030 084B     		ldr	r3, .L51
 1171 0032 9B88     		ldrh	r3, [r3, #4]
 110:hardware/src/lcd.c **** 	else if(lcddev.id==0X5510)LCD_WR_REG(0X2900);	//开启显示
 1172              		.loc 1 110 9
 1173 0034 45F21052 		movw	r2, #21776
 1174 0038 9342     		cmp	r3, r2
 1175 003a 04D1     		bne	.L49
 110:hardware/src/lcd.c **** 	else if(lcddev.id==0X5510)LCD_WR_REG(0X2900);	//开启显示
 1176              		.loc 1 110 28 discriminator 1
 1177 003c 4FF42450 		mov	r0, #10496
 1178 0040 FFF7FEFF 		bl	LCD_WR_REG
 1179              		.loc 1 112 1 discriminator 1
 1180 0044 04E0     		b	.L50
 1181              	.L49:
 111:hardware/src/lcd.c **** }	 
 1182              		.loc 1 111 7
 1183 0046 40F27311 		movw	r1, #371
 1184 004a 0720     		movs	r0, #7
 1185 004c FFF7FEFF 		bl	LCD_WriteReg
 1186              	.L50:
 1187              		.loc 1 112 1
 1188 0050 00BF     		nop
 1189 0052 80BD     		pop	{r7, pc}
 1190              	.L52:
 1191              		.align	2
 1192              	.L51:
 1193 0054 00000000 		.word	lcddev
 1194              		.cfi_endproc
 1195              	.LFE76:
 1197              		.section	.text.LCD_DisplayOff,"ax",%progbits
 1198              		.align	1
 1199              		.global	LCD_DisplayOff
 1200              		.syntax unified
 1201              		.thumb
 1202              		.thumb_func
 1203              		.fpu softvfp
 1205              	LCD_DisplayOff:
 1206              	.LFB77:
ARM GAS  /tmp/ccRHtd69.s 			page 32


 113:hardware/src/lcd.c **** //LCD关闭显示
 114:hardware/src/lcd.c **** void LCD_DisplayOff(void)
 115:hardware/src/lcd.c **** {	   
 1207              		.loc 1 115 1
 1208              		.cfi_startproc
 1209              		@ args = 0, pretend = 0, frame = 0
 1210              		@ frame_needed = 1, uses_anonymous_args = 0
 1211 0000 80B5     		push	{r7, lr}
 1212              	.LCFI56:
 1213              		.cfi_def_cfa_offset 8
 1214              		.cfi_offset 7, -8
 1215              		.cfi_offset 14, -4
 1216 0002 00AF     		add	r7, sp, #0
 1217              	.LCFI57:
 1218              		.cfi_def_cfa_register 7
 116:hardware/src/lcd.c **** 	if(lcddev.id==0X9341||lcddev.id==0X6804||lcddev.id==0X5310)LCD_WR_REG(0X28);	//关闭显示
 1219              		.loc 1 116 11
 1220 0004 134B     		ldr	r3, .L59
 1221 0006 9B88     		ldrh	r3, [r3, #4]
 1222              		.loc 1 116 4
 1223 0008 49F24132 		movw	r2, #37697
 1224 000c 9342     		cmp	r3, r2
 1225 000e 0BD0     		beq	.L54
 1226              		.loc 1 116 30 discriminator 2
 1227 0010 104B     		ldr	r3, .L59
 1228 0012 9B88     		ldrh	r3, [r3, #4]
 1229              		.loc 1 116 22 discriminator 2
 1230 0014 46F60402 		movw	r2, #26628
 1231 0018 9342     		cmp	r3, r2
 1232 001a 05D0     		beq	.L54
 1233              		.loc 1 116 49 discriminator 4
 1234 001c 0D4B     		ldr	r3, .L59
 1235 001e 9B88     		ldrh	r3, [r3, #4]
 1236              		.loc 1 116 41 discriminator 4
 1237 0020 45F21032 		movw	r2, #21264
 1238 0024 9342     		cmp	r3, r2
 1239 0026 03D1     		bne	.L55
 1240              	.L54:
 1241              		.loc 1 116 61 discriminator 5
 1242 0028 2820     		movs	r0, #40
 1243 002a FFF7FEFF 		bl	LCD_WR_REG
 117:hardware/src/lcd.c **** 	else if(lcddev.id==0X5510)LCD_WR_REG(0X2800);	//关闭显示
 118:hardware/src/lcd.c **** 	else LCD_WriteReg(R7,0x0);//关闭显示 
 119:hardware/src/lcd.c **** }   
 1244              		.loc 1 119 1 discriminator 5
 1245 002e 0EE0     		b	.L58
 1246              	.L55:
 117:hardware/src/lcd.c **** 	else if(lcddev.id==0X5510)LCD_WR_REG(0X2800);	//关闭显示
 1247              		.loc 1 117 16
 1248 0030 084B     		ldr	r3, .L59
 1249 0032 9B88     		ldrh	r3, [r3, #4]
 117:hardware/src/lcd.c **** 	else if(lcddev.id==0X5510)LCD_WR_REG(0X2800);	//关闭显示
 1250              		.loc 1 117 9
 1251 0034 45F21052 		movw	r2, #21776
 1252 0038 9342     		cmp	r3, r2
 1253 003a 04D1     		bne	.L57
 117:hardware/src/lcd.c **** 	else if(lcddev.id==0X5510)LCD_WR_REG(0X2800);	//关闭显示
ARM GAS  /tmp/ccRHtd69.s 			page 33


 1254              		.loc 1 117 28 discriminator 1
 1255 003c 4FF42050 		mov	r0, #10240
 1256 0040 FFF7FEFF 		bl	LCD_WR_REG
 1257              		.loc 1 119 1 discriminator 1
 1258 0044 03E0     		b	.L58
 1259              	.L57:
 118:hardware/src/lcd.c **** }   
 1260              		.loc 1 118 7
 1261 0046 0021     		movs	r1, #0
 1262 0048 0720     		movs	r0, #7
 1263 004a FFF7FEFF 		bl	LCD_WriteReg
 1264              	.L58:
 1265              		.loc 1 119 1
 1266 004e 00BF     		nop
 1267 0050 80BD     		pop	{r7, pc}
 1268              	.L60:
 1269 0052 00BF     		.align	2
 1270              	.L59:
 1271 0054 00000000 		.word	lcddev
 1272              		.cfi_endproc
 1273              	.LFE77:
 1275              		.section	.text.LCD_SetCursor,"ax",%progbits
 1276              		.align	1
 1277              		.global	LCD_SetCursor
 1278              		.syntax unified
 1279              		.thumb
 1280              		.thumb_func
 1281              		.fpu softvfp
 1283              	LCD_SetCursor:
 1284              	.LFB78:
 120:hardware/src/lcd.c **** //设置光标位置
 121:hardware/src/lcd.c **** //Xpos:横坐标
 122:hardware/src/lcd.c **** //Ypos:纵坐标
 123:hardware/src/lcd.c **** void LCD_SetCursor(u16 Xpos, u16 Ypos)
 124:hardware/src/lcd.c **** {	 
 1285              		.loc 1 124 1
 1286              		.cfi_startproc
 1287              		@ args = 0, pretend = 0, frame = 8
 1288              		@ frame_needed = 1, uses_anonymous_args = 0
 1289 0000 80B5     		push	{r7, lr}
 1290              	.LCFI58:
 1291              		.cfi_def_cfa_offset 8
 1292              		.cfi_offset 7, -8
 1293              		.cfi_offset 14, -4
 1294 0002 82B0     		sub	sp, sp, #8
 1295              	.LCFI59:
 1296              		.cfi_def_cfa_offset 16
 1297 0004 00AF     		add	r7, sp, #0
 1298              	.LCFI60:
 1299              		.cfi_def_cfa_register 7
 1300 0006 0346     		mov	r3, r0
 1301 0008 0A46     		mov	r2, r1
 1302 000a FB80     		strh	r3, [r7, #6]	@ movhi
 1303 000c 1346     		mov	r3, r2	@ movhi
 1304 000e BB80     		strh	r3, [r7, #4]	@ movhi
 125:hardware/src/lcd.c ****  	if(lcddev.id==0X9341||lcddev.id==0X5310)
 1305              		.loc 1 125 12
ARM GAS  /tmp/ccRHtd69.s 			page 34


 1306 0010 5B4B     		ldr	r3, .L70
 1307 0012 9B88     		ldrh	r3, [r3, #4]
 1308              		.loc 1 125 5
 1309 0014 49F24132 		movw	r2, #37697
 1310 0018 9342     		cmp	r3, r2
 1311 001a 05D0     		beq	.L62
 1312              		.loc 1 125 31 discriminator 1
 1313 001c 584B     		ldr	r3, .L70
 1314 001e 9B88     		ldrh	r3, [r3, #4]
 1315              		.loc 1 125 23 discriminator 1
 1316 0020 45F21032 		movw	r2, #21264
 1317 0024 9342     		cmp	r3, r2
 1318 0026 22D1     		bne	.L63
 1319              	.L62:
 126:hardware/src/lcd.c **** 	{		    
 127:hardware/src/lcd.c **** 		LCD_WR_REG(lcddev.setxcmd); 
 1320              		.loc 1 127 3
 1321 0028 554B     		ldr	r3, .L70
 1322 002a 5B89     		ldrh	r3, [r3, #10]
 1323 002c 1846     		mov	r0, r3
 1324 002e FFF7FEFF 		bl	LCD_WR_REG
 128:hardware/src/lcd.c **** 		LCD_WR_DATA(Xpos>>8); 
 1325              		.loc 1 128 3
 1326 0032 FB88     		ldrh	r3, [r7, #6]
 1327 0034 1B0A     		lsrs	r3, r3, #8
 1328 0036 9BB2     		uxth	r3, r3
 1329 0038 1846     		mov	r0, r3
 1330 003a FFF7FEFF 		bl	LCD_WR_DATA
 129:hardware/src/lcd.c **** 		LCD_WR_DATA(Xpos&0XFF);	 
 1331              		.loc 1 129 3
 1332 003e FB88     		ldrh	r3, [r7, #6]	@ movhi
 1333 0040 DBB2     		uxtb	r3, r3
 1334 0042 9BB2     		uxth	r3, r3
 1335 0044 1846     		mov	r0, r3
 1336 0046 FFF7FEFF 		bl	LCD_WR_DATA
 130:hardware/src/lcd.c **** 		LCD_WR_REG(lcddev.setycmd); 
 1337              		.loc 1 130 3
 1338 004a 4D4B     		ldr	r3, .L70
 1339 004c 9B89     		ldrh	r3, [r3, #12]
 1340 004e 1846     		mov	r0, r3
 1341 0050 FFF7FEFF 		bl	LCD_WR_REG
 131:hardware/src/lcd.c **** 		LCD_WR_DATA(Ypos>>8); 
 1342              		.loc 1 131 3
 1343 0054 BB88     		ldrh	r3, [r7, #4]
 1344 0056 1B0A     		lsrs	r3, r3, #8
 1345 0058 9BB2     		uxth	r3, r3
 1346 005a 1846     		mov	r0, r3
 1347 005c FFF7FEFF 		bl	LCD_WR_DATA
 132:hardware/src/lcd.c **** 		LCD_WR_DATA(Ypos&0XFF);
 1348              		.loc 1 132 3
 1349 0060 BB88     		ldrh	r3, [r7, #4]	@ movhi
 1350 0062 DBB2     		uxtb	r3, r3
 1351 0064 9BB2     		uxth	r3, r3
 1352 0066 1846     		mov	r0, r3
 1353 0068 FFF7FEFF 		bl	LCD_WR_DATA
 133:hardware/src/lcd.c **** 	}else if(lcddev.id==0X6804)
 134:hardware/src/lcd.c **** 	{
ARM GAS  /tmp/ccRHtd69.s 			page 35


 135:hardware/src/lcd.c **** 		if(lcddev.dir==1)Xpos=lcddev.width-1-Xpos;//横屏时处理
 136:hardware/src/lcd.c **** 		LCD_WR_REG(lcddev.setxcmd); 
 137:hardware/src/lcd.c **** 		LCD_WR_DATA(Xpos>>8); 
 138:hardware/src/lcd.c **** 		LCD_WR_DATA(Xpos&0XFF);	 
 139:hardware/src/lcd.c **** 		LCD_WR_REG(lcddev.setycmd); 
 140:hardware/src/lcd.c **** 		LCD_WR_DATA(Ypos>>8); 
 141:hardware/src/lcd.c **** 		LCD_WR_DATA(Ypos&0XFF);
 142:hardware/src/lcd.c **** 	}else if(lcddev.id==0X5510)
 143:hardware/src/lcd.c **** 	{
 144:hardware/src/lcd.c **** 		LCD_WR_REG(lcddev.setxcmd); 
 145:hardware/src/lcd.c **** 		LCD_WR_DATA(Xpos>>8); 
 146:hardware/src/lcd.c **** 		LCD_WR_REG(lcddev.setxcmd+1); 
 147:hardware/src/lcd.c **** 		LCD_WR_DATA(Xpos&0XFF);	 
 148:hardware/src/lcd.c **** 		LCD_WR_REG(lcddev.setycmd); 
 149:hardware/src/lcd.c **** 		LCD_WR_DATA(Ypos>>8); 
 150:hardware/src/lcd.c **** 		LCD_WR_REG(lcddev.setycmd+1); 
 151:hardware/src/lcd.c **** 		LCD_WR_DATA(Ypos&0XFF);		
 152:hardware/src/lcd.c **** 	}else
 153:hardware/src/lcd.c **** 	{
 154:hardware/src/lcd.c **** 		if(lcddev.dir==1)Xpos=lcddev.width-1-Xpos;//横屏其实就是调转x,y坐标
 155:hardware/src/lcd.c **** 		LCD_WriteReg(lcddev.setxcmd, Xpos);
 156:hardware/src/lcd.c **** 		LCD_WriteReg(lcddev.setycmd, Ypos);
 157:hardware/src/lcd.c **** 	}	 
 158:hardware/src/lcd.c **** } 		 
 1354              		.loc 1 158 1
 1355 006c 83E0     		b	.L69
 1356              	.L63:
 133:hardware/src/lcd.c **** 	}else if(lcddev.id==0X6804)
 1357              		.loc 1 133 17
 1358 006e 444B     		ldr	r3, .L70
 1359 0070 9B88     		ldrh	r3, [r3, #4]
 133:hardware/src/lcd.c **** 	}else if(lcddev.id==0X6804)
 1360              		.loc 1 133 10
 1361 0072 46F60402 		movw	r2, #26628
 1362 0076 9342     		cmp	r3, r2
 1363 0078 2DD1     		bne	.L65
 135:hardware/src/lcd.c **** 		LCD_WR_REG(lcddev.setxcmd); 
 1364              		.loc 1 135 12
 1365 007a 414B     		ldr	r3, .L70
 1366 007c 9B79     		ldrb	r3, [r3, #6]	@ zero_extendqisi2
 135:hardware/src/lcd.c **** 		LCD_WR_REG(lcddev.setxcmd); 
 1367              		.loc 1 135 5
 1368 007e 012B     		cmp	r3, #1
 1369 0080 06D1     		bne	.L66
 135:hardware/src/lcd.c **** 		LCD_WR_REG(lcddev.setxcmd); 
 1370              		.loc 1 135 31 discriminator 1
 1371 0082 3F4B     		ldr	r3, .L70
 1372 0084 1A88     		ldrh	r2, [r3]
 135:hardware/src/lcd.c **** 		LCD_WR_REG(lcddev.setxcmd); 
 1373              		.loc 1 135 39 discriminator 1
 1374 0086 FB88     		ldrh	r3, [r7, #6]	@ movhi
 1375 0088 D31A     		subs	r3, r2, r3
 1376 008a 9BB2     		uxth	r3, r3
 135:hardware/src/lcd.c **** 		LCD_WR_REG(lcddev.setxcmd); 
 1377              		.loc 1 135 24 discriminator 1
 1378 008c 013B     		subs	r3, r3, #1
 1379 008e FB80     		strh	r3, [r7, #6]	@ movhi
ARM GAS  /tmp/ccRHtd69.s 			page 36


 1380              	.L66:
 136:hardware/src/lcd.c **** 		LCD_WR_DATA(Xpos>>8); 
 1381              		.loc 1 136 3
 1382 0090 3B4B     		ldr	r3, .L70
 1383 0092 5B89     		ldrh	r3, [r3, #10]
 1384 0094 1846     		mov	r0, r3
 1385 0096 FFF7FEFF 		bl	LCD_WR_REG
 137:hardware/src/lcd.c **** 		LCD_WR_DATA(Xpos&0XFF);	 
 1386              		.loc 1 137 3
 1387 009a FB88     		ldrh	r3, [r7, #6]
 1388 009c 1B0A     		lsrs	r3, r3, #8
 1389 009e 9BB2     		uxth	r3, r3
 1390 00a0 1846     		mov	r0, r3
 1391 00a2 FFF7FEFF 		bl	LCD_WR_DATA
 138:hardware/src/lcd.c **** 		LCD_WR_REG(lcddev.setycmd); 
 1392              		.loc 1 138 3
 1393 00a6 FB88     		ldrh	r3, [r7, #6]	@ movhi
 1394 00a8 DBB2     		uxtb	r3, r3
 1395 00aa 9BB2     		uxth	r3, r3
 1396 00ac 1846     		mov	r0, r3
 1397 00ae FFF7FEFF 		bl	LCD_WR_DATA
 139:hardware/src/lcd.c **** 		LCD_WR_DATA(Ypos>>8); 
 1398              		.loc 1 139 3
 1399 00b2 334B     		ldr	r3, .L70
 1400 00b4 9B89     		ldrh	r3, [r3, #12]
 1401 00b6 1846     		mov	r0, r3
 1402 00b8 FFF7FEFF 		bl	LCD_WR_REG
 140:hardware/src/lcd.c **** 		LCD_WR_DATA(Ypos&0XFF);
 1403              		.loc 1 140 3
 1404 00bc BB88     		ldrh	r3, [r7, #4]
 1405 00be 1B0A     		lsrs	r3, r3, #8
 1406 00c0 9BB2     		uxth	r3, r3
 1407 00c2 1846     		mov	r0, r3
 1408 00c4 FFF7FEFF 		bl	LCD_WR_DATA
 141:hardware/src/lcd.c **** 	}else if(lcddev.id==0X5510)
 1409              		.loc 1 141 3
 1410 00c8 BB88     		ldrh	r3, [r7, #4]	@ movhi
 1411 00ca DBB2     		uxtb	r3, r3
 1412 00cc 9BB2     		uxth	r3, r3
 1413 00ce 1846     		mov	r0, r3
 1414 00d0 FFF7FEFF 		bl	LCD_WR_DATA
 1415              		.loc 1 158 1
 1416 00d4 4FE0     		b	.L69
 1417              	.L65:
 142:hardware/src/lcd.c **** 	{
 1418              		.loc 1 142 17
 1419 00d6 2A4B     		ldr	r3, .L70
 1420 00d8 9B88     		ldrh	r3, [r3, #4]
 142:hardware/src/lcd.c **** 	{
 1421              		.loc 1 142 10
 1422 00da 45F21052 		movw	r2, #21776
 1423 00de 9342     		cmp	r3, r2
 1424 00e0 30D1     		bne	.L67
 144:hardware/src/lcd.c **** 		LCD_WR_DATA(Xpos>>8); 
 1425              		.loc 1 144 3
 1426 00e2 274B     		ldr	r3, .L70
 1427 00e4 5B89     		ldrh	r3, [r3, #10]
ARM GAS  /tmp/ccRHtd69.s 			page 37


 1428 00e6 1846     		mov	r0, r3
 1429 00e8 FFF7FEFF 		bl	LCD_WR_REG
 145:hardware/src/lcd.c **** 		LCD_WR_REG(lcddev.setxcmd+1); 
 1430              		.loc 1 145 3
 1431 00ec FB88     		ldrh	r3, [r7, #6]
 1432 00ee 1B0A     		lsrs	r3, r3, #8
 1433 00f0 9BB2     		uxth	r3, r3
 1434 00f2 1846     		mov	r0, r3
 1435 00f4 FFF7FEFF 		bl	LCD_WR_DATA
 146:hardware/src/lcd.c **** 		LCD_WR_DATA(Xpos&0XFF);	 
 1436              		.loc 1 146 20
 1437 00f8 214B     		ldr	r3, .L70
 1438 00fa 5B89     		ldrh	r3, [r3, #10]
 146:hardware/src/lcd.c **** 		LCD_WR_DATA(Xpos&0XFF);	 
 1439              		.loc 1 146 3
 1440 00fc 0133     		adds	r3, r3, #1
 1441 00fe 9BB2     		uxth	r3, r3
 1442 0100 1846     		mov	r0, r3
 1443 0102 FFF7FEFF 		bl	LCD_WR_REG
 147:hardware/src/lcd.c **** 		LCD_WR_REG(lcddev.setycmd); 
 1444              		.loc 1 147 3
 1445 0106 FB88     		ldrh	r3, [r7, #6]	@ movhi
 1446 0108 DBB2     		uxtb	r3, r3
 1447 010a 9BB2     		uxth	r3, r3
 1448 010c 1846     		mov	r0, r3
 1449 010e FFF7FEFF 		bl	LCD_WR_DATA
 148:hardware/src/lcd.c **** 		LCD_WR_DATA(Ypos>>8); 
 1450              		.loc 1 148 3
 1451 0112 1B4B     		ldr	r3, .L70
 1452 0114 9B89     		ldrh	r3, [r3, #12]
 1453 0116 1846     		mov	r0, r3
 1454 0118 FFF7FEFF 		bl	LCD_WR_REG
 149:hardware/src/lcd.c **** 		LCD_WR_REG(lcddev.setycmd+1); 
 1455              		.loc 1 149 3
 1456 011c BB88     		ldrh	r3, [r7, #4]
 1457 011e 1B0A     		lsrs	r3, r3, #8
 1458 0120 9BB2     		uxth	r3, r3
 1459 0122 1846     		mov	r0, r3
 1460 0124 FFF7FEFF 		bl	LCD_WR_DATA
 150:hardware/src/lcd.c **** 		LCD_WR_DATA(Ypos&0XFF);		
 1461              		.loc 1 150 20
 1462 0128 154B     		ldr	r3, .L70
 1463 012a 9B89     		ldrh	r3, [r3, #12]
 150:hardware/src/lcd.c **** 		LCD_WR_DATA(Ypos&0XFF);		
 1464              		.loc 1 150 3
 1465 012c 0133     		adds	r3, r3, #1
 1466 012e 9BB2     		uxth	r3, r3
 1467 0130 1846     		mov	r0, r3
 1468 0132 FFF7FEFF 		bl	LCD_WR_REG
 151:hardware/src/lcd.c **** 	}else
 1469              		.loc 1 151 3
 1470 0136 BB88     		ldrh	r3, [r7, #4]	@ movhi
 1471 0138 DBB2     		uxtb	r3, r3
 1472 013a 9BB2     		uxth	r3, r3
 1473 013c 1846     		mov	r0, r3
 1474 013e FFF7FEFF 		bl	LCD_WR_DATA
 1475              		.loc 1 158 1
ARM GAS  /tmp/ccRHtd69.s 			page 38


 1476 0142 18E0     		b	.L69
 1477              	.L67:
 154:hardware/src/lcd.c **** 		LCD_WriteReg(lcddev.setxcmd, Xpos);
 1478              		.loc 1 154 12
 1479 0144 0E4B     		ldr	r3, .L70
 1480 0146 9B79     		ldrb	r3, [r3, #6]	@ zero_extendqisi2
 154:hardware/src/lcd.c **** 		LCD_WriteReg(lcddev.setxcmd, Xpos);
 1481              		.loc 1 154 5
 1482 0148 012B     		cmp	r3, #1
 1483 014a 06D1     		bne	.L68
 154:hardware/src/lcd.c **** 		LCD_WriteReg(lcddev.setxcmd, Xpos);
 1484              		.loc 1 154 31 discriminator 1
 1485 014c 0C4B     		ldr	r3, .L70
 1486 014e 1A88     		ldrh	r2, [r3]
 154:hardware/src/lcd.c **** 		LCD_WriteReg(lcddev.setxcmd, Xpos);
 1487              		.loc 1 154 39 discriminator 1
 1488 0150 FB88     		ldrh	r3, [r7, #6]	@ movhi
 1489 0152 D31A     		subs	r3, r2, r3
 1490 0154 9BB2     		uxth	r3, r3
 154:hardware/src/lcd.c **** 		LCD_WriteReg(lcddev.setxcmd, Xpos);
 1491              		.loc 1 154 24 discriminator 1
 1492 0156 013B     		subs	r3, r3, #1
 1493 0158 FB80     		strh	r3, [r7, #6]	@ movhi
 1494              	.L68:
 155:hardware/src/lcd.c **** 		LCD_WriteReg(lcddev.setycmd, Ypos);
 1495              		.loc 1 155 3
 1496 015a 094B     		ldr	r3, .L70
 1497 015c 5B89     		ldrh	r3, [r3, #10]
 1498 015e FA88     		ldrh	r2, [r7, #6]
 1499 0160 1146     		mov	r1, r2
 1500 0162 1846     		mov	r0, r3
 1501 0164 FFF7FEFF 		bl	LCD_WriteReg
 156:hardware/src/lcd.c **** 	}	 
 1502              		.loc 1 156 3
 1503 0168 054B     		ldr	r3, .L70
 1504 016a 9B89     		ldrh	r3, [r3, #12]
 1505 016c BA88     		ldrh	r2, [r7, #4]
 1506 016e 1146     		mov	r1, r2
 1507 0170 1846     		mov	r0, r3
 1508 0172 FFF7FEFF 		bl	LCD_WriteReg
 1509              	.L69:
 1510              		.loc 1 158 1
 1511 0176 00BF     		nop
 1512 0178 0837     		adds	r7, r7, #8
 1513              	.LCFI61:
 1514              		.cfi_def_cfa_offset 8
 1515 017a BD46     		mov	sp, r7
 1516              	.LCFI62:
 1517              		.cfi_def_cfa_register 13
 1518              		@ sp needed
 1519 017c 80BD     		pop	{r7, pc}
 1520              	.L71:
 1521 017e 00BF     		.align	2
 1522              	.L70:
 1523 0180 00000000 		.word	lcddev
 1524              		.cfi_endproc
 1525              	.LFE78:
ARM GAS  /tmp/ccRHtd69.s 			page 39


 1527              		.section	.text.LCD_Scan_Dir,"ax",%progbits
 1528              		.align	1
 1529              		.global	LCD_Scan_Dir
 1530              		.syntax unified
 1531              		.thumb
 1532              		.thumb_func
 1533              		.fpu softvfp
 1535              	LCD_Scan_Dir:
 1536              	.LFB79:
 159:hardware/src/lcd.c **** //设置LCD的自动扫描方向
 160:hardware/src/lcd.c **** //注意:其他函数可能会受到此函数设置的影响(尤其是9341/6804这两个奇葩),
 161:hardware/src/lcd.c **** //所以,一般设置为L2R_U2D即可,如果设置为其他扫描方式,可能导致显示不正常.
 162:hardware/src/lcd.c **** //dir:0~7,代表8个方向(具体定义见lcd.h)
 163:hardware/src/lcd.c **** //9320/9325/9328/4531/4535/1505/b505/8989/5408/9341/5310/5510等IC已经实际测试	   	   
 164:hardware/src/lcd.c **** void LCD_Scan_Dir(u8 dir)
 165:hardware/src/lcd.c **** {
 1537              		.loc 1 165 1
 1538              		.cfi_startproc
 1539              		@ args = 0, pretend = 0, frame = 16
 1540              		@ frame_needed = 1, uses_anonymous_args = 0
 1541 0000 80B5     		push	{r7, lr}
 1542              	.LCFI63:
 1543              		.cfi_def_cfa_offset 8
 1544              		.cfi_offset 7, -8
 1545              		.cfi_offset 14, -4
 1546 0002 84B0     		sub	sp, sp, #16
 1547              	.LCFI64:
 1548              		.cfi_def_cfa_offset 24
 1549 0004 00AF     		add	r7, sp, #0
 1550              	.LCFI65:
 1551              		.cfi_def_cfa_register 7
 1552 0006 0346     		mov	r3, r0
 1553 0008 FB71     		strb	r3, [r7, #7]
 166:hardware/src/lcd.c **** 	u16 regval=0;
 1554              		.loc 1 166 6
 1555 000a 0023     		movs	r3, #0
 1556 000c FB81     		strh	r3, [r7, #14]	@ movhi
 167:hardware/src/lcd.c **** 	u16 dirreg=0;
 1557              		.loc 1 167 6
 1558 000e 0023     		movs	r3, #0
 1559 0010 BB81     		strh	r3, [r7, #12]	@ movhi
 168:hardware/src/lcd.c **** 	u16 temp;  
 169:hardware/src/lcd.c **** 	if(lcddev.dir==1&&lcddev.id!=0X6804)//横屏时，对6804不改变扫描方向！
 1560              		.loc 1 169 11
 1561 0012 A54B     		ldr	r3, .L119
 1562 0014 9B79     		ldrb	r3, [r3, #6]	@ zero_extendqisi2
 1563              		.loc 1 169 4
 1564 0016 012B     		cmp	r3, #1
 1565 0018 34D1     		bne	.L118
 1566              		.loc 1 169 26 discriminator 1
 1567 001a A34B     		ldr	r3, .L119
 1568 001c 9B88     		ldrh	r3, [r3, #4]
 1569              		.loc 1 169 18 discriminator 1
 1570 001e 46F60402 		movw	r2, #26628
 1571 0022 9342     		cmp	r3, r2
 1572 0024 2ED0     		beq	.L118
 170:hardware/src/lcd.c **** 	{			   
ARM GAS  /tmp/ccRHtd69.s 			page 40


 171:hardware/src/lcd.c **** 		switch(dir)//方向转换
 1573              		.loc 1 171 3
 1574 0026 FB79     		ldrb	r3, [r7, #7]	@ zero_extendqisi2
 1575 0028 072B     		cmp	r3, #7
 1576 002a 2CD8     		bhi	.L73
 1577 002c 01A2     		adr	r2, .L75
 1578 002e 52F823F0 		ldr	pc, [r2, r3, lsl #2]
 1579 0032 00BF     		.p2align 2
 1580              	.L75:
 1581 0034 55000000 		.word	.L82+1
 1582 0038 5B000000 		.word	.L81+1
 1583 003c 61000000 		.word	.L80+1
 1584 0040 67000000 		.word	.L79+1
 1585 0044 6D000000 		.word	.L78+1
 1586 0048 73000000 		.word	.L77+1
 1587 004c 79000000 		.word	.L76+1
 1588 0050 7F000000 		.word	.L74+1
 1589              		.p2align 1
 1590              	.L82:
 172:hardware/src/lcd.c **** 		{
 173:hardware/src/lcd.c **** 			case 0:dir=6;break;
 1591              		.loc 1 173 14
 1592 0054 0623     		movs	r3, #6
 1593 0056 FB71     		strb	r3, [r7, #7]
 1594              		.loc 1 173 4
 1595 0058 15E0     		b	.L73
 1596              	.L81:
 174:hardware/src/lcd.c **** 			case 1:dir=7;break;
 1597              		.loc 1 174 14
 1598 005a 0723     		movs	r3, #7
 1599 005c FB71     		strb	r3, [r7, #7]
 1600              		.loc 1 174 4
 1601 005e 12E0     		b	.L73
 1602              	.L80:
 175:hardware/src/lcd.c **** 			case 2:dir=4;break;
 1603              		.loc 1 175 14
 1604 0060 0423     		movs	r3, #4
 1605 0062 FB71     		strb	r3, [r7, #7]
 1606              		.loc 1 175 4
 1607 0064 0FE0     		b	.L73
 1608              	.L79:
 176:hardware/src/lcd.c **** 			case 3:dir=5;break;
 1609              		.loc 1 176 14
 1610 0066 0523     		movs	r3, #5
 1611 0068 FB71     		strb	r3, [r7, #7]
 1612              		.loc 1 176 4
 1613 006a 0CE0     		b	.L73
 1614              	.L78:
 177:hardware/src/lcd.c **** 			case 4:dir=1;break;
 1615              		.loc 1 177 14
 1616 006c 0123     		movs	r3, #1
 1617 006e FB71     		strb	r3, [r7, #7]
 1618              		.loc 1 177 4
 1619 0070 09E0     		b	.L73
 1620              	.L77:
 178:hardware/src/lcd.c **** 			case 5:dir=0;break;
 1621              		.loc 1 178 14
ARM GAS  /tmp/ccRHtd69.s 			page 41


 1622 0072 0023     		movs	r3, #0
 1623 0074 FB71     		strb	r3, [r7, #7]
 1624              		.loc 1 178 4
 1625 0076 06E0     		b	.L73
 1626              	.L76:
 179:hardware/src/lcd.c **** 			case 6:dir=3;break;
 1627              		.loc 1 179 14
 1628 0078 0323     		movs	r3, #3
 1629 007a FB71     		strb	r3, [r7, #7]
 1630              		.loc 1 179 4
 1631 007c 03E0     		b	.L73
 1632              	.L74:
 180:hardware/src/lcd.c **** 			case 7:dir=2;break;	     
 1633              		.loc 1 180 14
 1634 007e 0223     		movs	r3, #2
 1635 0080 FB71     		strb	r3, [r7, #7]
 1636              		.loc 1 180 4
 1637 0082 00E0     		b	.L73
 1638              	.L118:
 181:hardware/src/lcd.c **** 		}
 182:hardware/src/lcd.c **** 	}
 1639              		.loc 1 182 2
 1640 0084 00BF     		nop
 1641              	.L73:
 183:hardware/src/lcd.c **** 	if(lcddev.id==0x9341||lcddev.id==0X6804||lcddev.id==0X5310||lcddev.id==0X5510)//9341/6804/5310/551
 1642              		.loc 1 183 11
 1643 0086 884B     		ldr	r3, .L119
 1644 0088 9B88     		ldrh	r3, [r3, #4]
 1645              		.loc 1 183 4
 1646 008a 49F24132 		movw	r2, #37697
 1647 008e 9342     		cmp	r3, r2
 1648 0090 12D0     		beq	.L83
 1649              		.loc 1 183 30 discriminator 1
 1650 0092 854B     		ldr	r3, .L119
 1651 0094 9B88     		ldrh	r3, [r3, #4]
 1652              		.loc 1 183 22 discriminator 1
 1653 0096 46F60402 		movw	r2, #26628
 1654 009a 9342     		cmp	r3, r2
 1655 009c 0CD0     		beq	.L83
 1656              		.loc 1 183 49 discriminator 2
 1657 009e 824B     		ldr	r3, .L119
 1658 00a0 9B88     		ldrh	r3, [r3, #4]
 1659              		.loc 1 183 41 discriminator 2
 1660 00a2 45F21032 		movw	r2, #21264
 1661 00a6 9342     		cmp	r3, r2
 1662 00a8 06D0     		beq	.L83
 1663              		.loc 1 183 68 discriminator 3
 1664 00aa 7F4B     		ldr	r3, .L119
 1665 00ac 9B88     		ldrh	r3, [r3, #4]
 1666              		.loc 1 183 60 discriminator 3
 1667 00ae 45F21052 		movw	r2, #21776
 1668 00b2 9342     		cmp	r3, r2
 1669 00b4 40F03381 		bne	.L84
 1670              	.L83:
 184:hardware/src/lcd.c **** 	{
 185:hardware/src/lcd.c **** 		switch(dir)
 1671              		.loc 1 185 3
ARM GAS  /tmp/ccRHtd69.s 			page 42


 1672 00b8 FB79     		ldrb	r3, [r7, #7]	@ zero_extendqisi2
 1673 00ba 072B     		cmp	r3, #7
 1674 00bc 35D8     		bhi	.L85
 1675 00be 01A2     		adr	r2, .L87
 1676 00c0 52F823F0 		ldr	pc, [r2, r3, lsl #2]
 1677              		.p2align 2
 1678              	.L87:
 1679 00c4 2B010000 		.word	.L85+1
 1680 00c8 E5000000 		.word	.L93+1
 1681 00cc EF000000 		.word	.L92+1
 1682 00d0 F9000000 		.word	.L91+1
 1683 00d4 03010000 		.word	.L90+1
 1684 00d8 0D010000 		.word	.L89+1
 1685 00dc 17010000 		.word	.L88+1
 1686 00e0 21010000 		.word	.L86+1
 1687              		.p2align 1
 1688              	.L93:
 186:hardware/src/lcd.c **** 		{
 187:hardware/src/lcd.c **** 			case L2R_U2D://从左到右,从上到下
 188:hardware/src/lcd.c **** 				regval|=(0<<7)|(0<<6)|(0<<5); 
 189:hardware/src/lcd.c **** 				break;
 190:hardware/src/lcd.c **** 			case L2R_D2U://从左到右,从下到上
 191:hardware/src/lcd.c **** 				regval|=(1<<7)|(0<<6)|(0<<5); 
 1689              		.loc 1 191 11
 1690 00e4 FB89     		ldrh	r3, [r7, #14]	@ movhi
 1691 00e6 43F08003 		orr	r3, r3, #128
 1692 00ea FB81     		strh	r3, [r7, #14]	@ movhi
 192:hardware/src/lcd.c **** 				break;
 1693              		.loc 1 192 5
 1694 00ec 1DE0     		b	.L85
 1695              	.L92:
 193:hardware/src/lcd.c **** 			case R2L_U2D://从右到左,从上到下
 194:hardware/src/lcd.c **** 				regval|=(0<<7)|(1<<6)|(0<<5); 
 1696              		.loc 1 194 11
 1697 00ee FB89     		ldrh	r3, [r7, #14]	@ movhi
 1698 00f0 43F04003 		orr	r3, r3, #64
 1699 00f4 FB81     		strh	r3, [r7, #14]	@ movhi
 195:hardware/src/lcd.c **** 				break;
 1700              		.loc 1 195 5
 1701 00f6 18E0     		b	.L85
 1702              	.L91:
 196:hardware/src/lcd.c **** 			case R2L_D2U://从右到左,从下到上
 197:hardware/src/lcd.c **** 				regval|=(1<<7)|(1<<6)|(0<<5); 
 1703              		.loc 1 197 11
 1704 00f8 FB89     		ldrh	r3, [r7, #14]	@ movhi
 1705 00fa 43F0C003 		orr	r3, r3, #192
 1706 00fe FB81     		strh	r3, [r7, #14]	@ movhi
 198:hardware/src/lcd.c **** 				break;	 
 1707              		.loc 1 198 5
 1708 0100 13E0     		b	.L85
 1709              	.L90:
 199:hardware/src/lcd.c **** 			case U2D_L2R://从上到下,从左到右
 200:hardware/src/lcd.c **** 				regval|=(0<<7)|(0<<6)|(1<<5); 
 1710              		.loc 1 200 11
 1711 0102 FB89     		ldrh	r3, [r7, #14]	@ movhi
 1712 0104 43F02003 		orr	r3, r3, #32
 1713 0108 FB81     		strh	r3, [r7, #14]	@ movhi
ARM GAS  /tmp/ccRHtd69.s 			page 43


 201:hardware/src/lcd.c **** 				break;
 1714              		.loc 1 201 5
 1715 010a 0EE0     		b	.L85
 1716              	.L89:
 202:hardware/src/lcd.c **** 			case U2D_R2L://从上到下,从右到左
 203:hardware/src/lcd.c **** 				regval|=(0<<7)|(1<<6)|(1<<5); 
 1717              		.loc 1 203 11
 1718 010c FB89     		ldrh	r3, [r7, #14]	@ movhi
 1719 010e 43F06003 		orr	r3, r3, #96
 1720 0112 FB81     		strh	r3, [r7, #14]	@ movhi
 204:hardware/src/lcd.c **** 				break;
 1721              		.loc 1 204 5
 1722 0114 09E0     		b	.L85
 1723              	.L88:
 205:hardware/src/lcd.c **** 			case D2U_L2R://从下到上,从左到右
 206:hardware/src/lcd.c **** 				regval|=(1<<7)|(0<<6)|(1<<5); 
 1724              		.loc 1 206 11
 1725 0116 FB89     		ldrh	r3, [r7, #14]	@ movhi
 1726 0118 43F0A003 		orr	r3, r3, #160
 1727 011c FB81     		strh	r3, [r7, #14]	@ movhi
 207:hardware/src/lcd.c **** 				break;
 1728              		.loc 1 207 5
 1729 011e 04E0     		b	.L85
 1730              	.L86:
 208:hardware/src/lcd.c **** 			case D2U_R2L://从下到上,从右到左
 209:hardware/src/lcd.c **** 				regval|=(1<<7)|(1<<6)|(1<<5); 
 1731              		.loc 1 209 11
 1732 0120 FB89     		ldrh	r3, [r7, #14]	@ movhi
 1733 0122 43F0E003 		orr	r3, r3, #224
 1734 0126 FB81     		strh	r3, [r7, #14]	@ movhi
 210:hardware/src/lcd.c **** 				break;	 
 1735              		.loc 1 210 5
 1736 0128 00BF     		nop
 1737              	.L85:
 211:hardware/src/lcd.c **** 		}
 212:hardware/src/lcd.c **** 		if(lcddev.id==0X5510)dirreg=0X3600;
 1738              		.loc 1 212 12
 1739 012a 5F4B     		ldr	r3, .L119
 1740 012c 9B88     		ldrh	r3, [r3, #4]
 1741              		.loc 1 212 5
 1742 012e 45F21052 		movw	r2, #21776
 1743 0132 9342     		cmp	r3, r2
 1744 0134 03D1     		bne	.L95
 1745              		.loc 1 212 30 discriminator 1
 1746 0136 4FF45853 		mov	r3, #13824
 1747 013a BB81     		strh	r3, [r7, #12]	@ movhi
 1748 013c 01E0     		b	.L96
 1749              	.L95:
 213:hardware/src/lcd.c **** 		else dirreg=0X36;
 1750              		.loc 1 213 14
 1751 013e 3623     		movs	r3, #54
 1752 0140 BB81     		strh	r3, [r7, #12]	@ movhi
 1753              	.L96:
 214:hardware/src/lcd.c ****  		if((lcddev.id!=0X5310)&&(lcddev.id!=0X5510))regval|=0X08;//5310/5510不需要BGR   
 1754              		.loc 1 214 14
 1755 0142 594B     		ldr	r3, .L119
 1756 0144 9B88     		ldrh	r3, [r3, #4]
ARM GAS  /tmp/ccRHtd69.s 			page 44


 1757              		.loc 1 214 6
 1758 0146 45F21032 		movw	r2, #21264
 1759 014a 9342     		cmp	r3, r2
 1760 014c 09D0     		beq	.L97
 1761              		.loc 1 214 35 discriminator 1
 1762 014e 564B     		ldr	r3, .L119
 1763 0150 9B88     		ldrh	r3, [r3, #4]
 1764              		.loc 1 214 26 discriminator 1
 1765 0152 45F21052 		movw	r2, #21776
 1766 0156 9342     		cmp	r3, r2
 1767 0158 03D0     		beq	.L97
 1768              		.loc 1 214 54 discriminator 2
 1769 015a FB89     		ldrh	r3, [r7, #14]	@ movhi
 1770 015c 43F00803 		orr	r3, r3, #8
 1771 0160 FB81     		strh	r3, [r7, #14]	@ movhi
 1772              	.L97:
 215:hardware/src/lcd.c **** 		if(lcddev.id==0X6804)regval|=0x02;//6804的BIT6和9341的反了	   
 1773              		.loc 1 215 12
 1774 0162 514B     		ldr	r3, .L119
 1775 0164 9B88     		ldrh	r3, [r3, #4]
 1776              		.loc 1 215 5
 1777 0166 46F60402 		movw	r2, #26628
 1778 016a 9342     		cmp	r3, r2
 1779 016c 03D1     		bne	.L98
 1780              		.loc 1 215 30 discriminator 1
 1781 016e FB89     		ldrh	r3, [r7, #14]	@ movhi
 1782 0170 43F00203 		orr	r3, r3, #2
 1783 0174 FB81     		strh	r3, [r7, #14]	@ movhi
 1784              	.L98:
 216:hardware/src/lcd.c **** 		LCD_WriteReg(dirreg,regval);
 1785              		.loc 1 216 3
 1786 0176 FA89     		ldrh	r2, [r7, #14]
 1787 0178 BB89     		ldrh	r3, [r7, #12]
 1788 017a 1146     		mov	r1, r2
 1789 017c 1846     		mov	r0, r3
 1790 017e FFF7FEFF 		bl	LCD_WriteReg
 217:hardware/src/lcd.c ****  		if((regval&0X20)||lcddev.dir==1)
 1791              		.loc 1 217 14
 1792 0182 FB89     		ldrh	r3, [r7, #14]
 1793 0184 03F02003 		and	r3, r3, #32
 1794              		.loc 1 217 6
 1795 0188 002B     		cmp	r3, #0
 1796 018a 03D1     		bne	.L99
 1797              		.loc 1 217 28 discriminator 1
 1798 018c 464B     		ldr	r3, .L119
 1799 018e 9B79     		ldrb	r3, [r3, #6]	@ zero_extendqisi2
 1800              		.loc 1 217 20 discriminator 1
 1801 0190 012B     		cmp	r3, #1
 1802 0192 10D1     		bne	.L100
 1803              	.L99:
 218:hardware/src/lcd.c **** 		{
 219:hardware/src/lcd.c **** 			if(lcddev.width<lcddev.height)//交换X,Y
 1804              		.loc 1 219 13
 1805 0194 444B     		ldr	r3, .L119
 1806 0196 1A88     		ldrh	r2, [r3]
 1807              		.loc 1 219 26
 1808 0198 434B     		ldr	r3, .L119
ARM GAS  /tmp/ccRHtd69.s 			page 45


 1809 019a 5B88     		ldrh	r3, [r3, #2]
 1810              		.loc 1 219 6
 1811 019c 9A42     		cmp	r2, r3
 1812 019e 1AD2     		bcs	.L102
 220:hardware/src/lcd.c **** 			{
 221:hardware/src/lcd.c **** 				temp=lcddev.width;
 1813              		.loc 1 221 9
 1814 01a0 414B     		ldr	r3, .L119
 1815 01a2 1B88     		ldrh	r3, [r3]	@ movhi
 1816 01a4 7B81     		strh	r3, [r7, #10]	@ movhi
 222:hardware/src/lcd.c **** 				lcddev.width=lcddev.height;
 1817              		.loc 1 222 24
 1818 01a6 404B     		ldr	r3, .L119
 1819 01a8 5A88     		ldrh	r2, [r3, #2]
 1820              		.loc 1 222 17
 1821 01aa 3F4B     		ldr	r3, .L119
 1822 01ac 1A80     		strh	r2, [r3]	@ movhi
 223:hardware/src/lcd.c **** 				lcddev.height=temp;
 1823              		.loc 1 223 18
 1824 01ae 3E4A     		ldr	r2, .L119
 1825 01b0 7B89     		ldrh	r3, [r7, #10]	@ movhi
 1826 01b2 5380     		strh	r3, [r2, #2]	@ movhi
 219:hardware/src/lcd.c **** 			{
 1827              		.loc 1 219 6
 1828 01b4 0FE0     		b	.L102
 1829              	.L100:
 224:hardware/src/lcd.c ****  			}
 225:hardware/src/lcd.c **** 		}else  
 226:hardware/src/lcd.c **** 		{
 227:hardware/src/lcd.c **** 			if(lcddev.width>lcddev.height)//交换X,Y
 1830              		.loc 1 227 13
 1831 01b6 3C4B     		ldr	r3, .L119
 1832 01b8 1A88     		ldrh	r2, [r3]
 1833              		.loc 1 227 26
 1834 01ba 3B4B     		ldr	r3, .L119
 1835 01bc 5B88     		ldrh	r3, [r3, #2]
 1836              		.loc 1 227 6
 1837 01be 9A42     		cmp	r2, r3
 1838 01c0 09D9     		bls	.L102
 228:hardware/src/lcd.c **** 			{
 229:hardware/src/lcd.c **** 				temp=lcddev.width;
 1839              		.loc 1 229 9
 1840 01c2 394B     		ldr	r3, .L119
 1841 01c4 1B88     		ldrh	r3, [r3]	@ movhi
 1842 01c6 7B81     		strh	r3, [r7, #10]	@ movhi
 230:hardware/src/lcd.c **** 				lcddev.width=lcddev.height;
 1843              		.loc 1 230 24
 1844 01c8 374B     		ldr	r3, .L119
 1845 01ca 5A88     		ldrh	r2, [r3, #2]
 1846              		.loc 1 230 17
 1847 01cc 364B     		ldr	r3, .L119
 1848 01ce 1A80     		strh	r2, [r3]	@ movhi
 231:hardware/src/lcd.c **** 				lcddev.height=temp;
 1849              		.loc 1 231 18
 1850 01d0 354A     		ldr	r2, .L119
 1851 01d2 7B89     		ldrh	r3, [r7, #10]	@ movhi
 1852 01d4 5380     		strh	r3, [r2, #2]	@ movhi
ARM GAS  /tmp/ccRHtd69.s 			page 46


 1853              	.L102:
 232:hardware/src/lcd.c ****  			}
 233:hardware/src/lcd.c **** 		}  
 234:hardware/src/lcd.c **** 		if(lcddev.id==0X5510)
 1854              		.loc 1 234 12
 1855 01d6 344B     		ldr	r3, .L119
 1856 01d8 9B88     		ldrh	r3, [r3, #4]
 1857              		.loc 1 234 5
 1858 01da 45F21052 		movw	r2, #21776
 1859 01de 9342     		cmp	r3, r2
 1860 01e0 64D1     		bne	.L103
 235:hardware/src/lcd.c **** 		{
 236:hardware/src/lcd.c **** 			LCD_WR_REG(lcddev.setxcmd);LCD_WR_DATA(0); 
 1861              		.loc 1 236 4
 1862 01e2 314B     		ldr	r3, .L119
 1863 01e4 5B89     		ldrh	r3, [r3, #10]
 1864 01e6 1846     		mov	r0, r3
 1865 01e8 FFF7FEFF 		bl	LCD_WR_REG
 1866              		.loc 1 236 31
 1867 01ec 0020     		movs	r0, #0
 1868 01ee FFF7FEFF 		bl	LCD_WR_DATA
 237:hardware/src/lcd.c **** 			LCD_WR_REG(lcddev.setxcmd+1);LCD_WR_DATA(0); 
 1869              		.loc 1 237 21
 1870 01f2 2D4B     		ldr	r3, .L119
 1871 01f4 5B89     		ldrh	r3, [r3, #10]
 1872              		.loc 1 237 4
 1873 01f6 0133     		adds	r3, r3, #1
 1874 01f8 9BB2     		uxth	r3, r3
 1875 01fa 1846     		mov	r0, r3
 1876 01fc FFF7FEFF 		bl	LCD_WR_REG
 1877              		.loc 1 237 33
 1878 0200 0020     		movs	r0, #0
 1879 0202 FFF7FEFF 		bl	LCD_WR_DATA
 238:hardware/src/lcd.c **** 			LCD_WR_REG(lcddev.setxcmd+2);LCD_WR_DATA((lcddev.width-1)>>8); 
 1880              		.loc 1 238 21
 1881 0206 284B     		ldr	r3, .L119
 1882 0208 5B89     		ldrh	r3, [r3, #10]
 1883              		.loc 1 238 4
 1884 020a 0233     		adds	r3, r3, #2
 1885 020c 9BB2     		uxth	r3, r3
 1886 020e 1846     		mov	r0, r3
 1887 0210 FFF7FEFF 		bl	LCD_WR_REG
 1888              		.loc 1 238 52
 1889 0214 244B     		ldr	r3, .L119
 1890 0216 1B88     		ldrh	r3, [r3]
 1891              		.loc 1 238 58
 1892 0218 013B     		subs	r3, r3, #1
 1893              		.loc 1 238 61
 1894 021a 1B12     		asrs	r3, r3, #8
 1895              		.loc 1 238 33
 1896 021c 9BB2     		uxth	r3, r3
 1897 021e 1846     		mov	r0, r3
 1898 0220 FFF7FEFF 		bl	LCD_WR_DATA
 239:hardware/src/lcd.c **** 			LCD_WR_REG(lcddev.setxcmd+3);LCD_WR_DATA((lcddev.width-1)&0XFF); 
 1899              		.loc 1 239 21
 1900 0224 204B     		ldr	r3, .L119
 1901 0226 5B89     		ldrh	r3, [r3, #10]
ARM GAS  /tmp/ccRHtd69.s 			page 47


 1902              		.loc 1 239 4
 1903 0228 0333     		adds	r3, r3, #3
 1904 022a 9BB2     		uxth	r3, r3
 1905 022c 1846     		mov	r0, r3
 1906 022e FFF7FEFF 		bl	LCD_WR_REG
 1907              		.loc 1 239 52
 1908 0232 1D4B     		ldr	r3, .L119
 1909 0234 1B88     		ldrh	r3, [r3]
 1910              		.loc 1 239 58
 1911 0236 013B     		subs	r3, r3, #1
 1912 0238 9BB2     		uxth	r3, r3
 1913              		.loc 1 239 33
 1914 023a DBB2     		uxtb	r3, r3
 1915 023c 9BB2     		uxth	r3, r3
 1916 023e 1846     		mov	r0, r3
 1917 0240 FFF7FEFF 		bl	LCD_WR_DATA
 240:hardware/src/lcd.c **** 			LCD_WR_REG(lcddev.setycmd);LCD_WR_DATA(0); 
 1918              		.loc 1 240 4
 1919 0244 184B     		ldr	r3, .L119
 1920 0246 9B89     		ldrh	r3, [r3, #12]
 1921 0248 1846     		mov	r0, r3
 1922 024a FFF7FEFF 		bl	LCD_WR_REG
 1923              		.loc 1 240 31
 1924 024e 0020     		movs	r0, #0
 1925 0250 FFF7FEFF 		bl	LCD_WR_DATA
 241:hardware/src/lcd.c **** 			LCD_WR_REG(lcddev.setycmd+1);LCD_WR_DATA(0); 
 1926              		.loc 1 241 21
 1927 0254 144B     		ldr	r3, .L119
 1928 0256 9B89     		ldrh	r3, [r3, #12]
 1929              		.loc 1 241 4
 1930 0258 0133     		adds	r3, r3, #1
 1931 025a 9BB2     		uxth	r3, r3
 1932 025c 1846     		mov	r0, r3
 1933 025e FFF7FEFF 		bl	LCD_WR_REG
 1934              		.loc 1 241 33
 1935 0262 0020     		movs	r0, #0
 1936 0264 FFF7FEFF 		bl	LCD_WR_DATA
 242:hardware/src/lcd.c **** 			LCD_WR_REG(lcddev.setycmd+2);LCD_WR_DATA((lcddev.height-1)>>8); 
 1937              		.loc 1 242 21
 1938 0268 0F4B     		ldr	r3, .L119
 1939 026a 9B89     		ldrh	r3, [r3, #12]
 1940              		.loc 1 242 4
 1941 026c 0233     		adds	r3, r3, #2
 1942 026e 9BB2     		uxth	r3, r3
 1943 0270 1846     		mov	r0, r3
 1944 0272 FFF7FEFF 		bl	LCD_WR_REG
 1945              		.loc 1 242 52
 1946 0276 0C4B     		ldr	r3, .L119
 1947 0278 5B88     		ldrh	r3, [r3, #2]
 1948              		.loc 1 242 59
 1949 027a 013B     		subs	r3, r3, #1
 1950              		.loc 1 242 62
 1951 027c 1B12     		asrs	r3, r3, #8
 1952              		.loc 1 242 33
 1953 027e 9BB2     		uxth	r3, r3
 1954 0280 1846     		mov	r0, r3
 1955 0282 FFF7FEFF 		bl	LCD_WR_DATA
ARM GAS  /tmp/ccRHtd69.s 			page 48


 243:hardware/src/lcd.c **** 			LCD_WR_REG(lcddev.setycmd+3);LCD_WR_DATA((lcddev.height-1)&0XFF);
 1956              		.loc 1 243 21
 1957 0286 084B     		ldr	r3, .L119
 1958 0288 9B89     		ldrh	r3, [r3, #12]
 1959              		.loc 1 243 4
 1960 028a 0333     		adds	r3, r3, #3
 1961 028c 9BB2     		uxth	r3, r3
 1962 028e 1846     		mov	r0, r3
 1963 0290 FFF7FEFF 		bl	LCD_WR_REG
 1964              		.loc 1 243 52
 1965 0294 044B     		ldr	r3, .L119
 1966 0296 5B88     		ldrh	r3, [r3, #2]
 1967              		.loc 1 243 59
 1968 0298 013B     		subs	r3, r3, #1
 1969 029a 9BB2     		uxth	r3, r3
 1970              		.loc 1 243 33
 1971 029c DBB2     		uxtb	r3, r3
 1972 029e 9BB2     		uxth	r3, r3
 1973 02a0 1846     		mov	r0, r3
 1974 02a2 FFF7FEFF 		bl	LCD_WR_DATA
 234:hardware/src/lcd.c **** 		{
 1975              		.loc 1 234 5
 1976 02a6 90E0     		b	.L105
 1977              	.L120:
 1978              		.align	2
 1979              	.L119:
 1980 02a8 00000000 		.word	lcddev
 1981              	.L103:
 244:hardware/src/lcd.c **** 		}else
 245:hardware/src/lcd.c **** 		{
 246:hardware/src/lcd.c **** 			LCD_WR_REG(lcddev.setxcmd); 
 1982              		.loc 1 246 4
 1983 02ac 494B     		ldr	r3, .L121
 1984 02ae 5B89     		ldrh	r3, [r3, #10]
 1985 02b0 1846     		mov	r0, r3
 1986 02b2 FFF7FEFF 		bl	LCD_WR_REG
 247:hardware/src/lcd.c **** 			LCD_WR_DATA(0);LCD_WR_DATA(0);
 1987              		.loc 1 247 4
 1988 02b6 0020     		movs	r0, #0
 1989 02b8 FFF7FEFF 		bl	LCD_WR_DATA
 1990              		.loc 1 247 19
 1991 02bc 0020     		movs	r0, #0
 1992 02be FFF7FEFF 		bl	LCD_WR_DATA
 248:hardware/src/lcd.c **** 			LCD_WR_DATA((lcddev.width-1)>>8);LCD_WR_DATA((lcddev.width-1)&0XFF);
 1993              		.loc 1 248 23
 1994 02c2 444B     		ldr	r3, .L121
 1995 02c4 1B88     		ldrh	r3, [r3]
 1996              		.loc 1 248 29
 1997 02c6 013B     		subs	r3, r3, #1
 1998              		.loc 1 248 32
 1999 02c8 1B12     		asrs	r3, r3, #8
 2000              		.loc 1 248 4
 2001 02ca 9BB2     		uxth	r3, r3
 2002 02cc 1846     		mov	r0, r3
 2003 02ce FFF7FEFF 		bl	LCD_WR_DATA
 2004              		.loc 1 248 56
 2005 02d2 404B     		ldr	r3, .L121
ARM GAS  /tmp/ccRHtd69.s 			page 49


 2006 02d4 1B88     		ldrh	r3, [r3]
 2007              		.loc 1 248 62
 2008 02d6 013B     		subs	r3, r3, #1
 2009 02d8 9BB2     		uxth	r3, r3
 2010              		.loc 1 248 37
 2011 02da DBB2     		uxtb	r3, r3
 2012 02dc 9BB2     		uxth	r3, r3
 2013 02de 1846     		mov	r0, r3
 2014 02e0 FFF7FEFF 		bl	LCD_WR_DATA
 249:hardware/src/lcd.c **** 			LCD_WR_REG(lcddev.setycmd); 
 2015              		.loc 1 249 4
 2016 02e4 3B4B     		ldr	r3, .L121
 2017 02e6 9B89     		ldrh	r3, [r3, #12]
 2018 02e8 1846     		mov	r0, r3
 2019 02ea FFF7FEFF 		bl	LCD_WR_REG
 250:hardware/src/lcd.c **** 			LCD_WR_DATA(0);LCD_WR_DATA(0);
 2020              		.loc 1 250 4
 2021 02ee 0020     		movs	r0, #0
 2022 02f0 FFF7FEFF 		bl	LCD_WR_DATA
 2023              		.loc 1 250 19
 2024 02f4 0020     		movs	r0, #0
 2025 02f6 FFF7FEFF 		bl	LCD_WR_DATA
 251:hardware/src/lcd.c **** 			LCD_WR_DATA((lcddev.height-1)>>8);LCD_WR_DATA((lcddev.height-1)&0XFF);  
 2026              		.loc 1 251 23
 2027 02fa 364B     		ldr	r3, .L121
 2028 02fc 5B88     		ldrh	r3, [r3, #2]
 2029              		.loc 1 251 30
 2030 02fe 013B     		subs	r3, r3, #1
 2031              		.loc 1 251 33
 2032 0300 1B12     		asrs	r3, r3, #8
 2033              		.loc 1 251 4
 2034 0302 9BB2     		uxth	r3, r3
 2035 0304 1846     		mov	r0, r3
 2036 0306 FFF7FEFF 		bl	LCD_WR_DATA
 2037              		.loc 1 251 57
 2038 030a 324B     		ldr	r3, .L121
 2039 030c 5B88     		ldrh	r3, [r3, #2]
 2040              		.loc 1 251 64
 2041 030e 013B     		subs	r3, r3, #1
 2042 0310 9BB2     		uxth	r3, r3
 2043              		.loc 1 251 38
 2044 0312 DBB2     		uxtb	r3, r3
 2045 0314 9BB2     		uxth	r3, r3
 2046 0316 1846     		mov	r0, r3
 2047 0318 FFF7FEFF 		bl	LCD_WR_DATA
 234:hardware/src/lcd.c **** 		{
 2048              		.loc 1 234 5
 2049 031c 55E0     		b	.L105
 2050              	.L84:
 252:hardware/src/lcd.c **** 		}
 253:hardware/src/lcd.c ****   	}else 
 254:hardware/src/lcd.c **** 	{
 255:hardware/src/lcd.c **** 		switch(dir)
 2051              		.loc 1 255 3
 2052 031e FB79     		ldrb	r3, [r7, #7]	@ zero_extendqisi2
 2053 0320 072B     		cmp	r3, #7
 2054 0322 36D8     		bhi	.L106
ARM GAS  /tmp/ccRHtd69.s 			page 50


 2055 0324 01A2     		adr	r2, .L108
 2056 0326 52F823F0 		ldr	pc, [r2, r3, lsl #2]
 2057 032a 00BF     		.p2align 2
 2058              	.L108:
 2059 032c 4D030000 		.word	.L115+1
 2060 0330 57030000 		.word	.L114+1
 2061 0334 61030000 		.word	.L113+1
 2062 0338 93030000 		.word	.L106+1
 2063 033c 6B030000 		.word	.L111+1
 2064 0340 75030000 		.word	.L110+1
 2065 0344 7F030000 		.word	.L109+1
 2066 0348 89030000 		.word	.L107+1
 2067              		.p2align 1
 2068              	.L115:
 256:hardware/src/lcd.c **** 		{
 257:hardware/src/lcd.c **** 			case L2R_U2D://从左到右,从上到下
 258:hardware/src/lcd.c **** 				regval|=(1<<5)|(1<<4)|(0<<3); 
 2069              		.loc 1 258 11
 2070 034c FB89     		ldrh	r3, [r7, #14]	@ movhi
 2071 034e 43F03003 		orr	r3, r3, #48
 2072 0352 FB81     		strh	r3, [r7, #14]	@ movhi
 259:hardware/src/lcd.c **** 				break;
 2073              		.loc 1 259 5
 2074 0354 1DE0     		b	.L106
 2075              	.L114:
 260:hardware/src/lcd.c **** 			case L2R_D2U://从左到右,从下到上
 261:hardware/src/lcd.c **** 				regval|=(0<<5)|(1<<4)|(0<<3); 
 2076              		.loc 1 261 11
 2077 0356 FB89     		ldrh	r3, [r7, #14]	@ movhi
 2078 0358 43F01003 		orr	r3, r3, #16
 2079 035c FB81     		strh	r3, [r7, #14]	@ movhi
 262:hardware/src/lcd.c **** 				break;
 2080              		.loc 1 262 5
 2081 035e 18E0     		b	.L106
 2082              	.L113:
 263:hardware/src/lcd.c **** 			case R2L_U2D://从右到左,从上到下
 264:hardware/src/lcd.c **** 				regval|=(1<<5)|(0<<4)|(0<<3);
 2083              		.loc 1 264 11
 2084 0360 FB89     		ldrh	r3, [r7, #14]	@ movhi
 2085 0362 43F02003 		orr	r3, r3, #32
 2086 0366 FB81     		strh	r3, [r7, #14]	@ movhi
 265:hardware/src/lcd.c **** 				break;
 2087              		.loc 1 265 5
 2088 0368 13E0     		b	.L106
 2089              	.L111:
 266:hardware/src/lcd.c **** 			case R2L_D2U://从右到左,从下到上
 267:hardware/src/lcd.c **** 				regval|=(0<<5)|(0<<4)|(0<<3); 
 268:hardware/src/lcd.c **** 				break;	 
 269:hardware/src/lcd.c **** 			case U2D_L2R://从上到下,从左到右
 270:hardware/src/lcd.c **** 				regval|=(1<<5)|(1<<4)|(1<<3); 
 2090              		.loc 1 270 11
 2091 036a FB89     		ldrh	r3, [r7, #14]	@ movhi
 2092 036c 43F03803 		orr	r3, r3, #56
 2093 0370 FB81     		strh	r3, [r7, #14]	@ movhi
 271:hardware/src/lcd.c **** 				break;
 2094              		.loc 1 271 5
 2095 0372 0EE0     		b	.L106
ARM GAS  /tmp/ccRHtd69.s 			page 51


 2096              	.L110:
 272:hardware/src/lcd.c **** 			case U2D_R2L://从上到下,从右到左
 273:hardware/src/lcd.c **** 				regval|=(1<<5)|(0<<4)|(1<<3); 
 2097              		.loc 1 273 11
 2098 0374 FB89     		ldrh	r3, [r7, #14]	@ movhi
 2099 0376 43F02803 		orr	r3, r3, #40
 2100 037a FB81     		strh	r3, [r7, #14]	@ movhi
 274:hardware/src/lcd.c **** 				break;
 2101              		.loc 1 274 5
 2102 037c 09E0     		b	.L106
 2103              	.L109:
 275:hardware/src/lcd.c **** 			case D2U_L2R://从下到上,从左到右
 276:hardware/src/lcd.c **** 				regval|=(0<<5)|(1<<4)|(1<<3); 
 2104              		.loc 1 276 11
 2105 037e FB89     		ldrh	r3, [r7, #14]	@ movhi
 2106 0380 43F01803 		orr	r3, r3, #24
 2107 0384 FB81     		strh	r3, [r7, #14]	@ movhi
 277:hardware/src/lcd.c **** 				break;
 2108              		.loc 1 277 5
 2109 0386 04E0     		b	.L106
 2110              	.L107:
 278:hardware/src/lcd.c **** 			case D2U_R2L://从下到上,从右到左
 279:hardware/src/lcd.c **** 				regval|=(0<<5)|(0<<4)|(1<<3); 
 2111              		.loc 1 279 11
 2112 0388 FB89     		ldrh	r3, [r7, #14]	@ movhi
 2113 038a 43F00803 		orr	r3, r3, #8
 2114 038e FB81     		strh	r3, [r7, #14]	@ movhi
 280:hardware/src/lcd.c **** 				break;	 
 2115              		.loc 1 280 5
 2116 0390 00BF     		nop
 2117              	.L106:
 281:hardware/src/lcd.c **** 		}
 282:hardware/src/lcd.c **** 		if(lcddev.id==0x8989)//8989 IC
 2118              		.loc 1 282 12
 2119 0392 104B     		ldr	r3, .L121
 2120 0394 9B88     		ldrh	r3, [r3, #4]
 2121              		.loc 1 282 5
 2122 0396 48F68912 		movw	r2, #35209
 2123 039a 9342     		cmp	r3, r2
 2124 039c 08D1     		bne	.L116
 283:hardware/src/lcd.c **** 		{
 284:hardware/src/lcd.c **** 			dirreg=0X11;
 2125              		.loc 1 284 10
 2126 039e 1123     		movs	r3, #17
 2127 03a0 BB81     		strh	r3, [r7, #12]	@ movhi
 285:hardware/src/lcd.c **** 			regval|=0X6040;	//65K   
 2128              		.loc 1 285 10
 2129 03a2 FB89     		ldrh	r3, [r7, #14]	@ movhi
 2130 03a4 43F4C043 		orr	r3, r3, #24576
 2131 03a8 43F04003 		orr	r3, r3, #64
 2132 03ac FB81     		strh	r3, [r7, #14]	@ movhi
 2133 03ae 05E0     		b	.L117
 2134              	.L116:
 286:hardware/src/lcd.c **** 	 	}else//其他驱动IC		  
 287:hardware/src/lcd.c **** 		{
 288:hardware/src/lcd.c **** 			dirreg=0X03;
 2135              		.loc 1 288 10
ARM GAS  /tmp/ccRHtd69.s 			page 52


 2136 03b0 0323     		movs	r3, #3
 2137 03b2 BB81     		strh	r3, [r7, #12]	@ movhi
 289:hardware/src/lcd.c **** 			regval|=1<<12;  
 2138              		.loc 1 289 10
 2139 03b4 FB89     		ldrh	r3, [r7, #14]	@ movhi
 2140 03b6 43F48053 		orr	r3, r3, #4096
 2141 03ba FB81     		strh	r3, [r7, #14]	@ movhi
 2142              	.L117:
 290:hardware/src/lcd.c **** 		}
 291:hardware/src/lcd.c **** 		LCD_WriteReg(dirreg,regval);
 2143              		.loc 1 291 3
 2144 03bc FA89     		ldrh	r2, [r7, #14]
 2145 03be BB89     		ldrh	r3, [r7, #12]
 2146 03c0 1146     		mov	r1, r2
 2147 03c2 1846     		mov	r0, r3
 2148 03c4 FFF7FEFF 		bl	LCD_WriteReg
 292:hardware/src/lcd.c **** 	}
 293:hardware/src/lcd.c **** }   
 2149              		.loc 1 293 1
 2150 03c8 00BF     		nop
 2151              	.L105:
 2152 03ca 00BF     		nop
 2153 03cc 1037     		adds	r7, r7, #16
 2154              	.LCFI66:
 2155              		.cfi_def_cfa_offset 8
 2156 03ce BD46     		mov	sp, r7
 2157              	.LCFI67:
 2158              		.cfi_def_cfa_register 13
 2159              		@ sp needed
 2160 03d0 80BD     		pop	{r7, pc}
 2161              	.L122:
 2162 03d2 00BF     		.align	2
 2163              	.L121:
 2164 03d4 00000000 		.word	lcddev
 2165              		.cfi_endproc
 2166              	.LFE79:
 2168              		.section	.text.LCD_DrawPoint,"ax",%progbits
 2169              		.align	1
 2170              		.global	LCD_DrawPoint
 2171              		.syntax unified
 2172              		.thumb
 2173              		.thumb_func
 2174              		.fpu softvfp
 2176              	LCD_DrawPoint:
 2177              	.LFB80:
 294:hardware/src/lcd.c **** //画点
 295:hardware/src/lcd.c **** //x,y:坐标
 296:hardware/src/lcd.c **** //POINT_COLOR:此点的颜色
 297:hardware/src/lcd.c **** void LCD_DrawPoint(u16 x,u16 y)
 298:hardware/src/lcd.c **** {
 2178              		.loc 1 298 1
 2179              		.cfi_startproc
 2180              		@ args = 0, pretend = 0, frame = 8
 2181              		@ frame_needed = 1, uses_anonymous_args = 0
 2182 0000 80B5     		push	{r7, lr}
 2183              	.LCFI68:
 2184              		.cfi_def_cfa_offset 8
ARM GAS  /tmp/ccRHtd69.s 			page 53


 2185              		.cfi_offset 7, -8
 2186              		.cfi_offset 14, -4
 2187 0002 82B0     		sub	sp, sp, #8
 2188              	.LCFI69:
 2189              		.cfi_def_cfa_offset 16
 2190 0004 00AF     		add	r7, sp, #0
 2191              	.LCFI70:
 2192              		.cfi_def_cfa_register 7
 2193 0006 0346     		mov	r3, r0
 2194 0008 0A46     		mov	r2, r1
 2195 000a FB80     		strh	r3, [r7, #6]	@ movhi
 2196 000c 1346     		mov	r3, r2	@ movhi
 2197 000e BB80     		strh	r3, [r7, #4]	@ movhi
 299:hardware/src/lcd.c **** 	LCD_SetCursor(x,y);		//设置光标位置 
 2198              		.loc 1 299 2
 2199 0010 BA88     		ldrh	r2, [r7, #4]
 2200 0012 FB88     		ldrh	r3, [r7, #6]
 2201 0014 1146     		mov	r1, r2
 2202 0016 1846     		mov	r0, r3
 2203 0018 FFF7FEFF 		bl	LCD_SetCursor
 300:hardware/src/lcd.c **** 	LCD_WriteRAM_Prepare();	//开始写入GRAM
 2204              		.loc 1 300 2
 2205 001c FFF7FEFF 		bl	LCD_WriteRAM_Prepare
 301:hardware/src/lcd.c **** 	LCD->LCD_RAM=POINT_COLOR; 
 2206              		.loc 1 301 5
 2207 0020 034B     		ldr	r3, .L124
 2208              		.loc 1 301 14
 2209 0022 044A     		ldr	r2, .L124+4
 2210 0024 1288     		ldrh	r2, [r2]
 2211 0026 5A80     		strh	r2, [r3, #2]	@ movhi
 302:hardware/src/lcd.c **** }
 2212              		.loc 1 302 1
 2213 0028 00BF     		nop
 2214 002a 0837     		adds	r7, r7, #8
 2215              	.LCFI71:
 2216              		.cfi_def_cfa_offset 8
 2217 002c BD46     		mov	sp, r7
 2218              	.LCFI72:
 2219              		.cfi_def_cfa_register 13
 2220              		@ sp needed
 2221 002e 80BD     		pop	{r7, pc}
 2222              	.L125:
 2223              		.align	2
 2224              	.L124:
 2225 0030 FE07006C 		.word	1811941374
 2226 0034 00000000 		.word	POINT_COLOR
 2227              		.cfi_endproc
 2228              	.LFE80:
 2230              		.section	.text.LCD_Fast_DrawPoint,"ax",%progbits
 2231              		.align	1
 2232              		.global	LCD_Fast_DrawPoint
 2233              		.syntax unified
 2234              		.thumb
 2235              		.thumb_func
 2236              		.fpu softvfp
 2238              	LCD_Fast_DrawPoint:
 2239              	.LFB81:
ARM GAS  /tmp/ccRHtd69.s 			page 54


 303:hardware/src/lcd.c **** //快速画点
 304:hardware/src/lcd.c **** //x,y:坐标
 305:hardware/src/lcd.c **** //color:颜色
 306:hardware/src/lcd.c **** void LCD_Fast_DrawPoint(u16 x,u16 y,u16 color)
 307:hardware/src/lcd.c **** {	   
 2240              		.loc 1 307 1
 2241              		.cfi_startproc
 2242              		@ args = 0, pretend = 0, frame = 8
 2243              		@ frame_needed = 1, uses_anonymous_args = 0
 2244 0000 80B5     		push	{r7, lr}
 2245              	.LCFI73:
 2246              		.cfi_def_cfa_offset 8
 2247              		.cfi_offset 7, -8
 2248              		.cfi_offset 14, -4
 2249 0002 82B0     		sub	sp, sp, #8
 2250              	.LCFI74:
 2251              		.cfi_def_cfa_offset 16
 2252 0004 00AF     		add	r7, sp, #0
 2253              	.LCFI75:
 2254              		.cfi_def_cfa_register 7
 2255 0006 0346     		mov	r3, r0
 2256 0008 FB80     		strh	r3, [r7, #6]	@ movhi
 2257 000a 0B46     		mov	r3, r1	@ movhi
 2258 000c BB80     		strh	r3, [r7, #4]	@ movhi
 2259 000e 1346     		mov	r3, r2	@ movhi
 2260 0010 7B80     		strh	r3, [r7, #2]	@ movhi
 308:hardware/src/lcd.c **** 	if(lcddev.id==0X9341||lcddev.id==0X5310)
 2261              		.loc 1 308 11
 2262 0012 5F4B     		ldr	r3, .L134
 2263 0014 9B88     		ldrh	r3, [r3, #4]
 2264              		.loc 1 308 4
 2265 0016 49F24132 		movw	r2, #37697
 2266 001a 9342     		cmp	r3, r2
 2267 001c 05D0     		beq	.L127
 2268              		.loc 1 308 30 discriminator 1
 2269 001e 5C4B     		ldr	r3, .L134
 2270 0020 9B88     		ldrh	r3, [r3, #4]
 2271              		.loc 1 308 22 discriminator 1
 2272 0022 45F21032 		movw	r2, #21264
 2273 0026 9342     		cmp	r3, r2
 2274 0028 22D1     		bne	.L128
 2275              	.L127:
 309:hardware/src/lcd.c **** 	{
 310:hardware/src/lcd.c **** 		LCD_WR_REG(lcddev.setxcmd); 
 2276              		.loc 1 310 3
 2277 002a 594B     		ldr	r3, .L134
 2278 002c 5B89     		ldrh	r3, [r3, #10]
 2279 002e 1846     		mov	r0, r3
 2280 0030 FFF7FEFF 		bl	LCD_WR_REG
 311:hardware/src/lcd.c **** 		LCD_WR_DATA(x>>8); 
 2281              		.loc 1 311 3
 2282 0034 FB88     		ldrh	r3, [r7, #6]
 2283 0036 1B0A     		lsrs	r3, r3, #8
 2284 0038 9BB2     		uxth	r3, r3
 2285 003a 1846     		mov	r0, r3
 2286 003c FFF7FEFF 		bl	LCD_WR_DATA
 312:hardware/src/lcd.c **** 		LCD_WR_DATA(x&0XFF);	 
ARM GAS  /tmp/ccRHtd69.s 			page 55


 2287              		.loc 1 312 3
 2288 0040 FB88     		ldrh	r3, [r7, #6]	@ movhi
 2289 0042 DBB2     		uxtb	r3, r3
 2290 0044 9BB2     		uxth	r3, r3
 2291 0046 1846     		mov	r0, r3
 2292 0048 FFF7FEFF 		bl	LCD_WR_DATA
 313:hardware/src/lcd.c **** 		LCD_WR_REG(lcddev.setycmd); 
 2293              		.loc 1 313 3
 2294 004c 504B     		ldr	r3, .L134
 2295 004e 9B89     		ldrh	r3, [r3, #12]
 2296 0050 1846     		mov	r0, r3
 2297 0052 FFF7FEFF 		bl	LCD_WR_REG
 314:hardware/src/lcd.c **** 		LCD_WR_DATA(y>>8); 
 2298              		.loc 1 314 3
 2299 0056 BB88     		ldrh	r3, [r7, #4]
 2300 0058 1B0A     		lsrs	r3, r3, #8
 2301 005a 9BB2     		uxth	r3, r3
 2302 005c 1846     		mov	r0, r3
 2303 005e FFF7FEFF 		bl	LCD_WR_DATA
 315:hardware/src/lcd.c **** 		LCD_WR_DATA(y&0XFF);
 2304              		.loc 1 315 3
 2305 0062 BB88     		ldrh	r3, [r7, #4]	@ movhi
 2306 0064 DBB2     		uxtb	r3, r3
 2307 0066 9BB2     		uxth	r3, r3
 2308 0068 1846     		mov	r0, r3
 2309 006a FFF7FEFF 		bl	LCD_WR_DATA
 2310 006e 83E0     		b	.L129
 2311              	.L128:
 316:hardware/src/lcd.c **** 	}else if(lcddev.id==0X5510)
 2312              		.loc 1 316 17
 2313 0070 474B     		ldr	r3, .L134
 2314 0072 9B88     		ldrh	r3, [r3, #4]
 2315              		.loc 1 316 10
 2316 0074 45F21052 		movw	r2, #21776
 2317 0078 9342     		cmp	r3, r2
 2318 007a 30D1     		bne	.L130
 317:hardware/src/lcd.c **** 	{
 318:hardware/src/lcd.c **** 		LCD_WR_REG(lcddev.setxcmd);LCD_WR_DATA(x>>8);  
 2319              		.loc 1 318 3
 2320 007c 444B     		ldr	r3, .L134
 2321 007e 5B89     		ldrh	r3, [r3, #10]
 2322 0080 1846     		mov	r0, r3
 2323 0082 FFF7FEFF 		bl	LCD_WR_REG
 2324              		.loc 1 318 30
 2325 0086 FB88     		ldrh	r3, [r7, #6]
 2326 0088 1B0A     		lsrs	r3, r3, #8
 2327 008a 9BB2     		uxth	r3, r3
 2328 008c 1846     		mov	r0, r3
 2329 008e FFF7FEFF 		bl	LCD_WR_DATA
 319:hardware/src/lcd.c **** 		LCD_WR_REG(lcddev.setxcmd+1);LCD_WR_DATA(x&0XFF);	  
 2330              		.loc 1 319 20
 2331 0092 3F4B     		ldr	r3, .L134
 2332 0094 5B89     		ldrh	r3, [r3, #10]
 2333              		.loc 1 319 3
 2334 0096 0133     		adds	r3, r3, #1
 2335 0098 9BB2     		uxth	r3, r3
 2336 009a 1846     		mov	r0, r3
ARM GAS  /tmp/ccRHtd69.s 			page 56


 2337 009c FFF7FEFF 		bl	LCD_WR_REG
 2338              		.loc 1 319 32
 2339 00a0 FB88     		ldrh	r3, [r7, #6]	@ movhi
 2340 00a2 DBB2     		uxtb	r3, r3
 2341 00a4 9BB2     		uxth	r3, r3
 2342 00a6 1846     		mov	r0, r3
 2343 00a8 FFF7FEFF 		bl	LCD_WR_DATA
 320:hardware/src/lcd.c **** 		LCD_WR_REG(lcddev.setycmd);LCD_WR_DATA(y>>8);  
 2344              		.loc 1 320 3
 2345 00ac 384B     		ldr	r3, .L134
 2346 00ae 9B89     		ldrh	r3, [r3, #12]
 2347 00b0 1846     		mov	r0, r3
 2348 00b2 FFF7FEFF 		bl	LCD_WR_REG
 2349              		.loc 1 320 30
 2350 00b6 BB88     		ldrh	r3, [r7, #4]
 2351 00b8 1B0A     		lsrs	r3, r3, #8
 2352 00ba 9BB2     		uxth	r3, r3
 2353 00bc 1846     		mov	r0, r3
 2354 00be FFF7FEFF 		bl	LCD_WR_DATA
 321:hardware/src/lcd.c **** 		LCD_WR_REG(lcddev.setycmd+1);LCD_WR_DATA(y&0XFF); 
 2355              		.loc 1 321 20
 2356 00c2 334B     		ldr	r3, .L134
 2357 00c4 9B89     		ldrh	r3, [r3, #12]
 2358              		.loc 1 321 3
 2359 00c6 0133     		adds	r3, r3, #1
 2360 00c8 9BB2     		uxth	r3, r3
 2361 00ca 1846     		mov	r0, r3
 2362 00cc FFF7FEFF 		bl	LCD_WR_REG
 2363              		.loc 1 321 32
 2364 00d0 BB88     		ldrh	r3, [r7, #4]	@ movhi
 2365 00d2 DBB2     		uxtb	r3, r3
 2366 00d4 9BB2     		uxth	r3, r3
 2367 00d6 1846     		mov	r0, r3
 2368 00d8 FFF7FEFF 		bl	LCD_WR_DATA
 2369 00dc 4CE0     		b	.L129
 2370              	.L130:
 322:hardware/src/lcd.c **** 	}else if(lcddev.id==0X6804)
 2371              		.loc 1 322 17
 2372 00de 2C4B     		ldr	r3, .L134
 2373 00e0 9B88     		ldrh	r3, [r3, #4]
 2374              		.loc 1 322 10
 2375 00e2 46F60402 		movw	r2, #26628
 2376 00e6 9342     		cmp	r3, r2
 2377 00e8 2DD1     		bne	.L131
 323:hardware/src/lcd.c **** 	{		    
 324:hardware/src/lcd.c **** 		if(lcddev.dir==1)x=lcddev.width-1-x;//横屏时处理
 2378              		.loc 1 324 12
 2379 00ea 294B     		ldr	r3, .L134
 2380 00ec 9B79     		ldrb	r3, [r3, #6]	@ zero_extendqisi2
 2381              		.loc 1 324 5
 2382 00ee 012B     		cmp	r3, #1
 2383 00f0 06D1     		bne	.L132
 2384              		.loc 1 324 28 discriminator 1
 2385 00f2 274B     		ldr	r3, .L134
 2386 00f4 1A88     		ldrh	r2, [r3]
 2387              		.loc 1 324 36 discriminator 1
 2388 00f6 FB88     		ldrh	r3, [r7, #6]	@ movhi
ARM GAS  /tmp/ccRHtd69.s 			page 57


 2389 00f8 D31A     		subs	r3, r2, r3
 2390 00fa 9BB2     		uxth	r3, r3
 2391              		.loc 1 324 21 discriminator 1
 2392 00fc 013B     		subs	r3, r3, #1
 2393 00fe FB80     		strh	r3, [r7, #6]	@ movhi
 2394              	.L132:
 325:hardware/src/lcd.c **** 		LCD_WR_REG(lcddev.setxcmd); 
 2395              		.loc 1 325 3
 2396 0100 234B     		ldr	r3, .L134
 2397 0102 5B89     		ldrh	r3, [r3, #10]
 2398 0104 1846     		mov	r0, r3
 2399 0106 FFF7FEFF 		bl	LCD_WR_REG
 326:hardware/src/lcd.c **** 		LCD_WR_DATA(x>>8); 
 2400              		.loc 1 326 3
 2401 010a FB88     		ldrh	r3, [r7, #6]
 2402 010c 1B0A     		lsrs	r3, r3, #8
 2403 010e 9BB2     		uxth	r3, r3
 2404 0110 1846     		mov	r0, r3
 2405 0112 FFF7FEFF 		bl	LCD_WR_DATA
 327:hardware/src/lcd.c **** 		LCD_WR_DATA(x&0XFF);	 
 2406              		.loc 1 327 3
 2407 0116 FB88     		ldrh	r3, [r7, #6]	@ movhi
 2408 0118 DBB2     		uxtb	r3, r3
 2409 011a 9BB2     		uxth	r3, r3
 2410 011c 1846     		mov	r0, r3
 2411 011e FFF7FEFF 		bl	LCD_WR_DATA
 328:hardware/src/lcd.c **** 		LCD_WR_REG(lcddev.setycmd); 
 2412              		.loc 1 328 3
 2413 0122 1B4B     		ldr	r3, .L134
 2414 0124 9B89     		ldrh	r3, [r3, #12]
 2415 0126 1846     		mov	r0, r3
 2416 0128 FFF7FEFF 		bl	LCD_WR_REG
 329:hardware/src/lcd.c **** 		LCD_WR_DATA(y>>8); 
 2417              		.loc 1 329 3
 2418 012c BB88     		ldrh	r3, [r7, #4]
 2419 012e 1B0A     		lsrs	r3, r3, #8
 2420 0130 9BB2     		uxth	r3, r3
 2421 0132 1846     		mov	r0, r3
 2422 0134 FFF7FEFF 		bl	LCD_WR_DATA
 330:hardware/src/lcd.c **** 		LCD_WR_DATA(y&0XFF);
 2423              		.loc 1 330 3
 2424 0138 BB88     		ldrh	r3, [r7, #4]	@ movhi
 2425 013a DBB2     		uxtb	r3, r3
 2426 013c 9BB2     		uxth	r3, r3
 2427 013e 1846     		mov	r0, r3
 2428 0140 FFF7FEFF 		bl	LCD_WR_DATA
 2429 0144 18E0     		b	.L129
 2430              	.L131:
 331:hardware/src/lcd.c **** 	}else
 332:hardware/src/lcd.c **** 	{
 333:hardware/src/lcd.c ****  		if(lcddev.dir==1)x=lcddev.width-1-x;//横屏其实就是调转x,y坐标
 2431              		.loc 1 333 13
 2432 0146 124B     		ldr	r3, .L134
 2433 0148 9B79     		ldrb	r3, [r3, #6]	@ zero_extendqisi2
 2434              		.loc 1 333 6
 2435 014a 012B     		cmp	r3, #1
 2436 014c 06D1     		bne	.L133
ARM GAS  /tmp/ccRHtd69.s 			page 58


 2437              		.loc 1 333 29 discriminator 1
 2438 014e 104B     		ldr	r3, .L134
 2439 0150 1A88     		ldrh	r2, [r3]
 2440              		.loc 1 333 37 discriminator 1
 2441 0152 FB88     		ldrh	r3, [r7, #6]	@ movhi
 2442 0154 D31A     		subs	r3, r2, r3
 2443 0156 9BB2     		uxth	r3, r3
 2444              		.loc 1 333 22 discriminator 1
 2445 0158 013B     		subs	r3, r3, #1
 2446 015a FB80     		strh	r3, [r7, #6]	@ movhi
 2447              	.L133:
 334:hardware/src/lcd.c **** 		LCD_WriteReg(lcddev.setxcmd,x);
 2448              		.loc 1 334 3
 2449 015c 0C4B     		ldr	r3, .L134
 2450 015e 5B89     		ldrh	r3, [r3, #10]
 2451 0160 FA88     		ldrh	r2, [r7, #6]
 2452 0162 1146     		mov	r1, r2
 2453 0164 1846     		mov	r0, r3
 2454 0166 FFF7FEFF 		bl	LCD_WriteReg
 335:hardware/src/lcd.c **** 		LCD_WriteReg(lcddev.setycmd,y);
 2455              		.loc 1 335 3
 2456 016a 094B     		ldr	r3, .L134
 2457 016c 9B89     		ldrh	r3, [r3, #12]
 2458 016e BA88     		ldrh	r2, [r7, #4]
 2459 0170 1146     		mov	r1, r2
 2460 0172 1846     		mov	r0, r3
 2461 0174 FFF7FEFF 		bl	LCD_WriteReg
 2462              	.L129:
 336:hardware/src/lcd.c **** 	}			 
 337:hardware/src/lcd.c **** 	LCD->LCD_REG=lcddev.wramcmd; 
 2463              		.loc 1 337 5
 2464 0178 064B     		ldr	r3, .L134+4
 2465              		.loc 1 337 21
 2466 017a 054A     		ldr	r2, .L134
 2467 017c 1289     		ldrh	r2, [r2, #8]
 2468              		.loc 1 337 14
 2469 017e 1A80     		strh	r2, [r3]	@ movhi
 338:hardware/src/lcd.c **** 	LCD->LCD_RAM=color; 
 2470              		.loc 1 338 5
 2471 0180 044A     		ldr	r2, .L134+4
 2472              		.loc 1 338 14
 2473 0182 7B88     		ldrh	r3, [r7, #2]	@ movhi
 2474 0184 5380     		strh	r3, [r2, #2]	@ movhi
 339:hardware/src/lcd.c **** }	 
 2475              		.loc 1 339 1
 2476 0186 00BF     		nop
 2477 0188 0837     		adds	r7, r7, #8
 2478              	.LCFI76:
 2479              		.cfi_def_cfa_offset 8
 2480 018a BD46     		mov	sp, r7
 2481              	.LCFI77:
 2482              		.cfi_def_cfa_register 13
 2483              		@ sp needed
 2484 018c 80BD     		pop	{r7, pc}
 2485              	.L135:
 2486 018e 00BF     		.align	2
 2487              	.L134:
ARM GAS  /tmp/ccRHtd69.s 			page 59


 2488 0190 00000000 		.word	lcddev
 2489 0194 FE07006C 		.word	1811941374
 2490              		.cfi_endproc
 2491              	.LFE81:
 2493              		.section	.text.LCD_Display_Dir,"ax",%progbits
 2494              		.align	1
 2495              		.global	LCD_Display_Dir
 2496              		.syntax unified
 2497              		.thumb
 2498              		.thumb_func
 2499              		.fpu softvfp
 2501              	LCD_Display_Dir:
 2502              	.LFB82:
 340:hardware/src/lcd.c **** 
 341:hardware/src/lcd.c **** 
 342:hardware/src/lcd.c **** //设置LCD显示方向
 343:hardware/src/lcd.c **** //dir:0,竖屏；1,横屏
 344:hardware/src/lcd.c **** void LCD_Display_Dir(u8 dir)
 345:hardware/src/lcd.c **** {
 2503              		.loc 1 345 1
 2504              		.cfi_startproc
 2505              		@ args = 0, pretend = 0, frame = 8
 2506              		@ frame_needed = 1, uses_anonymous_args = 0
 2507 0000 80B5     		push	{r7, lr}
 2508              	.LCFI78:
 2509              		.cfi_def_cfa_offset 8
 2510              		.cfi_offset 7, -8
 2511              		.cfi_offset 14, -4
 2512 0002 82B0     		sub	sp, sp, #8
 2513              	.LCFI79:
 2514              		.cfi_def_cfa_offset 16
 2515 0004 00AF     		add	r7, sp, #0
 2516              	.LCFI80:
 2517              		.cfi_def_cfa_register 7
 2518 0006 0346     		mov	r3, r0
 2519 0008 FB71     		strb	r3, [r7, #7]
 346:hardware/src/lcd.c **** 	if(dir==0)			//竖屏
 2520              		.loc 1 346 4
 2521 000a FB79     		ldrb	r3, [r7, #7]	@ zero_extendqisi2
 2522 000c 002B     		cmp	r3, #0
 2523 000e 6FD1     		bne	.L137
 347:hardware/src/lcd.c **** 	{
 348:hardware/src/lcd.c **** 		lcddev.dir=0;	//竖屏
 2524              		.loc 1 348 13
 2525 0010 784B     		ldr	r3, .L154
 2526 0012 0022     		movs	r2, #0
 2527 0014 9A71     		strb	r2, [r3, #6]
 349:hardware/src/lcd.c **** 		lcddev.width=240;
 2528              		.loc 1 349 15
 2529 0016 774B     		ldr	r3, .L154
 2530 0018 F022     		movs	r2, #240
 2531 001a 1A80     		strh	r2, [r3]	@ movhi
 350:hardware/src/lcd.c **** 		lcddev.height=320;
 2532              		.loc 1 350 16
 2533 001c 754B     		ldr	r3, .L154
 2534 001e 4FF4A072 		mov	r2, #320
 2535 0022 5A80     		strh	r2, [r3, #2]	@ movhi
ARM GAS  /tmp/ccRHtd69.s 			page 60


 351:hardware/src/lcd.c **** 		if(lcddev.id==0X9341||lcddev.id==0X6804||lcddev.id==0X5310)
 2536              		.loc 1 351 12
 2537 0024 734B     		ldr	r3, .L154
 2538 0026 9B88     		ldrh	r3, [r3, #4]
 2539              		.loc 1 351 5
 2540 0028 49F24132 		movw	r2, #37697
 2541 002c 9342     		cmp	r3, r2
 2542 002e 0BD0     		beq	.L138
 2543              		.loc 1 351 31 discriminator 1
 2544 0030 704B     		ldr	r3, .L154
 2545 0032 9B88     		ldrh	r3, [r3, #4]
 2546              		.loc 1 351 23 discriminator 1
 2547 0034 46F60402 		movw	r2, #26628
 2548 0038 9342     		cmp	r3, r2
 2549 003a 05D0     		beq	.L138
 2550              		.loc 1 351 50 discriminator 2
 2551 003c 6D4B     		ldr	r3, .L154
 2552 003e 9B88     		ldrh	r3, [r3, #4]
 2553              		.loc 1 351 42 discriminator 2
 2554 0040 45F21032 		movw	r2, #21264
 2555 0044 9342     		cmp	r3, r2
 2556 0046 1ED1     		bne	.L139
 2557              	.L138:
 352:hardware/src/lcd.c **** 		{
 353:hardware/src/lcd.c **** 			lcddev.wramcmd=0X2C;
 2558              		.loc 1 353 18
 2559 0048 6A4B     		ldr	r3, .L154
 2560 004a 2C22     		movs	r2, #44
 2561 004c 1A81     		strh	r2, [r3, #8]	@ movhi
 354:hardware/src/lcd.c **** 	 		lcddev.setxcmd=0X2A;
 2562              		.loc 1 354 19
 2563 004e 694B     		ldr	r3, .L154
 2564 0050 2A22     		movs	r2, #42
 2565 0052 5A81     		strh	r2, [r3, #10]	@ movhi
 355:hardware/src/lcd.c **** 			lcddev.setycmd=0X2B;  	 
 2566              		.loc 1 355 18
 2567 0054 674B     		ldr	r3, .L154
 2568 0056 2B22     		movs	r2, #43
 2569 0058 9A81     		strh	r2, [r3, #12]	@ movhi
 356:hardware/src/lcd.c **** 			if(lcddev.id==0X6804||lcddev.id==0X5310)
 2570              		.loc 1 356 13
 2571 005a 664B     		ldr	r3, .L154
 2572 005c 9B88     		ldrh	r3, [r3, #4]
 2573              		.loc 1 356 6
 2574 005e 46F60402 		movw	r2, #26628
 2575 0062 9342     		cmp	r3, r2
 2576 0064 06D0     		beq	.L140
 2577              		.loc 1 356 32 discriminator 1
 2578 0066 634B     		ldr	r3, .L154
 2579 0068 9B88     		ldrh	r3, [r3, #4]
 2580              		.loc 1 356 24 discriminator 1
 2581 006a 45F21032 		movw	r2, #21264
 2582 006e 9342     		cmp	r3, r2
 2583 0070 40F0B780 		bne	.L153
 2584              	.L140:
 357:hardware/src/lcd.c **** 			{
 358:hardware/src/lcd.c **** 				lcddev.width=320;
ARM GAS  /tmp/ccRHtd69.s 			page 61


 2585              		.loc 1 358 17
 2586 0074 5F4B     		ldr	r3, .L154
 2587 0076 4FF4A072 		mov	r2, #320
 2588 007a 1A80     		strh	r2, [r3]	@ movhi
 359:hardware/src/lcd.c **** 				lcddev.height=480;
 2589              		.loc 1 359 18
 2590 007c 5D4B     		ldr	r3, .L154
 2591 007e 4FF4F072 		mov	r2, #480
 2592 0082 5A80     		strh	r2, [r3, #2]	@ movhi
 356:hardware/src/lcd.c **** 			if(lcddev.id==0X6804||lcddev.id==0X5310)
 2593              		.loc 1 356 6
 2594 0084 ADE0     		b	.L153
 2595              	.L139:
 360:hardware/src/lcd.c **** 			}
 361:hardware/src/lcd.c **** 		}else if(lcddev.id==0X8989)
 2596              		.loc 1 361 18
 2597 0086 5B4B     		ldr	r3, .L154
 2598 0088 9B88     		ldrh	r3, [r3, #4]
 2599              		.loc 1 361 11
 2600 008a 48F68912 		movw	r2, #35209
 2601 008e 9342     		cmp	r3, r2
 2602 0090 09D1     		bne	.L143
 362:hardware/src/lcd.c **** 		{
 363:hardware/src/lcd.c **** 			lcddev.wramcmd=R34;
 2603              		.loc 1 363 18
 2604 0092 584B     		ldr	r3, .L154
 2605 0094 2222     		movs	r2, #34
 2606 0096 1A81     		strh	r2, [r3, #8]	@ movhi
 364:hardware/src/lcd.c **** 	 		lcddev.setxcmd=0X4E;
 2607              		.loc 1 364 19
 2608 0098 564B     		ldr	r3, .L154
 2609 009a 4E22     		movs	r2, #78
 2610 009c 5A81     		strh	r2, [r3, #10]	@ movhi
 365:hardware/src/lcd.c **** 			lcddev.setycmd=0X4F;  
 2611              		.loc 1 365 18
 2612 009e 554B     		ldr	r3, .L154
 2613 00a0 4F22     		movs	r2, #79
 2614 00a2 9A81     		strh	r2, [r3, #12]	@ movhi
 2615 00a4 9EE0     		b	.L145
 2616              	.L143:
 366:hardware/src/lcd.c **** 		}else if(lcddev.id==0x5510)
 2617              		.loc 1 366 18
 2618 00a6 534B     		ldr	r3, .L154
 2619 00a8 9B88     		ldrh	r3, [r3, #4]
 2620              		.loc 1 366 11
 2621 00aa 45F21052 		movw	r2, #21776
 2622 00ae 9342     		cmp	r3, r2
 2623 00b0 14D1     		bne	.L144
 367:hardware/src/lcd.c **** 		{
 368:hardware/src/lcd.c **** 			lcddev.wramcmd=0X2C00;
 2624              		.loc 1 368 18
 2625 00b2 504B     		ldr	r3, .L154
 2626 00b4 4FF43052 		mov	r2, #11264
 2627 00b8 1A81     		strh	r2, [r3, #8]	@ movhi
 369:hardware/src/lcd.c **** 	 		lcddev.setxcmd=0X2A00;
 2628              		.loc 1 369 19
 2629 00ba 4E4B     		ldr	r3, .L154
ARM GAS  /tmp/ccRHtd69.s 			page 62


 2630 00bc 4FF42852 		mov	r2, #10752
 2631 00c0 5A81     		strh	r2, [r3, #10]	@ movhi
 370:hardware/src/lcd.c **** 			lcddev.setycmd=0X2B00; 
 2632              		.loc 1 370 18
 2633 00c2 4C4B     		ldr	r3, .L154
 2634 00c4 4FF42C52 		mov	r2, #11008
 2635 00c8 9A81     		strh	r2, [r3, #12]	@ movhi
 371:hardware/src/lcd.c **** 			lcddev.width=480;
 2636              		.loc 1 371 16
 2637 00ca 4A4B     		ldr	r3, .L154
 2638 00cc 4FF4F072 		mov	r2, #480
 2639 00d0 1A80     		strh	r2, [r3]	@ movhi
 372:hardware/src/lcd.c **** 			lcddev.height=800;
 2640              		.loc 1 372 17
 2641 00d2 484B     		ldr	r3, .L154
 2642 00d4 4FF44872 		mov	r2, #800
 2643 00d8 5A80     		strh	r2, [r3, #2]	@ movhi
 2644 00da 83E0     		b	.L145
 2645              	.L144:
 373:hardware/src/lcd.c **** 		}else
 374:hardware/src/lcd.c **** 		{
 375:hardware/src/lcd.c **** 			lcddev.wramcmd=R34;
 2646              		.loc 1 375 18
 2647 00dc 454B     		ldr	r3, .L154
 2648 00de 2222     		movs	r2, #34
 2649 00e0 1A81     		strh	r2, [r3, #8]	@ movhi
 376:hardware/src/lcd.c **** 	 		lcddev.setxcmd=R32;
 2650              		.loc 1 376 19
 2651 00e2 444B     		ldr	r3, .L154
 2652 00e4 2022     		movs	r2, #32
 2653 00e6 5A81     		strh	r2, [r3, #10]	@ movhi
 377:hardware/src/lcd.c **** 			lcddev.setycmd=R33;  
 2654              		.loc 1 377 18
 2655 00e8 424B     		ldr	r3, .L154
 2656 00ea 2122     		movs	r2, #33
 2657 00ec 9A81     		strh	r2, [r3, #12]	@ movhi
 2658 00ee 79E0     		b	.L145
 2659              	.L137:
 378:hardware/src/lcd.c **** 		}
 379:hardware/src/lcd.c **** 	}else 				//横屏
 380:hardware/src/lcd.c **** 	{	  				
 381:hardware/src/lcd.c **** 		lcddev.dir=1;	//横屏
 2660              		.loc 1 381 13
 2661 00f0 404B     		ldr	r3, .L154
 2662 00f2 0122     		movs	r2, #1
 2663 00f4 9A71     		strb	r2, [r3, #6]
 382:hardware/src/lcd.c **** 		lcddev.width=320;
 2664              		.loc 1 382 15
 2665 00f6 3F4B     		ldr	r3, .L154
 2666 00f8 4FF4A072 		mov	r2, #320
 2667 00fc 1A80     		strh	r2, [r3]	@ movhi
 383:hardware/src/lcd.c **** 		lcddev.height=240;
 2668              		.loc 1 383 16
 2669 00fe 3D4B     		ldr	r3, .L154
 2670 0100 F022     		movs	r2, #240
 2671 0102 5A80     		strh	r2, [r3, #2]	@ movhi
 384:hardware/src/lcd.c **** 		if(lcddev.id==0X9341||lcddev.id==0X5310)
ARM GAS  /tmp/ccRHtd69.s 			page 63


 2672              		.loc 1 384 12
 2673 0104 3B4B     		ldr	r3, .L154
 2674 0106 9B88     		ldrh	r3, [r3, #4]
 2675              		.loc 1 384 5
 2676 0108 49F24132 		movw	r2, #37697
 2677 010c 9342     		cmp	r3, r2
 2678 010e 05D0     		beq	.L146
 2679              		.loc 1 384 31 discriminator 1
 2680 0110 384B     		ldr	r3, .L154
 2681 0112 9B88     		ldrh	r3, [r3, #4]
 2682              		.loc 1 384 23 discriminator 1
 2683 0114 45F21032 		movw	r2, #21264
 2684 0118 9342     		cmp	r3, r2
 2685 011a 09D1     		bne	.L147
 2686              	.L146:
 385:hardware/src/lcd.c **** 		{
 386:hardware/src/lcd.c **** 			lcddev.wramcmd=0X2C;
 2687              		.loc 1 386 18
 2688 011c 354B     		ldr	r3, .L154
 2689 011e 2C22     		movs	r2, #44
 2690 0120 1A81     		strh	r2, [r3, #8]	@ movhi
 387:hardware/src/lcd.c **** 	 		lcddev.setxcmd=0X2A;
 2691              		.loc 1 387 19
 2692 0122 344B     		ldr	r3, .L154
 2693 0124 2A22     		movs	r2, #42
 2694 0126 5A81     		strh	r2, [r3, #10]	@ movhi
 388:hardware/src/lcd.c **** 			lcddev.setycmd=0X2B;  	 
 2695              		.loc 1 388 18
 2696 0128 324B     		ldr	r3, .L154
 2697 012a 2B22     		movs	r2, #43
 2698 012c 9A81     		strh	r2, [r3, #12]	@ movhi
 2699 012e 43E0     		b	.L148
 2700              	.L147:
 389:hardware/src/lcd.c **** 		}else if(lcddev.id==0X6804)	 
 2701              		.loc 1 389 18
 2702 0130 304B     		ldr	r3, .L154
 2703 0132 9B88     		ldrh	r3, [r3, #4]
 2704              		.loc 1 389 11
 2705 0134 46F60402 		movw	r2, #26628
 2706 0138 9342     		cmp	r3, r2
 2707 013a 09D1     		bne	.L149
 390:hardware/src/lcd.c **** 		{
 391:hardware/src/lcd.c ****  			lcddev.wramcmd=0X2C;
 2708              		.loc 1 391 19
 2709 013c 2D4B     		ldr	r3, .L154
 2710 013e 2C22     		movs	r2, #44
 2711 0140 1A81     		strh	r2, [r3, #8]	@ movhi
 392:hardware/src/lcd.c **** 	 		lcddev.setxcmd=0X2B;
 2712              		.loc 1 392 19
 2713 0142 2C4B     		ldr	r3, .L154
 2714 0144 2B22     		movs	r2, #43
 2715 0146 5A81     		strh	r2, [r3, #10]	@ movhi
 393:hardware/src/lcd.c **** 			lcddev.setycmd=0X2A; 
 2716              		.loc 1 393 18
 2717 0148 2A4B     		ldr	r3, .L154
 2718 014a 2A22     		movs	r2, #42
 2719 014c 9A81     		strh	r2, [r3, #12]	@ movhi
ARM GAS  /tmp/ccRHtd69.s 			page 64


 2720 014e 33E0     		b	.L148
 2721              	.L149:
 394:hardware/src/lcd.c **** 		}else if(lcddev.id==0X8989)
 2722              		.loc 1 394 18
 2723 0150 284B     		ldr	r3, .L154
 2724 0152 9B88     		ldrh	r3, [r3, #4]
 2725              		.loc 1 394 11
 2726 0154 48F68912 		movw	r2, #35209
 2727 0158 9342     		cmp	r3, r2
 2728 015a 09D1     		bne	.L150
 395:hardware/src/lcd.c **** 		{
 396:hardware/src/lcd.c **** 			lcddev.wramcmd=R34;
 2729              		.loc 1 396 18
 2730 015c 254B     		ldr	r3, .L154
 2731 015e 2222     		movs	r2, #34
 2732 0160 1A81     		strh	r2, [r3, #8]	@ movhi
 397:hardware/src/lcd.c **** 	 		lcddev.setxcmd=0X4F;
 2733              		.loc 1 397 19
 2734 0162 244B     		ldr	r3, .L154
 2735 0164 4F22     		movs	r2, #79
 2736 0166 5A81     		strh	r2, [r3, #10]	@ movhi
 398:hardware/src/lcd.c **** 			lcddev.setycmd=0X4E;   
 2737              		.loc 1 398 18
 2738 0168 224B     		ldr	r3, .L154
 2739 016a 4E22     		movs	r2, #78
 2740 016c 9A81     		strh	r2, [r3, #12]	@ movhi
 2741 016e 23E0     		b	.L148
 2742              	.L150:
 399:hardware/src/lcd.c **** 		}else if(lcddev.id==0x5510)
 2743              		.loc 1 399 18
 2744 0170 204B     		ldr	r3, .L154
 2745 0172 9B88     		ldrh	r3, [r3, #4]
 2746              		.loc 1 399 11
 2747 0174 45F21052 		movw	r2, #21776
 2748 0178 9342     		cmp	r3, r2
 2749 017a 14D1     		bne	.L151
 400:hardware/src/lcd.c **** 		{
 401:hardware/src/lcd.c **** 			lcddev.wramcmd=0X2C00;
 2750              		.loc 1 401 18
 2751 017c 1D4B     		ldr	r3, .L154
 2752 017e 4FF43052 		mov	r2, #11264
 2753 0182 1A81     		strh	r2, [r3, #8]	@ movhi
 402:hardware/src/lcd.c **** 	 		lcddev.setxcmd=0X2A00;
 2754              		.loc 1 402 19
 2755 0184 1B4B     		ldr	r3, .L154
 2756 0186 4FF42852 		mov	r2, #10752
 2757 018a 5A81     		strh	r2, [r3, #10]	@ movhi
 403:hardware/src/lcd.c **** 			lcddev.setycmd=0X2B00; 
 2758              		.loc 1 403 18
 2759 018c 194B     		ldr	r3, .L154
 2760 018e 4FF42C52 		mov	r2, #11008
 2761 0192 9A81     		strh	r2, [r3, #12]	@ movhi
 404:hardware/src/lcd.c **** 			lcddev.width=800;
 2762              		.loc 1 404 16
 2763 0194 174B     		ldr	r3, .L154
 2764 0196 4FF44872 		mov	r2, #800
 2765 019a 1A80     		strh	r2, [r3]	@ movhi
ARM GAS  /tmp/ccRHtd69.s 			page 65


 405:hardware/src/lcd.c **** 			lcddev.height=480;
 2766              		.loc 1 405 17
 2767 019c 154B     		ldr	r3, .L154
 2768 019e 4FF4F072 		mov	r2, #480
 2769 01a2 5A80     		strh	r2, [r3, #2]	@ movhi
 2770 01a4 08E0     		b	.L148
 2771              	.L151:
 406:hardware/src/lcd.c **** 		}else
 407:hardware/src/lcd.c **** 		{
 408:hardware/src/lcd.c **** 			lcddev.wramcmd=R34;
 2772              		.loc 1 408 18
 2773 01a6 134B     		ldr	r3, .L154
 2774 01a8 2222     		movs	r2, #34
 2775 01aa 1A81     		strh	r2, [r3, #8]	@ movhi
 409:hardware/src/lcd.c **** 	 		lcddev.setxcmd=R33;
 2776              		.loc 1 409 19
 2777 01ac 114B     		ldr	r3, .L154
 2778 01ae 2122     		movs	r2, #33
 2779 01b0 5A81     		strh	r2, [r3, #10]	@ movhi
 410:hardware/src/lcd.c **** 			lcddev.setycmd=R32;  
 2780              		.loc 1 410 18
 2781 01b2 104B     		ldr	r3, .L154
 2782 01b4 2022     		movs	r2, #32
 2783 01b6 9A81     		strh	r2, [r3, #12]	@ movhi
 2784              	.L148:
 411:hardware/src/lcd.c **** 		}
 412:hardware/src/lcd.c **** 		if(lcddev.id==0X6804||lcddev.id==0X5310)
 2785              		.loc 1 412 12
 2786 01b8 0E4B     		ldr	r3, .L154
 2787 01ba 9B88     		ldrh	r3, [r3, #4]
 2788              		.loc 1 412 5
 2789 01bc 46F60402 		movw	r2, #26628
 2790 01c0 9342     		cmp	r3, r2
 2791 01c2 05D0     		beq	.L152
 2792              		.loc 1 412 31 discriminator 1
 2793 01c4 0B4B     		ldr	r3, .L154
 2794 01c6 9B88     		ldrh	r3, [r3, #4]
 2795              		.loc 1 412 23 discriminator 1
 2796 01c8 45F21032 		movw	r2, #21264
 2797 01cc 9342     		cmp	r3, r2
 2798 01ce 09D1     		bne	.L145
 2799              	.L152:
 413:hardware/src/lcd.c **** 		{ 	 
 414:hardware/src/lcd.c **** 			lcddev.width=480;
 2800              		.loc 1 414 16
 2801 01d0 084B     		ldr	r3, .L154
 2802 01d2 4FF4F072 		mov	r2, #480
 2803 01d6 1A80     		strh	r2, [r3]	@ movhi
 415:hardware/src/lcd.c **** 			lcddev.height=320; 			
 2804              		.loc 1 415 17
 2805 01d8 064B     		ldr	r3, .L154
 2806 01da 4FF4A072 		mov	r2, #320
 2807 01de 5A80     		strh	r2, [r3, #2]	@ movhi
 2808 01e0 00E0     		b	.L145
 2809              	.L153:
 356:hardware/src/lcd.c **** 			{
 2810              		.loc 1 356 6
ARM GAS  /tmp/ccRHtd69.s 			page 66


 2811 01e2 00BF     		nop
 2812              	.L145:
 416:hardware/src/lcd.c **** 		}
 417:hardware/src/lcd.c **** 	} 
 418:hardware/src/lcd.c **** 	LCD_Scan_Dir(DFT_SCAN_DIR);	//默认扫描方向
 2813              		.loc 1 418 2
 2814 01e4 0020     		movs	r0, #0
 2815 01e6 FFF7FEFF 		bl	LCD_Scan_Dir
 419:hardware/src/lcd.c **** }	 
 2816              		.loc 1 419 1
 2817 01ea 00BF     		nop
 2818 01ec 0837     		adds	r7, r7, #8
 2819              	.LCFI81:
 2820              		.cfi_def_cfa_offset 8
 2821 01ee BD46     		mov	sp, r7
 2822              	.LCFI82:
 2823              		.cfi_def_cfa_register 13
 2824              		@ sp needed
 2825 01f0 80BD     		pop	{r7, pc}
 2826              	.L155:
 2827 01f2 00BF     		.align	2
 2828              	.L154:
 2829 01f4 00000000 		.word	lcddev
 2830              		.cfi_endproc
 2831              	.LFE82:
 2833              		.section	.text.LCD_Set_Window,"ax",%progbits
 2834              		.align	1
 2835              		.global	LCD_Set_Window
 2836              		.syntax unified
 2837              		.thumb
 2838              		.thumb_func
 2839              		.fpu softvfp
 2841              	LCD_Set_Window:
 2842              	.LFB83:
 420:hardware/src/lcd.c **** //设置窗口,并自动设置画点坐标到窗口左上角(sx,sy).
 421:hardware/src/lcd.c **** //sx,sy:窗口起始坐标(左上角)
 422:hardware/src/lcd.c **** //width,height:窗口宽度和高度,必须大于0!!
 423:hardware/src/lcd.c **** //窗体大小:width*height.
 424:hardware/src/lcd.c **** //68042,横屏时不支持窗口设置!! 
 425:hardware/src/lcd.c **** void LCD_Set_Window(u16 sx,u16 sy,u16 width,u16 height)
 426:hardware/src/lcd.c **** {   
 2843              		.loc 1 426 1
 2844              		.cfi_startproc
 2845              		@ args = 0, pretend = 0, frame = 24
 2846              		@ frame_needed = 1, uses_anonymous_args = 0
 2847 0000 90B5     		push	{r4, r7, lr}
 2848              	.LCFI83:
 2849              		.cfi_def_cfa_offset 12
 2850              		.cfi_offset 4, -12
 2851              		.cfi_offset 7, -8
 2852              		.cfi_offset 14, -4
 2853 0002 87B0     		sub	sp, sp, #28
 2854              	.LCFI84:
 2855              		.cfi_def_cfa_offset 40
 2856 0004 00AF     		add	r7, sp, #0
 2857              	.LCFI85:
 2858              		.cfi_def_cfa_register 7
ARM GAS  /tmp/ccRHtd69.s 			page 67


 2859 0006 0446     		mov	r4, r0
 2860 0008 0846     		mov	r0, r1
 2861 000a 1146     		mov	r1, r2
 2862 000c 1A46     		mov	r2, r3
 2863 000e 2346     		mov	r3, r4	@ movhi
 2864 0010 FB80     		strh	r3, [r7, #6]	@ movhi
 2865 0012 0346     		mov	r3, r0	@ movhi
 2866 0014 BB80     		strh	r3, [r7, #4]	@ movhi
 2867 0016 0B46     		mov	r3, r1	@ movhi
 2868 0018 7B80     		strh	r3, [r7, #2]	@ movhi
 2869 001a 1346     		mov	r3, r2	@ movhi
 2870 001c 3B80     		strh	r3, [r7]	@ movhi
 427:hardware/src/lcd.c **** 	u8 hsareg,heareg,vsareg,veareg;
 428:hardware/src/lcd.c **** 	u16 hsaval,heaval,vsaval,veaval; 
 429:hardware/src/lcd.c **** 	width=sx+width-1;
 2871              		.loc 1 429 10
 2872 001e FA88     		ldrh	r2, [r7, #6]	@ movhi
 2873 0020 7B88     		ldrh	r3, [r7, #2]	@ movhi
 2874 0022 1344     		add	r3, r3, r2
 2875 0024 9BB2     		uxth	r3, r3
 2876              		.loc 1 429 7
 2877 0026 013B     		subs	r3, r3, #1
 2878 0028 7B80     		strh	r3, [r7, #2]	@ movhi
 430:hardware/src/lcd.c **** 	height=sy+height-1;
 2879              		.loc 1 430 11
 2880 002a BA88     		ldrh	r2, [r7, #4]	@ movhi
 2881 002c 3B88     		ldrh	r3, [r7]	@ movhi
 2882 002e 1344     		add	r3, r3, r2
 2883 0030 9BB2     		uxth	r3, r3
 2884              		.loc 1 430 8
 2885 0032 013B     		subs	r3, r3, #1
 2886 0034 3B80     		strh	r3, [r7]	@ movhi
 431:hardware/src/lcd.c **** 	if(lcddev.id==0X9341||lcddev.id==0X5310||lcddev.id==0X6804)//6804横屏不支持
 2887              		.loc 1 431 11
 2888 0036 8F4B     		ldr	r3, .L166
 2889 0038 9B88     		ldrh	r3, [r3, #4]
 2890              		.loc 1 431 4
 2891 003a 49F24132 		movw	r2, #37697
 2892 003e 9342     		cmp	r3, r2
 2893 0040 0BD0     		beq	.L157
 2894              		.loc 1 431 30 discriminator 1
 2895 0042 8C4B     		ldr	r3, .L166
 2896 0044 9B88     		ldrh	r3, [r3, #4]
 2897              		.loc 1 431 22 discriminator 1
 2898 0046 45F21032 		movw	r2, #21264
 2899 004a 9342     		cmp	r3, r2
 2900 004c 05D0     		beq	.L157
 2901              		.loc 1 431 49 discriminator 2
 2902 004e 894B     		ldr	r3, .L166
 2903 0050 9B88     		ldrh	r3, [r3, #4]
 2904              		.loc 1 431 41 discriminator 2
 2905 0052 46F60402 		movw	r2, #26628
 2906 0056 9342     		cmp	r3, r2
 2907 0058 3AD1     		bne	.L158
 2908              	.L157:
 432:hardware/src/lcd.c **** 	{
 433:hardware/src/lcd.c **** 		LCD_WR_REG(lcddev.setxcmd); 
ARM GAS  /tmp/ccRHtd69.s 			page 68


 2909              		.loc 1 433 3
 2910 005a 864B     		ldr	r3, .L166
 2911 005c 5B89     		ldrh	r3, [r3, #10]
 2912 005e 1846     		mov	r0, r3
 2913 0060 FFF7FEFF 		bl	LCD_WR_REG
 434:hardware/src/lcd.c **** 		LCD_WR_DATA(sx>>8); 
 2914              		.loc 1 434 3
 2915 0064 FB88     		ldrh	r3, [r7, #6]
 2916 0066 1B0A     		lsrs	r3, r3, #8
 2917 0068 9BB2     		uxth	r3, r3
 2918 006a 1846     		mov	r0, r3
 2919 006c FFF7FEFF 		bl	LCD_WR_DATA
 435:hardware/src/lcd.c **** 		LCD_WR_DATA(sx&0XFF);	 
 2920              		.loc 1 435 3
 2921 0070 FB88     		ldrh	r3, [r7, #6]	@ movhi
 2922 0072 DBB2     		uxtb	r3, r3
 2923 0074 9BB2     		uxth	r3, r3
 2924 0076 1846     		mov	r0, r3
 2925 0078 FFF7FEFF 		bl	LCD_WR_DATA
 436:hardware/src/lcd.c **** 		LCD_WR_DATA(width>>8); 
 2926              		.loc 1 436 3
 2927 007c 7B88     		ldrh	r3, [r7, #2]
 2928 007e 1B0A     		lsrs	r3, r3, #8
 2929 0080 9BB2     		uxth	r3, r3
 2930 0082 1846     		mov	r0, r3
 2931 0084 FFF7FEFF 		bl	LCD_WR_DATA
 437:hardware/src/lcd.c **** 		LCD_WR_DATA(width&0XFF);  
 2932              		.loc 1 437 3
 2933 0088 7B88     		ldrh	r3, [r7, #2]	@ movhi
 2934 008a DBB2     		uxtb	r3, r3
 2935 008c 9BB2     		uxth	r3, r3
 2936 008e 1846     		mov	r0, r3
 2937 0090 FFF7FEFF 		bl	LCD_WR_DATA
 438:hardware/src/lcd.c **** 		LCD_WR_REG(lcddev.setycmd); 
 2938              		.loc 1 438 3
 2939 0094 774B     		ldr	r3, .L166
 2940 0096 9B89     		ldrh	r3, [r3, #12]
 2941 0098 1846     		mov	r0, r3
 2942 009a FFF7FEFF 		bl	LCD_WR_REG
 439:hardware/src/lcd.c **** 		LCD_WR_DATA(sy>>8); 
 2943              		.loc 1 439 3
 2944 009e BB88     		ldrh	r3, [r7, #4]
 2945 00a0 1B0A     		lsrs	r3, r3, #8
 2946 00a2 9BB2     		uxth	r3, r3
 2947 00a4 1846     		mov	r0, r3
 2948 00a6 FFF7FEFF 		bl	LCD_WR_DATA
 440:hardware/src/lcd.c **** 		LCD_WR_DATA(sy&0XFF); 
 2949              		.loc 1 440 3
 2950 00aa BB88     		ldrh	r3, [r7, #4]	@ movhi
 2951 00ac DBB2     		uxtb	r3, r3
 2952 00ae 9BB2     		uxth	r3, r3
 2953 00b0 1846     		mov	r0, r3
 2954 00b2 FFF7FEFF 		bl	LCD_WR_DATA
 441:hardware/src/lcd.c **** 		LCD_WR_DATA(height>>8); 
 2955              		.loc 1 441 3
 2956 00b6 3B88     		ldrh	r3, [r7]
 2957 00b8 1B0A     		lsrs	r3, r3, #8
ARM GAS  /tmp/ccRHtd69.s 			page 69


 2958 00ba 9BB2     		uxth	r3, r3
 2959 00bc 1846     		mov	r0, r3
 2960 00be FFF7FEFF 		bl	LCD_WR_DATA
 442:hardware/src/lcd.c **** 		LCD_WR_DATA(height&0XFF); 
 2961              		.loc 1 442 3
 2962 00c2 3B88     		ldrh	r3, [r7]	@ movhi
 2963 00c4 DBB2     		uxtb	r3, r3
 2964 00c6 9BB2     		uxth	r3, r3
 2965 00c8 1846     		mov	r0, r3
 2966 00ca FFF7FEFF 		bl	LCD_WR_DATA
 443:hardware/src/lcd.c **** 	}else if(lcddev.id==0X5510)
 444:hardware/src/lcd.c **** 	{
 445:hardware/src/lcd.c **** 		LCD_WR_REG(lcddev.setxcmd);LCD_WR_DATA(sx>>8);  
 446:hardware/src/lcd.c **** 		LCD_WR_REG(lcddev.setxcmd+1);LCD_WR_DATA(sx&0XFF);	  
 447:hardware/src/lcd.c **** 		LCD_WR_REG(lcddev.setxcmd+2);LCD_WR_DATA(width>>8);   
 448:hardware/src/lcd.c **** 		LCD_WR_REG(lcddev.setxcmd+3);LCD_WR_DATA(width&0XFF);   
 449:hardware/src/lcd.c **** 		LCD_WR_REG(lcddev.setycmd);LCD_WR_DATA(sy>>8);   
 450:hardware/src/lcd.c **** 		LCD_WR_REG(lcddev.setycmd+1);LCD_WR_DATA(sy&0XFF);  
 451:hardware/src/lcd.c **** 		LCD_WR_REG(lcddev.setycmd+2);LCD_WR_DATA(height>>8);   
 452:hardware/src/lcd.c **** 		LCD_WR_REG(lcddev.setycmd+3);LCD_WR_DATA(height&0XFF);  
 453:hardware/src/lcd.c **** 	}else	//其他驱动IC
 454:hardware/src/lcd.c **** 	{
 455:hardware/src/lcd.c **** 		if(lcddev.dir==1)//横屏
 456:hardware/src/lcd.c **** 		{
 457:hardware/src/lcd.c **** 			//窗口值
 458:hardware/src/lcd.c **** 			hsaval=sy;				
 459:hardware/src/lcd.c **** 			heaval=height;
 460:hardware/src/lcd.c **** 			vsaval=lcddev.width-width-1;
 461:hardware/src/lcd.c **** 			veaval=lcddev.width-sx-1;				
 462:hardware/src/lcd.c **** 		}else
 463:hardware/src/lcd.c **** 		{ 
 464:hardware/src/lcd.c **** 			hsaval=sx;				
 465:hardware/src/lcd.c **** 			heaval=width;
 466:hardware/src/lcd.c **** 			vsaval=sy;
 467:hardware/src/lcd.c **** 			veaval=height;
 468:hardware/src/lcd.c **** 		}
 469:hardware/src/lcd.c **** 	 	if(lcddev.id==0X8989)//8989 IC
 470:hardware/src/lcd.c **** 		{
 471:hardware/src/lcd.c **** 			hsareg=0X44;heareg=0X44;//水平方向窗口寄存器 (1289的由一个寄存器控制)
 472:hardware/src/lcd.c **** 			hsaval|=(heaval<<8);	//得到寄存器值.
 473:hardware/src/lcd.c **** 			heaval=hsaval;
 474:hardware/src/lcd.c **** 			vsareg=0X45;veareg=0X46;//垂直方向窗口寄存器	  
 475:hardware/src/lcd.c **** 		}else  //其他驱动IC
 476:hardware/src/lcd.c **** 		{
 477:hardware/src/lcd.c **** 			hsareg=0X50;heareg=0X51;//水平方向窗口寄存器
 478:hardware/src/lcd.c **** 			vsareg=0X52;veareg=0X53;//垂直方向窗口寄存器	  
 479:hardware/src/lcd.c **** 		}								  
 480:hardware/src/lcd.c **** 		//设置寄存器值
 481:hardware/src/lcd.c **** 		LCD_WriteReg(hsareg,hsaval);
 482:hardware/src/lcd.c **** 		LCD_WriteReg(heareg,heaval);
 483:hardware/src/lcd.c **** 		LCD_WriteReg(vsareg,vsaval);
 484:hardware/src/lcd.c **** 		LCD_WriteReg(veareg,veaval);		
 485:hardware/src/lcd.c **** 		LCD_SetCursor(sx,sy);	//设置光标位置
 486:hardware/src/lcd.c **** 	}
 487:hardware/src/lcd.c **** } 
 2967              		.loc 1 487 1
 2968 00ce CCE0     		b	.L165
ARM GAS  /tmp/ccRHtd69.s 			page 70


 2969              	.L158:
 443:hardware/src/lcd.c **** 	}else if(lcddev.id==0X5510)
 2970              		.loc 1 443 17
 2971 00d0 684B     		ldr	r3, .L166
 2972 00d2 9B88     		ldrh	r3, [r3, #4]
 443:hardware/src/lcd.c **** 	}else if(lcddev.id==0X5510)
 2973              		.loc 1 443 10
 2974 00d4 45F21052 		movw	r2, #21776
 2975 00d8 9342     		cmp	r3, r2
 2976 00da 64D1     		bne	.L160
 445:hardware/src/lcd.c **** 		LCD_WR_REG(lcddev.setxcmd+1);LCD_WR_DATA(sx&0XFF);	  
 2977              		.loc 1 445 3
 2978 00dc 654B     		ldr	r3, .L166
 2979 00de 5B89     		ldrh	r3, [r3, #10]
 2980 00e0 1846     		mov	r0, r3
 2981 00e2 FFF7FEFF 		bl	LCD_WR_REG
 445:hardware/src/lcd.c **** 		LCD_WR_REG(lcddev.setxcmd+1);LCD_WR_DATA(sx&0XFF);	  
 2982              		.loc 1 445 30
 2983 00e6 FB88     		ldrh	r3, [r7, #6]
 2984 00e8 1B0A     		lsrs	r3, r3, #8
 2985 00ea 9BB2     		uxth	r3, r3
 2986 00ec 1846     		mov	r0, r3
 2987 00ee FFF7FEFF 		bl	LCD_WR_DATA
 446:hardware/src/lcd.c **** 		LCD_WR_REG(lcddev.setxcmd+2);LCD_WR_DATA(width>>8);   
 2988              		.loc 1 446 20
 2989 00f2 604B     		ldr	r3, .L166
 2990 00f4 5B89     		ldrh	r3, [r3, #10]
 446:hardware/src/lcd.c **** 		LCD_WR_REG(lcddev.setxcmd+2);LCD_WR_DATA(width>>8);   
 2991              		.loc 1 446 3
 2992 00f6 0133     		adds	r3, r3, #1
 2993 00f8 9BB2     		uxth	r3, r3
 2994 00fa 1846     		mov	r0, r3
 2995 00fc FFF7FEFF 		bl	LCD_WR_REG
 446:hardware/src/lcd.c **** 		LCD_WR_REG(lcddev.setxcmd+2);LCD_WR_DATA(width>>8);   
 2996              		.loc 1 446 32
 2997 0100 FB88     		ldrh	r3, [r7, #6]	@ movhi
 2998 0102 DBB2     		uxtb	r3, r3
 2999 0104 9BB2     		uxth	r3, r3
 3000 0106 1846     		mov	r0, r3
 3001 0108 FFF7FEFF 		bl	LCD_WR_DATA
 447:hardware/src/lcd.c **** 		LCD_WR_REG(lcddev.setxcmd+3);LCD_WR_DATA(width&0XFF);   
 3002              		.loc 1 447 20
 3003 010c 594B     		ldr	r3, .L166
 3004 010e 5B89     		ldrh	r3, [r3, #10]
 447:hardware/src/lcd.c **** 		LCD_WR_REG(lcddev.setxcmd+3);LCD_WR_DATA(width&0XFF);   
 3005              		.loc 1 447 3
 3006 0110 0233     		adds	r3, r3, #2
 3007 0112 9BB2     		uxth	r3, r3
 3008 0114 1846     		mov	r0, r3
 3009 0116 FFF7FEFF 		bl	LCD_WR_REG
 447:hardware/src/lcd.c **** 		LCD_WR_REG(lcddev.setxcmd+3);LCD_WR_DATA(width&0XFF);   
 3010              		.loc 1 447 32
 3011 011a 7B88     		ldrh	r3, [r7, #2]
 3012 011c 1B0A     		lsrs	r3, r3, #8
 3013 011e 9BB2     		uxth	r3, r3
 3014 0120 1846     		mov	r0, r3
 3015 0122 FFF7FEFF 		bl	LCD_WR_DATA
ARM GAS  /tmp/ccRHtd69.s 			page 71


 448:hardware/src/lcd.c **** 		LCD_WR_REG(lcddev.setycmd);LCD_WR_DATA(sy>>8);   
 3016              		.loc 1 448 20
 3017 0126 534B     		ldr	r3, .L166
 3018 0128 5B89     		ldrh	r3, [r3, #10]
 448:hardware/src/lcd.c **** 		LCD_WR_REG(lcddev.setycmd);LCD_WR_DATA(sy>>8);   
 3019              		.loc 1 448 3
 3020 012a 0333     		adds	r3, r3, #3
 3021 012c 9BB2     		uxth	r3, r3
 3022 012e 1846     		mov	r0, r3
 3023 0130 FFF7FEFF 		bl	LCD_WR_REG
 448:hardware/src/lcd.c **** 		LCD_WR_REG(lcddev.setycmd);LCD_WR_DATA(sy>>8);   
 3024              		.loc 1 448 32
 3025 0134 7B88     		ldrh	r3, [r7, #2]	@ movhi
 3026 0136 DBB2     		uxtb	r3, r3
 3027 0138 9BB2     		uxth	r3, r3
 3028 013a 1846     		mov	r0, r3
 3029 013c FFF7FEFF 		bl	LCD_WR_DATA
 449:hardware/src/lcd.c **** 		LCD_WR_REG(lcddev.setycmd+1);LCD_WR_DATA(sy&0XFF);  
 3030              		.loc 1 449 3
 3031 0140 4C4B     		ldr	r3, .L166
 3032 0142 9B89     		ldrh	r3, [r3, #12]
 3033 0144 1846     		mov	r0, r3
 3034 0146 FFF7FEFF 		bl	LCD_WR_REG
 449:hardware/src/lcd.c **** 		LCD_WR_REG(lcddev.setycmd+1);LCD_WR_DATA(sy&0XFF);  
 3035              		.loc 1 449 30
 3036 014a BB88     		ldrh	r3, [r7, #4]
 3037 014c 1B0A     		lsrs	r3, r3, #8
 3038 014e 9BB2     		uxth	r3, r3
 3039 0150 1846     		mov	r0, r3
 3040 0152 FFF7FEFF 		bl	LCD_WR_DATA
 450:hardware/src/lcd.c **** 		LCD_WR_REG(lcddev.setycmd+2);LCD_WR_DATA(height>>8);   
 3041              		.loc 1 450 20
 3042 0156 474B     		ldr	r3, .L166
 3043 0158 9B89     		ldrh	r3, [r3, #12]
 450:hardware/src/lcd.c **** 		LCD_WR_REG(lcddev.setycmd+2);LCD_WR_DATA(height>>8);   
 3044              		.loc 1 450 3
 3045 015a 0133     		adds	r3, r3, #1
 3046 015c 9BB2     		uxth	r3, r3
 3047 015e 1846     		mov	r0, r3
 3048 0160 FFF7FEFF 		bl	LCD_WR_REG
 450:hardware/src/lcd.c **** 		LCD_WR_REG(lcddev.setycmd+2);LCD_WR_DATA(height>>8);   
 3049              		.loc 1 450 32
 3050 0164 BB88     		ldrh	r3, [r7, #4]	@ movhi
 3051 0166 DBB2     		uxtb	r3, r3
 3052 0168 9BB2     		uxth	r3, r3
 3053 016a 1846     		mov	r0, r3
 3054 016c FFF7FEFF 		bl	LCD_WR_DATA
 451:hardware/src/lcd.c **** 		LCD_WR_REG(lcddev.setycmd+3);LCD_WR_DATA(height&0XFF);  
 3055              		.loc 1 451 20
 3056 0170 404B     		ldr	r3, .L166
 3057 0172 9B89     		ldrh	r3, [r3, #12]
 451:hardware/src/lcd.c **** 		LCD_WR_REG(lcddev.setycmd+3);LCD_WR_DATA(height&0XFF);  
 3058              		.loc 1 451 3
 3059 0174 0233     		adds	r3, r3, #2
 3060 0176 9BB2     		uxth	r3, r3
 3061 0178 1846     		mov	r0, r3
 3062 017a FFF7FEFF 		bl	LCD_WR_REG
ARM GAS  /tmp/ccRHtd69.s 			page 72


 451:hardware/src/lcd.c **** 		LCD_WR_REG(lcddev.setycmd+3);LCD_WR_DATA(height&0XFF);  
 3063              		.loc 1 451 32
 3064 017e 3B88     		ldrh	r3, [r7]
 3065 0180 1B0A     		lsrs	r3, r3, #8
 3066 0182 9BB2     		uxth	r3, r3
 3067 0184 1846     		mov	r0, r3
 3068 0186 FFF7FEFF 		bl	LCD_WR_DATA
 452:hardware/src/lcd.c **** 	}else	//其他驱动IC
 3069              		.loc 1 452 20
 3070 018a 3A4B     		ldr	r3, .L166
 3071 018c 9B89     		ldrh	r3, [r3, #12]
 452:hardware/src/lcd.c **** 	}else	//其他驱动IC
 3072              		.loc 1 452 3
 3073 018e 0333     		adds	r3, r3, #3
 3074 0190 9BB2     		uxth	r3, r3
 3075 0192 1846     		mov	r0, r3
 3076 0194 FFF7FEFF 		bl	LCD_WR_REG
 452:hardware/src/lcd.c **** 	}else	//其他驱动IC
 3077              		.loc 1 452 32
 3078 0198 3B88     		ldrh	r3, [r7]	@ movhi
 3079 019a DBB2     		uxtb	r3, r3
 3080 019c 9BB2     		uxth	r3, r3
 3081 019e 1846     		mov	r0, r3
 3082 01a0 FFF7FEFF 		bl	LCD_WR_DATA
 3083              		.loc 1 487 1
 3084 01a4 61E0     		b	.L165
 3085              	.L160:
 455:hardware/src/lcd.c **** 		{
 3086              		.loc 1 455 12
 3087 01a6 334B     		ldr	r3, .L166
 3088 01a8 9B79     		ldrb	r3, [r3, #6]	@ zero_extendqisi2
 455:hardware/src/lcd.c **** 		{
 3089              		.loc 1 455 5
 3090 01aa 012B     		cmp	r3, #1
 3091 01ac 12D1     		bne	.L161
 458:hardware/src/lcd.c **** 			heaval=height;
 3092              		.loc 1 458 10
 3093 01ae BB88     		ldrh	r3, [r7, #4]	@ movhi
 3094 01b0 7B82     		strh	r3, [r7, #18]	@ movhi
 459:hardware/src/lcd.c **** 			vsaval=lcddev.width-width-1;
 3095              		.loc 1 459 10
 3096 01b2 3B88     		ldrh	r3, [r7]	@ movhi
 3097 01b4 3B82     		strh	r3, [r7, #16]	@ movhi
 460:hardware/src/lcd.c **** 			veaval=lcddev.width-sx-1;				
 3098              		.loc 1 460 17
 3099 01b6 2F4B     		ldr	r3, .L166
 3100 01b8 1A88     		ldrh	r2, [r3]
 460:hardware/src/lcd.c **** 			veaval=lcddev.width-sx-1;				
 3101              		.loc 1 460 23
 3102 01ba 7B88     		ldrh	r3, [r7, #2]	@ movhi
 3103 01bc D31A     		subs	r3, r2, r3
 3104 01be 9BB2     		uxth	r3, r3
 460:hardware/src/lcd.c **** 			veaval=lcddev.width-sx-1;				
 3105              		.loc 1 460 10
 3106 01c0 013B     		subs	r3, r3, #1
 3107 01c2 FB81     		strh	r3, [r7, #14]	@ movhi
 461:hardware/src/lcd.c **** 		}else
ARM GAS  /tmp/ccRHtd69.s 			page 73


 3108              		.loc 1 461 17
 3109 01c4 2B4B     		ldr	r3, .L166
 3110 01c6 1A88     		ldrh	r2, [r3]
 461:hardware/src/lcd.c **** 		}else
 3111              		.loc 1 461 23
 3112 01c8 FB88     		ldrh	r3, [r7, #6]	@ movhi
 3113 01ca D31A     		subs	r3, r2, r3
 3114 01cc 9BB2     		uxth	r3, r3
 461:hardware/src/lcd.c **** 		}else
 3115              		.loc 1 461 10
 3116 01ce 013B     		subs	r3, r3, #1
 3117 01d0 BB81     		strh	r3, [r7, #12]	@ movhi
 3118 01d2 07E0     		b	.L162
 3119              	.L161:
 464:hardware/src/lcd.c **** 			heaval=width;
 3120              		.loc 1 464 10
 3121 01d4 FB88     		ldrh	r3, [r7, #6]	@ movhi
 3122 01d6 7B82     		strh	r3, [r7, #18]	@ movhi
 465:hardware/src/lcd.c **** 			vsaval=sy;
 3123              		.loc 1 465 10
 3124 01d8 7B88     		ldrh	r3, [r7, #2]	@ movhi
 3125 01da 3B82     		strh	r3, [r7, #16]	@ movhi
 466:hardware/src/lcd.c **** 			veaval=height;
 3126              		.loc 1 466 10
 3127 01dc BB88     		ldrh	r3, [r7, #4]	@ movhi
 3128 01de FB81     		strh	r3, [r7, #14]	@ movhi
 467:hardware/src/lcd.c **** 		}
 3129              		.loc 1 467 10
 3130 01e0 3B88     		ldrh	r3, [r7]	@ movhi
 3131 01e2 BB81     		strh	r3, [r7, #12]	@ movhi
 3132              	.L162:
 469:hardware/src/lcd.c **** 		{
 3133              		.loc 1 469 13
 3134 01e4 234B     		ldr	r3, .L166
 3135 01e6 9B88     		ldrh	r3, [r3, #4]
 469:hardware/src/lcd.c **** 		{
 3136              		.loc 1 469 6
 3137 01e8 48F68912 		movw	r2, #35209
 3138 01ec 9342     		cmp	r3, r2
 3139 01ee 12D1     		bne	.L163
 471:hardware/src/lcd.c **** 			hsaval|=(heaval<<8);	//得到寄存器值.
 3140              		.loc 1 471 10
 3141 01f0 4423     		movs	r3, #68
 3142 01f2 FB75     		strb	r3, [r7, #23]
 471:hardware/src/lcd.c **** 			hsaval|=(heaval<<8);	//得到寄存器值.
 3143              		.loc 1 471 22
 3144 01f4 4423     		movs	r3, #68
 3145 01f6 BB75     		strb	r3, [r7, #22]
 472:hardware/src/lcd.c **** 			heaval=hsaval;
 3146              		.loc 1 472 19
 3147 01f8 3B8A     		ldrh	r3, [r7, #16]
 3148 01fa 1B02     		lsls	r3, r3, #8
 472:hardware/src/lcd.c **** 			heaval=hsaval;
 3149              		.loc 1 472 10
 3150 01fc 1AB2     		sxth	r2, r3
 3151 01fe B7F91230 		ldrsh	r3, [r7, #18]
 3152 0202 1343     		orrs	r3, r3, r2
ARM GAS  /tmp/ccRHtd69.s 			page 74


 3153 0204 1BB2     		sxth	r3, r3
 3154 0206 7B82     		strh	r3, [r7, #18]	@ movhi
 473:hardware/src/lcd.c **** 			vsareg=0X45;veareg=0X46;//垂直方向窗口寄存器	  
 3155              		.loc 1 473 10
 3156 0208 7B8A     		ldrh	r3, [r7, #18]	@ movhi
 3157 020a 3B82     		strh	r3, [r7, #16]	@ movhi
 474:hardware/src/lcd.c **** 		}else  //其他驱动IC
 3158              		.loc 1 474 10
 3159 020c 4523     		movs	r3, #69
 3160 020e 7B75     		strb	r3, [r7, #21]
 474:hardware/src/lcd.c **** 		}else  //其他驱动IC
 3161              		.loc 1 474 22
 3162 0210 4623     		movs	r3, #70
 3163 0212 3B75     		strb	r3, [r7, #20]
 3164 0214 07E0     		b	.L164
 3165              	.L163:
 477:hardware/src/lcd.c **** 			vsareg=0X52;veareg=0X53;//垂直方向窗口寄存器	  
 3166              		.loc 1 477 10
 3167 0216 5023     		movs	r3, #80
 3168 0218 FB75     		strb	r3, [r7, #23]
 477:hardware/src/lcd.c **** 			vsareg=0X52;veareg=0X53;//垂直方向窗口寄存器	  
 3169              		.loc 1 477 22
 3170 021a 5123     		movs	r3, #81
 3171 021c BB75     		strb	r3, [r7, #22]
 478:hardware/src/lcd.c **** 		}								  
 3172              		.loc 1 478 10
 3173 021e 5223     		movs	r3, #82
 3174 0220 7B75     		strb	r3, [r7, #21]
 478:hardware/src/lcd.c **** 		}								  
 3175              		.loc 1 478 22
 3176 0222 5323     		movs	r3, #83
 3177 0224 3B75     		strb	r3, [r7, #20]
 3178              	.L164:
 481:hardware/src/lcd.c **** 		LCD_WriteReg(heareg,heaval);
 3179              		.loc 1 481 3
 3180 0226 FB7D     		ldrb	r3, [r7, #23]	@ zero_extendqisi2
 3181 0228 9BB2     		uxth	r3, r3
 3182 022a 7A8A     		ldrh	r2, [r7, #18]
 3183 022c 1146     		mov	r1, r2
 3184 022e 1846     		mov	r0, r3
 3185 0230 FFF7FEFF 		bl	LCD_WriteReg
 482:hardware/src/lcd.c **** 		LCD_WriteReg(vsareg,vsaval);
 3186              		.loc 1 482 3
 3187 0234 BB7D     		ldrb	r3, [r7, #22]	@ zero_extendqisi2
 3188 0236 9BB2     		uxth	r3, r3
 3189 0238 3A8A     		ldrh	r2, [r7, #16]
 3190 023a 1146     		mov	r1, r2
 3191 023c 1846     		mov	r0, r3
 3192 023e FFF7FEFF 		bl	LCD_WriteReg
 483:hardware/src/lcd.c **** 		LCD_WriteReg(veareg,veaval);		
 3193              		.loc 1 483 3
 3194 0242 7B7D     		ldrb	r3, [r7, #21]	@ zero_extendqisi2
 3195 0244 9BB2     		uxth	r3, r3
 3196 0246 FA89     		ldrh	r2, [r7, #14]
 3197 0248 1146     		mov	r1, r2
 3198 024a 1846     		mov	r0, r3
 3199 024c FFF7FEFF 		bl	LCD_WriteReg
ARM GAS  /tmp/ccRHtd69.s 			page 75


 484:hardware/src/lcd.c **** 		LCD_SetCursor(sx,sy);	//设置光标位置
 3200              		.loc 1 484 3
 3201 0250 3B7D     		ldrb	r3, [r7, #20]	@ zero_extendqisi2
 3202 0252 9BB2     		uxth	r3, r3
 3203 0254 BA89     		ldrh	r2, [r7, #12]
 3204 0256 1146     		mov	r1, r2
 3205 0258 1846     		mov	r0, r3
 3206 025a FFF7FEFF 		bl	LCD_WriteReg
 485:hardware/src/lcd.c **** 	}
 3207              		.loc 1 485 3
 3208 025e BA88     		ldrh	r2, [r7, #4]
 3209 0260 FB88     		ldrh	r3, [r7, #6]
 3210 0262 1146     		mov	r1, r2
 3211 0264 1846     		mov	r0, r3
 3212 0266 FFF7FEFF 		bl	LCD_SetCursor
 3213              	.L165:
 3214              		.loc 1 487 1
 3215 026a 00BF     		nop
 3216 026c 1C37     		adds	r7, r7, #28
 3217              	.LCFI86:
 3218              		.cfi_def_cfa_offset 12
 3219 026e BD46     		mov	sp, r7
 3220              	.LCFI87:
 3221              		.cfi_def_cfa_register 13
 3222              		@ sp needed
 3223 0270 90BD     		pop	{r4, r7, pc}
 3224              	.L167:
 3225 0272 00BF     		.align	2
 3226              	.L166:
 3227 0274 00000000 		.word	lcddev
 3228              		.cfi_endproc
 3229              	.LFE83:
 3231              		.section	.rodata
 3232              		.align	2
 3233              	.LC0:
 3234 0000 204C4344 		.ascii	" LCD ID:%x\015\012\000"
 3234      2049443A 
 3234      25780D0A 
 3234      00
 3235              		.section	.text.LCD_Init,"ax",%progbits
 3236              		.align	1
 3237              		.global	LCD_Init
 3238              		.syntax unified
 3239              		.thumb
 3240              		.thumb_func
 3241              		.fpu softvfp
 3243              	LCD_Init:
 3244              	.LFB84:
 488:hardware/src/lcd.c **** //初始化lcd
 489:hardware/src/lcd.c **** //该初始化函数可以初始化各种ILI93XX液晶,但是其他函数是基于ILI9320的!!!
 490:hardware/src/lcd.c **** //在其他型号的驱动芯片上没有测试! 
 491:hardware/src/lcd.c **** void LCD_Init(void)
 492:hardware/src/lcd.c **** { 										  
 3245              		.loc 1 492 1
 3246              		.cfi_startproc
 3247              		@ args = 0, pretend = 0, frame = 120
 3248              		@ frame_needed = 1, uses_anonymous_args = 0
ARM GAS  /tmp/ccRHtd69.s 			page 76


 3249 0000 80B5     		push	{r7, lr}
 3250              	.LCFI88:
 3251              		.cfi_def_cfa_offset 8
 3252              		.cfi_offset 7, -8
 3253              		.cfi_offset 14, -4
 3254 0002 9EB0     		sub	sp, sp, #120
 3255              	.LCFI89:
 3256              		.cfi_def_cfa_offset 128
 3257 0004 00AF     		add	r7, sp, #0
 3258              	.LCFI90:
 3259              		.cfi_def_cfa_register 7
 493:hardware/src/lcd.c ****  	GPIO_InitTypeDef GPIO_InitStructure;
 494:hardware/src/lcd.c **** 	FSMC_NORSRAMInitTypeDef  FSMC_NORSRAMInitStructure;
 495:hardware/src/lcd.c ****     FSMC_NORSRAMTimingInitTypeDef  readWriteTiming; 
 496:hardware/src/lcd.c **** 	FSMC_NORSRAMTimingInitTypeDef  writeTiming;
 497:hardware/src/lcd.c **** 
 498:hardware/src/lcd.c ****     RCC_AHBPeriphClockCmd(RCC_AHBPeriph_FSMC,ENABLE);	//使能FSMC时钟
 3260              		.loc 1 498 5
 3261 0006 0121     		movs	r1, #1
 3262 0008 4FF48070 		mov	r0, #256
 3263 000c FFF7FEFF 		bl	RCC_AHBPeriphClockCmd
 499:hardware/src/lcd.c **** 	RCC_APB2PeriphClockCmd(RCC_APB2Periph_GPIOB|RCC_APB2Periph_GPIOD|RCC_APB2Periph_GPIOE|RCC_APB2Peri
 3264              		.loc 1 499 2
 3265 0010 0121     		movs	r1, #1
 3266 0012 40F26910 		movw	r0, #361
 3267 0016 FFF7FEFF 		bl	RCC_APB2PeriphClockCmd
 500:hardware/src/lcd.c **** 
 501:hardware/src/lcd.c ****  	GPIO_InitStructure.GPIO_Pin = GPIO_Pin_0;				 //PB0 推挽输出 背光
 3268              		.loc 1 501 31
 3269 001a 0123     		movs	r3, #1
 3270 001c A7F87430 		strh	r3, [r7, #116]	@ movhi
 502:hardware/src/lcd.c ****  	GPIO_InitStructure.GPIO_Mode = GPIO_Mode_Out_PP; 		 //推挽输出
 3271              		.loc 1 502 32
 3272 0020 1023     		movs	r3, #16
 3273 0022 87F87730 		strb	r3, [r7, #119]
 503:hardware/src/lcd.c ****  	GPIO_InitStructure.GPIO_Speed = GPIO_Speed_50MHz;
 3274              		.loc 1 503 33
 3275 0026 0323     		movs	r3, #3
 3276 0028 87F87630 		strb	r3, [r7, #118]
 504:hardware/src/lcd.c ****  	GPIO_Init(GPIOB, &GPIO_InitStructure);
 3277              		.loc 1 504 3
 3278 002c 07F17403 		add	r3, r7, #116
 3279 0030 1946     		mov	r1, r3
 3280 0032 A048     		ldr	r0, .L186
 3281 0034 FFF7FEFF 		bl	GPIO_Init
 505:hardware/src/lcd.c **** 
 506:hardware/src/lcd.c ****  	//PORTD复用推挽输出  
 507:hardware/src/lcd.c **** 	GPIO_InitStructure.GPIO_Pin = GPIO_Pin_0|GPIO_Pin_1|GPIO_Pin_4|GPIO_Pin_5|GPIO_Pin_8|GPIO_Pin_9|GP
 3282              		.loc 1 507 30
 3283 0038 4CF23373 		movw	r3, #50995
 3284 003c A7F87430 		strh	r3, [r7, #116]	@ movhi
 508:hardware/src/lcd.c ****  	GPIO_InitStructure.GPIO_Mode = GPIO_Mode_AF_PP; 		 //复用推挽输出   
 3285              		.loc 1 508 32
 3286 0040 1823     		movs	r3, #24
 3287 0042 87F87730 		strb	r3, [r7, #119]
 509:hardware/src/lcd.c ****  	GPIO_InitStructure.GPIO_Speed = GPIO_Speed_50MHz;
 3288              		.loc 1 509 33
ARM GAS  /tmp/ccRHtd69.s 			page 77


 3289 0046 0323     		movs	r3, #3
 3290 0048 87F87630 		strb	r3, [r7, #118]
 510:hardware/src/lcd.c ****  	GPIO_Init(GPIOD, &GPIO_InitStructure); 
 3291              		.loc 1 510 3
 3292 004c 07F17403 		add	r3, r7, #116
 3293 0050 1946     		mov	r1, r3
 3294 0052 9948     		ldr	r0, .L186+4
 3295 0054 FFF7FEFF 		bl	GPIO_Init
 511:hardware/src/lcd.c **** 	  
 512:hardware/src/lcd.c **** 	//PORTE复用推挽输出  
 513:hardware/src/lcd.c **** 	GPIO_InitStructure.GPIO_Pin = GPIO_Pin_7|GPIO_Pin_8|GPIO_Pin_9|GPIO_Pin_10|GPIO_Pin_11|GPIO_Pin_12
 3296              		.loc 1 513 30
 3297 0058 4FF68073 		movw	r3, #65408
 3298 005c A7F87430 		strh	r3, [r7, #116]	@ movhi
 514:hardware/src/lcd.c ****  	GPIO_InitStructure.GPIO_Mode = GPIO_Mode_AF_PP; 		 //复用推挽输出   
 3299              		.loc 1 514 32
 3300 0060 1823     		movs	r3, #24
 3301 0062 87F87730 		strb	r3, [r7, #119]
 515:hardware/src/lcd.c ****  	GPIO_InitStructure.GPIO_Speed = GPIO_Speed_50MHz;
 3302              		.loc 1 515 33
 3303 0066 0323     		movs	r3, #3
 3304 0068 87F87630 		strb	r3, [r7, #118]
 516:hardware/src/lcd.c ****  	GPIO_Init(GPIOE, &GPIO_InitStructure); 
 3305              		.loc 1 516 3
 3306 006c 07F17403 		add	r3, r7, #116
 3307 0070 1946     		mov	r1, r3
 3308 0072 9248     		ldr	r0, .L186+8
 3309 0074 FFF7FEFF 		bl	GPIO_Init
 517:hardware/src/lcd.c **** 	  
 518:hardware/src/lcd.c ****    	//	//PORTG12复用推挽输出 A0	
 519:hardware/src/lcd.c **** 	GPIO_InitStructure.GPIO_Pin = GPIO_Pin_0|GPIO_Pin_12;	 //	//PORTD复用推挽输出  
 3310              		.loc 1 519 30
 3311 0078 41F20103 		movw	r3, #4097
 3312 007c A7F87430 		strh	r3, [r7, #116]	@ movhi
 520:hardware/src/lcd.c ****  	GPIO_InitStructure.GPIO_Mode = GPIO_Mode_AF_PP; 		 //复用推挽输出   
 3313              		.loc 1 520 32
 3314 0080 1823     		movs	r3, #24
 3315 0082 87F87730 		strb	r3, [r7, #119]
 521:hardware/src/lcd.c ****  	GPIO_InitStructure.GPIO_Speed = GPIO_Speed_50MHz;
 3316              		.loc 1 521 33
 3317 0086 0323     		movs	r3, #3
 3318 0088 87F87630 		strb	r3, [r7, #118]
 522:hardware/src/lcd.c ****  	GPIO_Init(GPIOG, &GPIO_InitStructure); 
 3319              		.loc 1 522 3
 3320 008c 07F17403 		add	r3, r7, #116
 3321 0090 1946     		mov	r1, r3
 3322 0092 8B48     		ldr	r0, .L186+12
 3323 0094 FFF7FEFF 		bl	GPIO_Init
 523:hardware/src/lcd.c ****  
 524:hardware/src/lcd.c **** 	readWriteTiming.FSMC_AddressSetupTime = 0x01;	 //地址建立时间（ADDSET）为2个HCLK 1/36M=27ns
 3324              		.loc 1 524 40
 3325 0098 0123     		movs	r3, #1
 3326 009a FB61     		str	r3, [r7, #28]
 525:hardware/src/lcd.c ****     readWriteTiming.FSMC_AddressHoldTime = 0x00;	 //地址保持时间（ADDHLD）模式A未用到	
 3327              		.loc 1 525 42
 3328 009c 0023     		movs	r3, #0
 3329 009e 3B62     		str	r3, [r7, #32]
ARM GAS  /tmp/ccRHtd69.s 			page 78


 526:hardware/src/lcd.c ****     readWriteTiming.FSMC_DataSetupTime = 0x0f;		 // 数据保存时间为16个HCLK,因为液晶驱动IC的读数据的
 3330              		.loc 1 526 40
 3331 00a0 0F23     		movs	r3, #15
 3332 00a2 7B62     		str	r3, [r7, #36]
 527:hardware/src/lcd.c ****     readWriteTiming.FSMC_BusTurnAroundDuration = 0x00;
 3333              		.loc 1 527 48
 3334 00a4 0023     		movs	r3, #0
 3335 00a6 BB62     		str	r3, [r7, #40]
 528:hardware/src/lcd.c ****     readWriteTiming.FSMC_CLKDivision = 0x00;
 3336              		.loc 1 528 38
 3337 00a8 0023     		movs	r3, #0
 3338 00aa FB62     		str	r3, [r7, #44]
 529:hardware/src/lcd.c ****     readWriteTiming.FSMC_DataLatency = 0x00;
 3339              		.loc 1 529 38
 3340 00ac 0023     		movs	r3, #0
 3341 00ae 3B63     		str	r3, [r7, #48]
 530:hardware/src/lcd.c ****     readWriteTiming.FSMC_AccessMode = FSMC_AccessMode_A;	 //模式A 
 3342              		.loc 1 530 37
 3343 00b0 0023     		movs	r3, #0
 3344 00b2 7B63     		str	r3, [r7, #52]
 531:hardware/src/lcd.c ****     
 532:hardware/src/lcd.c **** 
 533:hardware/src/lcd.c **** 	writeTiming.FSMC_AddressSetupTime = 0x00;	 //地址建立时间（ADDSET）为1个HCLK  
 3345              		.loc 1 533 36
 3346 00b4 0023     		movs	r3, #0
 3347 00b6 3B60     		str	r3, [r7]
 534:hardware/src/lcd.c ****     writeTiming.FSMC_AddressHoldTime = 0x00;	 //地址保持时间（A		
 3348              		.loc 1 534 38
 3349 00b8 0023     		movs	r3, #0
 3350 00ba 7B60     		str	r3, [r7, #4]
 535:hardware/src/lcd.c ****     writeTiming.FSMC_DataSetupTime = 0x03;		 ////数据保存时间为4个HCLK	
 3351              		.loc 1 535 36
 3352 00bc 0323     		movs	r3, #3
 3353 00be BB60     		str	r3, [r7, #8]
 536:hardware/src/lcd.c ****     writeTiming.FSMC_BusTurnAroundDuration = 0x00;
 3354              		.loc 1 536 44
 3355 00c0 0023     		movs	r3, #0
 3356 00c2 FB60     		str	r3, [r7, #12]
 537:hardware/src/lcd.c ****     writeTiming.FSMC_CLKDivision = 0x00;
 3357              		.loc 1 537 34
 3358 00c4 0023     		movs	r3, #0
 3359 00c6 3B61     		str	r3, [r7, #16]
 538:hardware/src/lcd.c ****     writeTiming.FSMC_DataLatency = 0x00;
 3360              		.loc 1 538 34
 3361 00c8 0023     		movs	r3, #0
 3362 00ca 7B61     		str	r3, [r7, #20]
 539:hardware/src/lcd.c ****     writeTiming.FSMC_AccessMode = FSMC_AccessMode_A;	 //模式A 
 3363              		.loc 1 539 33
 3364 00cc 0023     		movs	r3, #0
 3365 00ce BB61     		str	r3, [r7, #24]
 540:hardware/src/lcd.c **** 
 541:hardware/src/lcd.c ****  
 542:hardware/src/lcd.c ****     FSMC_NORSRAMInitStructure.FSMC_Bank = FSMC_Bank1_NORSRAM4;//  这里我们使用NE4 ，也就对应BTCR[6]
 3366              		.loc 1 542 41
 3367 00d0 0623     		movs	r3, #6
 3368 00d2 BB63     		str	r3, [r7, #56]
 543:hardware/src/lcd.c ****     FSMC_NORSRAMInitStructure.FSMC_DataAddressMux = FSMC_DataAddressMux_Disable; // 不复用数据地址
ARM GAS  /tmp/ccRHtd69.s 			page 79


 3369              		.loc 1 543 51
 3370 00d4 0023     		movs	r3, #0
 3371 00d6 FB63     		str	r3, [r7, #60]
 544:hardware/src/lcd.c ****     FSMC_NORSRAMInitStructure.FSMC_MemoryType =FSMC_MemoryType_SRAM;// FSMC_MemoryType_SRAM;  //SRA
 3372              		.loc 1 544 47
 3373 00d8 0023     		movs	r3, #0
 3374 00da 3B64     		str	r3, [r7, #64]
 545:hardware/src/lcd.c ****     FSMC_NORSRAMInitStructure.FSMC_MemoryDataWidth = FSMC_MemoryDataWidth_16b;//存储器数据宽度为16b
 3375              		.loc 1 545 52
 3376 00dc 1023     		movs	r3, #16
 3377 00de 7B64     		str	r3, [r7, #68]
 546:hardware/src/lcd.c ****     FSMC_NORSRAMInitStructure.FSMC_BurstAccessMode =FSMC_BurstAccessMode_Disable;// FSMC_BurstAcces
 3378              		.loc 1 546 52
 3379 00e0 0023     		movs	r3, #0
 3380 00e2 BB64     		str	r3, [r7, #72]
 547:hardware/src/lcd.c ****     FSMC_NORSRAMInitStructure.FSMC_WaitSignalPolarity = FSMC_WaitSignalPolarity_Low;
 3381              		.loc 1 547 55
 3382 00e4 0023     		movs	r3, #0
 3383 00e6 3B65     		str	r3, [r7, #80]
 548:hardware/src/lcd.c **** 	FSMC_NORSRAMInitStructure.FSMC_AsynchronousWait=FSMC_AsynchronousWait_Disable; 
 3384              		.loc 1 548 49
 3385 00e8 0023     		movs	r3, #0
 3386 00ea FB64     		str	r3, [r7, #76]
 549:hardware/src/lcd.c ****     FSMC_NORSRAMInitStructure.FSMC_WrapMode = FSMC_WrapMode_Disable;   
 3387              		.loc 1 549 45
 3388 00ec 0023     		movs	r3, #0
 3389 00ee 7B65     		str	r3, [r7, #84]
 550:hardware/src/lcd.c ****     FSMC_NORSRAMInitStructure.FSMC_WaitSignalActive = FSMC_WaitSignalActive_BeforeWaitState;  
 3390              		.loc 1 550 53
 3391 00f0 0023     		movs	r3, #0
 3392 00f2 BB65     		str	r3, [r7, #88]
 551:hardware/src/lcd.c ****     FSMC_NORSRAMInitStructure.FSMC_WriteOperation = FSMC_WriteOperation_Enable;	//  存储器写使能
 3393              		.loc 1 551 51
 3394 00f4 4FF48053 		mov	r3, #4096
 3395 00f8 FB65     		str	r3, [r7, #92]
 552:hardware/src/lcd.c ****     FSMC_NORSRAMInitStructure.FSMC_WaitSignal = FSMC_WaitSignal_Disable;   
 3396              		.loc 1 552 47
 3397 00fa 0023     		movs	r3, #0
 3398 00fc 3B66     		str	r3, [r7, #96]
 553:hardware/src/lcd.c ****     FSMC_NORSRAMInitStructure.FSMC_ExtendedMode = FSMC_ExtendedMode_Enable; // 读写使用不同的时序
 3399              		.loc 1 553 49
 3400 00fe 4FF48043 		mov	r3, #16384
 3401 0102 7B66     		str	r3, [r7, #100]
 554:hardware/src/lcd.c ****     FSMC_NORSRAMInitStructure.FSMC_WriteBurst = FSMC_WriteBurst_Disable; 
 3402              		.loc 1 554 47
 3403 0104 0023     		movs	r3, #0
 3404 0106 BB66     		str	r3, [r7, #104]
 555:hardware/src/lcd.c ****     FSMC_NORSRAMInitStructure.FSMC_ReadWriteTimingStruct = &readWriteTiming; //读写时序
 3405              		.loc 1 555 58
 3406 0108 07F11C03 		add	r3, r7, #28
 3407 010c FB66     		str	r3, [r7, #108]
 556:hardware/src/lcd.c ****     FSMC_NORSRAMInitStructure.FSMC_WriteTimingStruct = &writeTiming;  //写时序
 3408              		.loc 1 556 54
 3409 010e 3B46     		mov	r3, r7
 3410 0110 3B67     		str	r3, [r7, #112]
 557:hardware/src/lcd.c **** 
 558:hardware/src/lcd.c ****     FSMC_NORSRAMInit(&FSMC_NORSRAMInitStructure);  //初始化FSMC配置
ARM GAS  /tmp/ccRHtd69.s 			page 80


 3411              		.loc 1 558 5
 3412 0112 07F13803 		add	r3, r7, #56
 3413 0116 1846     		mov	r0, r3
 3414 0118 FFF7FEFF 		bl	FSMC_NORSRAMInit
 559:hardware/src/lcd.c **** 
 560:hardware/src/lcd.c ****    	FSMC_NORSRAMCmd(FSMC_Bank1_NORSRAM4, ENABLE);  // 使能BANK1 
 3415              		.loc 1 560 5
 3416 011c 0121     		movs	r1, #1
 3417 011e 0620     		movs	r0, #6
 3418 0120 FFF7FEFF 		bl	FSMC_NORSRAMCmd
 561:hardware/src/lcd.c **** 				 
 562:hardware/src/lcd.c ****  	delay_ms(50); // delay 50 ms 
 3419              		.loc 1 562 3
 3420 0124 3220     		movs	r0, #50
 3421 0126 FFF7FEFF 		bl	delay_ms
 563:hardware/src/lcd.c ****  	LCD_WriteReg(0x0000,0x0001);
 3422              		.loc 1 563 3
 3423 012a 0121     		movs	r1, #1
 3424 012c 0020     		movs	r0, #0
 3425 012e FFF7FEFF 		bl	LCD_WriteReg
 564:hardware/src/lcd.c **** 	delay_ms(50); // delay 50 ms 
 3426              		.loc 1 564 2
 3427 0132 3220     		movs	r0, #50
 3428 0134 FFF7FEFF 		bl	delay_ms
 565:hardware/src/lcd.c ****   	lcddev.id = LCD_ReadReg(0x0000);   
 3429              		.loc 1 565 16
 3430 0138 0020     		movs	r0, #0
 3431 013a FFF7FEFF 		bl	LCD_ReadReg
 3432 013e 0346     		mov	r3, r0
 3433 0140 1A46     		mov	r2, r3
 3434              		.loc 1 565 14
 3435 0142 604B     		ldr	r3, .L186+16
 3436 0144 9A80     		strh	r2, [r3, #4]	@ movhi
 566:hardware/src/lcd.c ****   	if(lcddev.id<0XFF||lcddev.id==0XFFFF||lcddev.id==0X9300)//读到ID不正确,新增lcddev.id==0X9300判断
 3437              		.loc 1 566 13
 3438 0146 5F4B     		ldr	r3, .L186+16
 3439 0148 9B88     		ldrh	r3, [r3, #4]
 3440              		.loc 1 566 6
 3441 014a FE2B     		cmp	r3, #254
 3442 014c 0BD9     		bls	.L169
 3443              		.loc 1 566 29 discriminator 1
 3444 014e 5D4B     		ldr	r3, .L186+16
 3445 0150 9B88     		ldrh	r3, [r3, #4]
 3446              		.loc 1 566 21 discriminator 1
 3447 0152 4FF6FF72 		movw	r2, #65535
 3448 0156 9342     		cmp	r3, r2
 3449 0158 05D0     		beq	.L169
 3450              		.loc 1 566 48 discriminator 2
 3451 015a 5A4B     		ldr	r3, .L186+16
 3452 015c 9B88     		ldrh	r3, [r3, #4]
 3453              		.loc 1 566 40 discriminator 2
 3454 015e B3F5134F 		cmp	r3, #37632
 3455 0162 40F09880 		bne	.L170
 3456              	.L169:
 567:hardware/src/lcd.c **** 	{	
 568:hardware/src/lcd.c ****  		//尝试9341 ID的读取		
 569:hardware/src/lcd.c **** 		LCD_WR_REG(0XD3);				   
ARM GAS  /tmp/ccRHtd69.s 			page 81


 3457              		.loc 1 569 3
 3458 0166 D320     		movs	r0, #211
 3459 0168 FFF7FEFF 		bl	LCD_WR_REG
 570:hardware/src/lcd.c **** 		LCD_RD_DATA(); 				//dummy read 	
 3460              		.loc 1 570 3
 3461 016c FFF7FEFF 		bl	LCD_RD_DATA
 571:hardware/src/lcd.c ****  		LCD_RD_DATA();   	    	//读到0X00
 3462              		.loc 1 571 4
 3463 0170 FFF7FEFF 		bl	LCD_RD_DATA
 572:hardware/src/lcd.c ****   		lcddev.id=LCD_RD_DATA();   	//读取93								   
 3464              		.loc 1 572 15
 3465 0174 FFF7FEFF 		bl	LCD_RD_DATA
 3466 0178 0346     		mov	r3, r0
 3467 017a 1A46     		mov	r2, r3
 3468              		.loc 1 572 14
 3469 017c 514B     		ldr	r3, .L186+16
 3470 017e 9A80     		strh	r2, [r3, #4]	@ movhi
 573:hardware/src/lcd.c ****  		lcddev.id<<=8;
 3471              		.loc 1 573 13
 3472 0180 504B     		ldr	r3, .L186+16
 3473 0182 9B88     		ldrh	r3, [r3, #4]
 3474 0184 1B02     		lsls	r3, r3, #8
 3475 0186 9AB2     		uxth	r2, r3
 3476 0188 4E4B     		ldr	r3, .L186+16
 3477 018a 9A80     		strh	r2, [r3, #4]	@ movhi
 574:hardware/src/lcd.c **** 		lcddev.id|=LCD_RD_DATA();  	//读取41 	   			   
 3478              		.loc 1 574 14
 3479 018c FFF7FEFF 		bl	LCD_RD_DATA
 3480 0190 0346     		mov	r3, r0
 3481 0192 1A46     		mov	r2, r3
 3482              		.loc 1 574 12
 3483 0194 4B4B     		ldr	r3, .L186+16
 3484 0196 9B88     		ldrh	r3, [r3, #4]
 3485 0198 1343     		orrs	r3, r3, r2
 3486 019a 9AB2     		uxth	r2, r3
 3487 019c 494B     		ldr	r3, .L186+16
 3488 019e 9A80     		strh	r2, [r3, #4]	@ movhi
 575:hardware/src/lcd.c ****  		if(lcddev.id!=0X9341)		//非9341,尝试是不是6804
 3489              		.loc 1 575 13
 3490 01a0 484B     		ldr	r3, .L186+16
 3491 01a2 9B88     		ldrh	r3, [r3, #4]
 3492              		.loc 1 575 6
 3493 01a4 49F24132 		movw	r2, #37697
 3494 01a8 9342     		cmp	r3, r2
 3495 01aa 74D0     		beq	.L170
 576:hardware/src/lcd.c **** 		{	
 577:hardware/src/lcd.c ****  			LCD_WR_REG(0XBF);				   
 3496              		.loc 1 577 5
 3497 01ac BF20     		movs	r0, #191
 3498 01ae FFF7FEFF 		bl	LCD_WR_REG
 578:hardware/src/lcd.c **** 			LCD_RD_DATA(); 			//dummy read 	 
 3499              		.loc 1 578 4
 3500 01b2 FFF7FEFF 		bl	LCD_RD_DATA
 579:hardware/src/lcd.c **** 	 		LCD_RD_DATA();   	    //读回0X01			   
 3501              		.loc 1 579 5
 3502 01b6 FFF7FEFF 		bl	LCD_RD_DATA
 580:hardware/src/lcd.c **** 	 		LCD_RD_DATA(); 			//读回0XD0 			  	
ARM GAS  /tmp/ccRHtd69.s 			page 82


 3503              		.loc 1 580 5
 3504 01ba FFF7FEFF 		bl	LCD_RD_DATA
 581:hardware/src/lcd.c **** 	  		lcddev.id=LCD_RD_DATA();//这里读回0X68 
 3505              		.loc 1 581 16
 3506 01be FFF7FEFF 		bl	LCD_RD_DATA
 3507 01c2 0346     		mov	r3, r0
 3508 01c4 1A46     		mov	r2, r3
 3509              		.loc 1 581 15
 3510 01c6 3F4B     		ldr	r3, .L186+16
 3511 01c8 9A80     		strh	r2, [r3, #4]	@ movhi
 582:hardware/src/lcd.c **** 			lcddev.id<<=8;
 3512              		.loc 1 582 13
 3513 01ca 3E4B     		ldr	r3, .L186+16
 3514 01cc 9B88     		ldrh	r3, [r3, #4]
 3515 01ce 1B02     		lsls	r3, r3, #8
 3516 01d0 9AB2     		uxth	r2, r3
 3517 01d2 3C4B     		ldr	r3, .L186+16
 3518 01d4 9A80     		strh	r2, [r3, #4]	@ movhi
 583:hardware/src/lcd.c **** 	  		lcddev.id|=LCD_RD_DATA();//这里读回0X04	  
 3519              		.loc 1 583 17
 3520 01d6 FFF7FEFF 		bl	LCD_RD_DATA
 3521 01da 0346     		mov	r3, r0
 3522 01dc 1A46     		mov	r2, r3
 3523              		.loc 1 583 15
 3524 01de 394B     		ldr	r3, .L186+16
 3525 01e0 9B88     		ldrh	r3, [r3, #4]
 3526 01e2 1343     		orrs	r3, r3, r2
 3527 01e4 9AB2     		uxth	r2, r3
 3528 01e6 374B     		ldr	r3, .L186+16
 3529 01e8 9A80     		strh	r2, [r3, #4]	@ movhi
 584:hardware/src/lcd.c **** 			if(lcddev.id!=0X6804)	//也不是6804,尝试看看是不是NT35310
 3530              		.loc 1 584 13
 3531 01ea 364B     		ldr	r3, .L186+16
 3532 01ec 9B88     		ldrh	r3, [r3, #4]
 3533              		.loc 1 584 6
 3534 01ee 46F60402 		movw	r2, #26628
 3535 01f2 9342     		cmp	r3, r2
 3536 01f4 4FD0     		beq	.L170
 585:hardware/src/lcd.c **** 			{ 
 586:hardware/src/lcd.c **** 				LCD_WR_REG(0XD4);				   
 3537              		.loc 1 586 5
 3538 01f6 D420     		movs	r0, #212
 3539 01f8 FFF7FEFF 		bl	LCD_WR_REG
 587:hardware/src/lcd.c **** 				LCD_RD_DATA(); 				//dummy read  
 3540              		.loc 1 587 5
 3541 01fc FFF7FEFF 		bl	LCD_RD_DATA
 588:hardware/src/lcd.c **** 				LCD_RD_DATA();   			//读回0X01	 
 3542              		.loc 1 588 5
 3543 0200 FFF7FEFF 		bl	LCD_RD_DATA
 589:hardware/src/lcd.c **** 				lcddev.id=LCD_RD_DATA();	//读回0X53	
 3544              		.loc 1 589 15
 3545 0204 FFF7FEFF 		bl	LCD_RD_DATA
 3546 0208 0346     		mov	r3, r0
 3547 020a 1A46     		mov	r2, r3
 3548              		.loc 1 589 14
 3549 020c 2D4B     		ldr	r3, .L186+16
 3550 020e 9A80     		strh	r2, [r3, #4]	@ movhi
ARM GAS  /tmp/ccRHtd69.s 			page 83


 590:hardware/src/lcd.c **** 				lcddev.id<<=8;	 
 3551              		.loc 1 590 14
 3552 0210 2C4B     		ldr	r3, .L186+16
 3553 0212 9B88     		ldrh	r3, [r3, #4]
 3554 0214 1B02     		lsls	r3, r3, #8
 3555 0216 9AB2     		uxth	r2, r3
 3556 0218 2A4B     		ldr	r3, .L186+16
 3557 021a 9A80     		strh	r2, [r3, #4]	@ movhi
 591:hardware/src/lcd.c **** 				lcddev.id|=LCD_RD_DATA();	//这里读回0X10	 
 3558              		.loc 1 591 16
 3559 021c FFF7FEFF 		bl	LCD_RD_DATA
 3560 0220 0346     		mov	r3, r0
 3561 0222 1A46     		mov	r2, r3
 3562              		.loc 1 591 14
 3563 0224 274B     		ldr	r3, .L186+16
 3564 0226 9B88     		ldrh	r3, [r3, #4]
 3565 0228 1343     		orrs	r3, r3, r2
 3566 022a 9AB2     		uxth	r2, r3
 3567 022c 254B     		ldr	r3, .L186+16
 3568 022e 9A80     		strh	r2, [r3, #4]	@ movhi
 592:hardware/src/lcd.c **** 				if(lcddev.id!=0X5310)		//也不是NT35310,尝试看看是不是NT35510
 3569              		.loc 1 592 14
 3570 0230 244B     		ldr	r3, .L186+16
 3571 0232 9B88     		ldrh	r3, [r3, #4]
 3572              		.loc 1 592 7
 3573 0234 45F21032 		movw	r2, #21264
 3574 0238 9342     		cmp	r3, r2
 3575 023a 2CD0     		beq	.L170
 593:hardware/src/lcd.c **** 				{
 594:hardware/src/lcd.c **** 					LCD_WR_REG(0XDA00);	
 3576              		.loc 1 594 6
 3577 023c 4FF45A40 		mov	r0, #55808
 3578 0240 FFF7FEFF 		bl	LCD_WR_REG
 595:hardware/src/lcd.c **** 					LCD_RD_DATA();   		//读回0X00	 
 3579              		.loc 1 595 6
 3580 0244 FFF7FEFF 		bl	LCD_RD_DATA
 596:hardware/src/lcd.c **** 					LCD_WR_REG(0XDB00);	
 3581              		.loc 1 596 6
 3582 0248 4FF45B40 		mov	r0, #56064
 3583 024c FFF7FEFF 		bl	LCD_WR_REG
 597:hardware/src/lcd.c **** 					lcddev.id=LCD_RD_DATA();//读回0X80
 3584              		.loc 1 597 16
 3585 0250 FFF7FEFF 		bl	LCD_RD_DATA
 3586 0254 0346     		mov	r3, r0
 3587 0256 1A46     		mov	r2, r3
 3588              		.loc 1 597 15
 3589 0258 1A4B     		ldr	r3, .L186+16
 3590 025a 9A80     		strh	r2, [r3, #4]	@ movhi
 598:hardware/src/lcd.c **** 					lcddev.id<<=8;	
 3591              		.loc 1 598 15
 3592 025c 194B     		ldr	r3, .L186+16
 3593 025e 9B88     		ldrh	r3, [r3, #4]
 3594 0260 1B02     		lsls	r3, r3, #8
 3595 0262 9AB2     		uxth	r2, r3
 3596 0264 174B     		ldr	r3, .L186+16
 3597 0266 9A80     		strh	r2, [r3, #4]	@ movhi
 599:hardware/src/lcd.c **** 					LCD_WR_REG(0XDC00);	
ARM GAS  /tmp/ccRHtd69.s 			page 84


 3598              		.loc 1 599 6
 3599 0268 4FF45C40 		mov	r0, #56320
 3600 026c FFF7FEFF 		bl	LCD_WR_REG
 600:hardware/src/lcd.c **** 					lcddev.id|=LCD_RD_DATA();//读回0X00		
 3601              		.loc 1 600 17
 3602 0270 FFF7FEFF 		bl	LCD_RD_DATA
 3603 0274 0346     		mov	r3, r0
 3604 0276 1A46     		mov	r2, r3
 3605              		.loc 1 600 15
 3606 0278 124B     		ldr	r3, .L186+16
 3607 027a 9B88     		ldrh	r3, [r3, #4]
 3608 027c 1343     		orrs	r3, r3, r2
 3609 027e 9AB2     		uxth	r2, r3
 3610 0280 104B     		ldr	r3, .L186+16
 3611 0282 9A80     		strh	r2, [r3, #4]	@ movhi
 601:hardware/src/lcd.c **** 					if(lcddev.id==0x8000)lcddev.id=0x5510;//NT35510读回的ID是8000H,为方便区分,我们强制设置为5510
 3612              		.loc 1 601 15
 3613 0284 0F4B     		ldr	r3, .L186+16
 3614 0286 9B88     		ldrh	r3, [r3, #4]
 3615              		.loc 1 601 8
 3616 0288 B3F5004F 		cmp	r3, #32768
 3617 028c 03D1     		bne	.L170
 3618              		.loc 1 601 36 discriminator 1
 3619 028e 0D4B     		ldr	r3, .L186+16
 3620 0290 45F21052 		movw	r2, #21776
 3621 0294 9A80     		strh	r2, [r3, #4]	@ movhi
 3622              	.L170:
 602:hardware/src/lcd.c **** 				}
 603:hardware/src/lcd.c **** 			}
 604:hardware/src/lcd.c ****  		}  	
 605:hardware/src/lcd.c **** 	} 
 606:hardware/src/lcd.c ****  	printf(" LCD ID:%x\r\n",lcddev.id); //打印LCD ID  
 3623              		.loc 1 606 33
 3624 0296 0B4B     		ldr	r3, .L186+16
 3625 0298 9B88     		ldrh	r3, [r3, #4]
 3626              		.loc 1 606 3
 3627 029a 1946     		mov	r1, r3
 3628 029c 0A48     		ldr	r0, .L186+20
 3629 029e FFF7FEFF 		bl	printf
 607:hardware/src/lcd.c **** 	if(lcddev.id==0X9341)	//9341初始化
 3630              		.loc 1 607 11
 3631 02a2 084B     		ldr	r3, .L186+16
 3632 02a4 9B88     		ldrh	r3, [r3, #4]
 3633              		.loc 1 607 4
 3634 02a6 49F24132 		movw	r2, #37697
 3635 02aa 9342     		cmp	r3, r2
 3636 02ac 40F02481 		bne	.L171
 3637 02b0 0CE0     		b	.L187
 3638              	.L188:
 3639 02b2 00BF     		.align	2
 3640              	.L186:
 3641 02b4 000C0140 		.word	1073810432
 3642 02b8 00140140 		.word	1073812480
 3643 02bc 00180140 		.word	1073813504
 3644 02c0 00200140 		.word	1073815552
 3645 02c4 00000000 		.word	lcddev
 3646 02c8 00000000 		.word	.LC0
ARM GAS  /tmp/ccRHtd69.s 			page 85


 3647              	.L187:
 608:hardware/src/lcd.c **** 	{	 
 609:hardware/src/lcd.c **** 		LCD_WR_REG(0xCF);  
 3648              		.loc 1 609 3
 3649 02cc CF20     		movs	r0, #207
 3650 02ce FFF7FEFF 		bl	LCD_WR_REG
 610:hardware/src/lcd.c **** 		LCD_WR_DATA(0x00); 
 3651              		.loc 1 610 3
 3652 02d2 0020     		movs	r0, #0
 3653 02d4 FFF7FEFF 		bl	LCD_WR_DATA
 611:hardware/src/lcd.c **** 		LCD_WR_DATA(0xC1); 
 3654              		.loc 1 611 3
 3655 02d8 C120     		movs	r0, #193
 3656 02da FFF7FEFF 		bl	LCD_WR_DATA
 612:hardware/src/lcd.c **** 		LCD_WR_DATA(0X30); 
 3657              		.loc 1 612 3
 3658 02de 3020     		movs	r0, #48
 3659 02e0 FFF7FEFF 		bl	LCD_WR_DATA
 613:hardware/src/lcd.c **** 		LCD_WR_REG(0xED);  
 3660              		.loc 1 613 3
 3661 02e4 ED20     		movs	r0, #237
 3662 02e6 FFF7FEFF 		bl	LCD_WR_REG
 614:hardware/src/lcd.c **** 		LCD_WR_DATA(0x64); 
 3663              		.loc 1 614 3
 3664 02ea 6420     		movs	r0, #100
 3665 02ec FFF7FEFF 		bl	LCD_WR_DATA
 615:hardware/src/lcd.c **** 		LCD_WR_DATA(0x03); 
 3666              		.loc 1 615 3
 3667 02f0 0320     		movs	r0, #3
 3668 02f2 FFF7FEFF 		bl	LCD_WR_DATA
 616:hardware/src/lcd.c **** 		LCD_WR_DATA(0X12); 
 3669              		.loc 1 616 3
 3670 02f6 1220     		movs	r0, #18
 3671 02f8 FFF7FEFF 		bl	LCD_WR_DATA
 617:hardware/src/lcd.c **** 		LCD_WR_DATA(0X81); 
 3672              		.loc 1 617 3
 3673 02fc 8120     		movs	r0, #129
 3674 02fe FFF7FEFF 		bl	LCD_WR_DATA
 618:hardware/src/lcd.c **** 		LCD_WR_REG(0xE8);  
 3675              		.loc 1 618 3
 3676 0302 E820     		movs	r0, #232
 3677 0304 FFF7FEFF 		bl	LCD_WR_REG
 619:hardware/src/lcd.c **** 		LCD_WR_DATA(0x85); 
 3678              		.loc 1 619 3
 3679 0308 8520     		movs	r0, #133
 3680 030a FFF7FEFF 		bl	LCD_WR_DATA
 620:hardware/src/lcd.c **** 		LCD_WR_DATA(0x10); 
 3681              		.loc 1 620 3
 3682 030e 1020     		movs	r0, #16
 3683 0310 FFF7FEFF 		bl	LCD_WR_DATA
 621:hardware/src/lcd.c **** 		LCD_WR_DATA(0x7A); 
 3684              		.loc 1 621 3
 3685 0314 7A20     		movs	r0, #122
 3686 0316 FFF7FEFF 		bl	LCD_WR_DATA
 622:hardware/src/lcd.c **** 		LCD_WR_REG(0xCB);  
 3687              		.loc 1 622 3
 3688 031a CB20     		movs	r0, #203
ARM GAS  /tmp/ccRHtd69.s 			page 86


 3689 031c FFF7FEFF 		bl	LCD_WR_REG
 623:hardware/src/lcd.c **** 		LCD_WR_DATA(0x39); 
 3690              		.loc 1 623 3
 3691 0320 3920     		movs	r0, #57
 3692 0322 FFF7FEFF 		bl	LCD_WR_DATA
 624:hardware/src/lcd.c **** 		LCD_WR_DATA(0x2C); 
 3693              		.loc 1 624 3
 3694 0326 2C20     		movs	r0, #44
 3695 0328 FFF7FEFF 		bl	LCD_WR_DATA
 625:hardware/src/lcd.c **** 		LCD_WR_DATA(0x00); 
 3696              		.loc 1 625 3
 3697 032c 0020     		movs	r0, #0
 3698 032e FFF7FEFF 		bl	LCD_WR_DATA
 626:hardware/src/lcd.c **** 		LCD_WR_DATA(0x34); 
 3699              		.loc 1 626 3
 3700 0332 3420     		movs	r0, #52
 3701 0334 FFF7FEFF 		bl	LCD_WR_DATA
 627:hardware/src/lcd.c **** 		LCD_WR_DATA(0x02); 
 3702              		.loc 1 627 3
 3703 0338 0220     		movs	r0, #2
 3704 033a FFF7FEFF 		bl	LCD_WR_DATA
 628:hardware/src/lcd.c **** 		LCD_WR_REG(0xF7);  
 3705              		.loc 1 628 3
 3706 033e F720     		movs	r0, #247
 3707 0340 FFF7FEFF 		bl	LCD_WR_REG
 629:hardware/src/lcd.c **** 		LCD_WR_DATA(0x20); 
 3708              		.loc 1 629 3
 3709 0344 2020     		movs	r0, #32
 3710 0346 FFF7FEFF 		bl	LCD_WR_DATA
 630:hardware/src/lcd.c **** 		LCD_WR_REG(0xEA);  
 3711              		.loc 1 630 3
 3712 034a EA20     		movs	r0, #234
 3713 034c FFF7FEFF 		bl	LCD_WR_REG
 631:hardware/src/lcd.c **** 		LCD_WR_DATA(0x00); 
 3714              		.loc 1 631 3
 3715 0350 0020     		movs	r0, #0
 3716 0352 FFF7FEFF 		bl	LCD_WR_DATA
 632:hardware/src/lcd.c **** 		LCD_WR_DATA(0x00); 
 3717              		.loc 1 632 3
 3718 0356 0020     		movs	r0, #0
 3719 0358 FFF7FEFF 		bl	LCD_WR_DATA
 633:hardware/src/lcd.c **** 		LCD_WR_REG(0xC0);    //Power control 
 3720              		.loc 1 633 3
 3721 035c C020     		movs	r0, #192
 3722 035e FFF7FEFF 		bl	LCD_WR_REG
 634:hardware/src/lcd.c **** 		LCD_WR_DATA(0x1B);   //VRH[5:0] 
 3723              		.loc 1 634 3
 3724 0362 1B20     		movs	r0, #27
 3725 0364 FFF7FEFF 		bl	LCD_WR_DATA
 635:hardware/src/lcd.c **** 		LCD_WR_REG(0xC1);    //Power control 
 3726              		.loc 1 635 3
 3727 0368 C120     		movs	r0, #193
 3728 036a FFF7FEFF 		bl	LCD_WR_REG
 636:hardware/src/lcd.c **** 		LCD_WR_DATA(0x01);   //SAP[2:0];BT[3:0] 
 3729              		.loc 1 636 3
 3730 036e 0120     		movs	r0, #1
 3731 0370 FFF7FEFF 		bl	LCD_WR_DATA
ARM GAS  /tmp/ccRHtd69.s 			page 87


 637:hardware/src/lcd.c **** 		LCD_WR_REG(0xC5);    //VCM control 
 3732              		.loc 1 637 3
 3733 0374 C520     		movs	r0, #197
 3734 0376 FFF7FEFF 		bl	LCD_WR_REG
 638:hardware/src/lcd.c **** 		LCD_WR_DATA(0x30); 	 //3F
 3735              		.loc 1 638 3
 3736 037a 3020     		movs	r0, #48
 3737 037c FFF7FEFF 		bl	LCD_WR_DATA
 639:hardware/src/lcd.c **** 		LCD_WR_DATA(0x30); 	 //3C
 3738              		.loc 1 639 3
 3739 0380 3020     		movs	r0, #48
 3740 0382 FFF7FEFF 		bl	LCD_WR_DATA
 640:hardware/src/lcd.c **** 		LCD_WR_REG(0xC7);    //VCM control2 
 3741              		.loc 1 640 3
 3742 0386 C720     		movs	r0, #199
 3743 0388 FFF7FEFF 		bl	LCD_WR_REG
 641:hardware/src/lcd.c **** 		LCD_WR_DATA(0XB7); 
 3744              		.loc 1 641 3
 3745 038c B720     		movs	r0, #183
 3746 038e FFF7FEFF 		bl	LCD_WR_DATA
 642:hardware/src/lcd.c **** 		LCD_WR_REG(0x36);    // Memory Access Control 
 3747              		.loc 1 642 3
 3748 0392 3620     		movs	r0, #54
 3749 0394 FFF7FEFF 		bl	LCD_WR_REG
 643:hardware/src/lcd.c **** 		LCD_WR_DATA(0x48); 
 3750              		.loc 1 643 3
 3751 0398 4820     		movs	r0, #72
 3752 039a FFF7FEFF 		bl	LCD_WR_DATA
 644:hardware/src/lcd.c **** 		LCD_WR_REG(0x3A);   
 3753              		.loc 1 644 3
 3754 039e 3A20     		movs	r0, #58
 3755 03a0 FFF7FEFF 		bl	LCD_WR_REG
 645:hardware/src/lcd.c **** 		LCD_WR_DATA(0x55); 
 3756              		.loc 1 645 3
 3757 03a4 5520     		movs	r0, #85
 3758 03a6 FFF7FEFF 		bl	LCD_WR_DATA
 646:hardware/src/lcd.c **** 		LCD_WR_REG(0xB1);   
 3759              		.loc 1 646 3
 3760 03aa B120     		movs	r0, #177
 3761 03ac FFF7FEFF 		bl	LCD_WR_REG
 647:hardware/src/lcd.c **** 		LCD_WR_DATA(0x00);   
 3762              		.loc 1 647 3
 3763 03b0 0020     		movs	r0, #0
 3764 03b2 FFF7FEFF 		bl	LCD_WR_DATA
 648:hardware/src/lcd.c **** 		LCD_WR_DATA(0x1A); 
 3765              		.loc 1 648 3
 3766 03b6 1A20     		movs	r0, #26
 3767 03b8 FFF7FEFF 		bl	LCD_WR_DATA
 649:hardware/src/lcd.c **** 		LCD_WR_REG(0xB6);    // Display Function Control 
 3768              		.loc 1 649 3
 3769 03bc B620     		movs	r0, #182
 3770 03be FFF7FEFF 		bl	LCD_WR_REG
 650:hardware/src/lcd.c **** 		LCD_WR_DATA(0x0A); 
 3771              		.loc 1 650 3
 3772 03c2 0A20     		movs	r0, #10
 3773 03c4 FFF7FEFF 		bl	LCD_WR_DATA
 651:hardware/src/lcd.c **** 		LCD_WR_DATA(0xA2); 
ARM GAS  /tmp/ccRHtd69.s 			page 88


 3774              		.loc 1 651 3
 3775 03c8 A220     		movs	r0, #162
 3776 03ca FFF7FEFF 		bl	LCD_WR_DATA
 652:hardware/src/lcd.c **** 		LCD_WR_REG(0xF2);    // 3Gamma Function Disable 
 3777              		.loc 1 652 3
 3778 03ce F220     		movs	r0, #242
 3779 03d0 FFF7FEFF 		bl	LCD_WR_REG
 653:hardware/src/lcd.c **** 		LCD_WR_DATA(0x00); 
 3780              		.loc 1 653 3
 3781 03d4 0020     		movs	r0, #0
 3782 03d6 FFF7FEFF 		bl	LCD_WR_DATA
 654:hardware/src/lcd.c **** 		LCD_WR_REG(0x26);    //Gamma curve selected 
 3783              		.loc 1 654 3
 3784 03da 2620     		movs	r0, #38
 3785 03dc FFF7FEFF 		bl	LCD_WR_REG
 655:hardware/src/lcd.c **** 		LCD_WR_DATA(0x01); 
 3786              		.loc 1 655 3
 3787 03e0 0120     		movs	r0, #1
 3788 03e2 FFF7FEFF 		bl	LCD_WR_DATA
 656:hardware/src/lcd.c **** 		LCD_WR_REG(0xE0);    //Set Gamma 
 3789              		.loc 1 656 3
 3790 03e6 E020     		movs	r0, #224
 3791 03e8 FFF7FEFF 		bl	LCD_WR_REG
 657:hardware/src/lcd.c **** 		LCD_WR_DATA(0x0F); 
 3792              		.loc 1 657 3
 3793 03ec 0F20     		movs	r0, #15
 3794 03ee FFF7FEFF 		bl	LCD_WR_DATA
 658:hardware/src/lcd.c **** 		LCD_WR_DATA(0x2A); 
 3795              		.loc 1 658 3
 3796 03f2 2A20     		movs	r0, #42
 3797 03f4 FFF7FEFF 		bl	LCD_WR_DATA
 659:hardware/src/lcd.c **** 		LCD_WR_DATA(0x28); 
 3798              		.loc 1 659 3
 3799 03f8 2820     		movs	r0, #40
 3800 03fa FFF7FEFF 		bl	LCD_WR_DATA
 660:hardware/src/lcd.c **** 		LCD_WR_DATA(0x08); 
 3801              		.loc 1 660 3
 3802 03fe 0820     		movs	r0, #8
 3803 0400 FFF7FEFF 		bl	LCD_WR_DATA
 661:hardware/src/lcd.c **** 		LCD_WR_DATA(0x0E); 
 3804              		.loc 1 661 3
 3805 0404 0E20     		movs	r0, #14
 3806 0406 FFF7FEFF 		bl	LCD_WR_DATA
 662:hardware/src/lcd.c **** 		LCD_WR_DATA(0x08); 
 3807              		.loc 1 662 3
 3808 040a 0820     		movs	r0, #8
 3809 040c FFF7FEFF 		bl	LCD_WR_DATA
 663:hardware/src/lcd.c **** 		LCD_WR_DATA(0x54); 
 3810              		.loc 1 663 3
 3811 0410 5420     		movs	r0, #84
 3812 0412 FFF7FEFF 		bl	LCD_WR_DATA
 664:hardware/src/lcd.c **** 		LCD_WR_DATA(0XA9); 
 3813              		.loc 1 664 3
 3814 0416 A920     		movs	r0, #169
 3815 0418 FFF7FEFF 		bl	LCD_WR_DATA
 665:hardware/src/lcd.c **** 		LCD_WR_DATA(0x43); 
 3816              		.loc 1 665 3
ARM GAS  /tmp/ccRHtd69.s 			page 89


 3817 041c 4320     		movs	r0, #67
 3818 041e FFF7FEFF 		bl	LCD_WR_DATA
 666:hardware/src/lcd.c **** 		LCD_WR_DATA(0x0A); 
 3819              		.loc 1 666 3
 3820 0422 0A20     		movs	r0, #10
 3821 0424 FFF7FEFF 		bl	LCD_WR_DATA
 667:hardware/src/lcd.c **** 		LCD_WR_DATA(0x0F); 
 3822              		.loc 1 667 3
 3823 0428 0F20     		movs	r0, #15
 3824 042a FFF7FEFF 		bl	LCD_WR_DATA
 668:hardware/src/lcd.c **** 		LCD_WR_DATA(0x00); 
 3825              		.loc 1 668 3
 3826 042e 0020     		movs	r0, #0
 3827 0430 FFF7FEFF 		bl	LCD_WR_DATA
 669:hardware/src/lcd.c **** 		LCD_WR_DATA(0x00); 
 3828              		.loc 1 669 3
 3829 0434 0020     		movs	r0, #0
 3830 0436 FFF7FEFF 		bl	LCD_WR_DATA
 670:hardware/src/lcd.c **** 		LCD_WR_DATA(0x00); 
 3831              		.loc 1 670 3
 3832 043a 0020     		movs	r0, #0
 3833 043c FFF7FEFF 		bl	LCD_WR_DATA
 671:hardware/src/lcd.c **** 		LCD_WR_DATA(0x00); 		 
 3834              		.loc 1 671 3
 3835 0440 0020     		movs	r0, #0
 3836 0442 FFF7FEFF 		bl	LCD_WR_DATA
 672:hardware/src/lcd.c **** 		LCD_WR_REG(0XE1);    //Set Gamma 
 3837              		.loc 1 672 3
 3838 0446 E120     		movs	r0, #225
 3839 0448 FFF7FEFF 		bl	LCD_WR_REG
 673:hardware/src/lcd.c **** 		LCD_WR_DATA(0x00); 
 3840              		.loc 1 673 3
 3841 044c 0020     		movs	r0, #0
 3842 044e FFF7FEFF 		bl	LCD_WR_DATA
 674:hardware/src/lcd.c **** 		LCD_WR_DATA(0x15); 
 3843              		.loc 1 674 3
 3844 0452 1520     		movs	r0, #21
 3845 0454 FFF7FEFF 		bl	LCD_WR_DATA
 675:hardware/src/lcd.c **** 		LCD_WR_DATA(0x17); 
 3846              		.loc 1 675 3
 3847 0458 1720     		movs	r0, #23
 3848 045a FFF7FEFF 		bl	LCD_WR_DATA
 676:hardware/src/lcd.c **** 		LCD_WR_DATA(0x07); 
 3849              		.loc 1 676 3
 3850 045e 0720     		movs	r0, #7
 3851 0460 FFF7FEFF 		bl	LCD_WR_DATA
 677:hardware/src/lcd.c **** 		LCD_WR_DATA(0x11); 
 3852              		.loc 1 677 3
 3853 0464 1120     		movs	r0, #17
 3854 0466 FFF7FEFF 		bl	LCD_WR_DATA
 678:hardware/src/lcd.c **** 		LCD_WR_DATA(0x06); 
 3855              		.loc 1 678 3
 3856 046a 0620     		movs	r0, #6
 3857 046c FFF7FEFF 		bl	LCD_WR_DATA
 679:hardware/src/lcd.c **** 		LCD_WR_DATA(0x2B); 
 3858              		.loc 1 679 3
 3859 0470 2B20     		movs	r0, #43
ARM GAS  /tmp/ccRHtd69.s 			page 90


 3860 0472 FFF7FEFF 		bl	LCD_WR_DATA
 680:hardware/src/lcd.c **** 		LCD_WR_DATA(0x56); 
 3861              		.loc 1 680 3
 3862 0476 5620     		movs	r0, #86
 3863 0478 FFF7FEFF 		bl	LCD_WR_DATA
 681:hardware/src/lcd.c **** 		LCD_WR_DATA(0x3C); 
 3864              		.loc 1 681 3
 3865 047c 3C20     		movs	r0, #60
 3866 047e FFF7FEFF 		bl	LCD_WR_DATA
 682:hardware/src/lcd.c **** 		LCD_WR_DATA(0x05); 
 3867              		.loc 1 682 3
 3868 0482 0520     		movs	r0, #5
 3869 0484 FFF7FEFF 		bl	LCD_WR_DATA
 683:hardware/src/lcd.c **** 		LCD_WR_DATA(0x10); 
 3870              		.loc 1 683 3
 3871 0488 1020     		movs	r0, #16
 3872 048a FFF7FEFF 		bl	LCD_WR_DATA
 684:hardware/src/lcd.c **** 		LCD_WR_DATA(0x0F); 
 3873              		.loc 1 684 3
 3874 048e 0F20     		movs	r0, #15
 3875 0490 FFF7FEFF 		bl	LCD_WR_DATA
 685:hardware/src/lcd.c **** 		LCD_WR_DATA(0x3F); 
 3876              		.loc 1 685 3
 3877 0494 3F20     		movs	r0, #63
 3878 0496 FFF7FEFF 		bl	LCD_WR_DATA
 686:hardware/src/lcd.c **** 		LCD_WR_DATA(0x3F); 
 3879              		.loc 1 686 3
 3880 049a 3F20     		movs	r0, #63
 3881 049c FFF7FEFF 		bl	LCD_WR_DATA
 687:hardware/src/lcd.c **** 		LCD_WR_DATA(0x0F); 
 3882              		.loc 1 687 3
 3883 04a0 0F20     		movs	r0, #15
 3884 04a2 FFF7FEFF 		bl	LCD_WR_DATA
 688:hardware/src/lcd.c **** 		LCD_WR_REG(0x2B); 
 3885              		.loc 1 688 3
 3886 04a6 2B20     		movs	r0, #43
 3887 04a8 FFF7FEFF 		bl	LCD_WR_REG
 689:hardware/src/lcd.c **** 		LCD_WR_DATA(0x00);
 3888              		.loc 1 689 3
 3889 04ac 0020     		movs	r0, #0
 3890 04ae FFF7FEFF 		bl	LCD_WR_DATA
 690:hardware/src/lcd.c **** 		LCD_WR_DATA(0x00);
 3891              		.loc 1 690 3
 3892 04b2 0020     		movs	r0, #0
 3893 04b4 FFF7FEFF 		bl	LCD_WR_DATA
 691:hardware/src/lcd.c **** 		LCD_WR_DATA(0x01);
 3894              		.loc 1 691 3
 3895 04b8 0120     		movs	r0, #1
 3896 04ba FFF7FEFF 		bl	LCD_WR_DATA
 692:hardware/src/lcd.c **** 		LCD_WR_DATA(0x3f);
 3897              		.loc 1 692 3
 3898 04be 3F20     		movs	r0, #63
 3899 04c0 FFF7FEFF 		bl	LCD_WR_DATA
 693:hardware/src/lcd.c **** 		LCD_WR_REG(0x2A); 
 3900              		.loc 1 693 3
 3901 04c4 2A20     		movs	r0, #42
 3902 04c6 FFF7FEFF 		bl	LCD_WR_REG
ARM GAS  /tmp/ccRHtd69.s 			page 91


 694:hardware/src/lcd.c **** 		LCD_WR_DATA(0x00);
 3903              		.loc 1 694 3
 3904 04ca 0020     		movs	r0, #0
 3905 04cc FFF7FEFF 		bl	LCD_WR_DATA
 695:hardware/src/lcd.c **** 		LCD_WR_DATA(0x00);
 3906              		.loc 1 695 3
 3907 04d0 0020     		movs	r0, #0
 3908 04d2 FFF7FEFF 		bl	LCD_WR_DATA
 696:hardware/src/lcd.c **** 		LCD_WR_DATA(0x00);
 3909              		.loc 1 696 3
 3910 04d6 0020     		movs	r0, #0
 3911 04d8 FFF7FEFF 		bl	LCD_WR_DATA
 697:hardware/src/lcd.c **** 		LCD_WR_DATA(0xef);	 
 3912              		.loc 1 697 3
 3913 04dc EF20     		movs	r0, #239
 3914 04de FFF7FEFF 		bl	LCD_WR_DATA
 698:hardware/src/lcd.c **** 		LCD_WR_REG(0x11); //Exit Sleep
 3915              		.loc 1 698 3
 3916 04e2 1120     		movs	r0, #17
 3917 04e4 FFF7FEFF 		bl	LCD_WR_REG
 699:hardware/src/lcd.c **** 		delay_ms(120);
 3918              		.loc 1 699 3
 3919 04e8 7820     		movs	r0, #120
 3920 04ea FFF7FEFF 		bl	delay_ms
 700:hardware/src/lcd.c **** 		LCD_WR_REG(0x29); //display on	
 3921              		.loc 1 700 3
 3922 04ee 2920     		movs	r0, #41
 3923 04f0 FFF7FEFF 		bl	LCD_WR_REG
 3924 04f4 03F022B9 		b	.L172
 3925              	.L171:
 701:hardware/src/lcd.c **** 	}else if(lcddev.id==0x6804) //6804初始化
 3926              		.loc 1 701 17
 3927 04f8 584B     		ldr	r3, .L189
 3928 04fa 9B88     		ldrh	r3, [r3, #4]
 3929              		.loc 1 701 10
 3930 04fc 46F60402 		movw	r2, #26628
 3931 0500 9342     		cmp	r3, r2
 3932 0502 40F0AD80 		bne	.L173
 702:hardware/src/lcd.c **** 	{
 703:hardware/src/lcd.c **** 		LCD_WR_REG(0X11);
 3933              		.loc 1 703 3
 3934 0506 1120     		movs	r0, #17
 3935 0508 FFF7FEFF 		bl	LCD_WR_REG
 704:hardware/src/lcd.c **** 		delay_ms(20);
 3936              		.loc 1 704 3
 3937 050c 1420     		movs	r0, #20
 3938 050e FFF7FEFF 		bl	delay_ms
 705:hardware/src/lcd.c **** 		LCD_WR_REG(0XD0);//VCI1  VCL  VGH  VGL DDVDH VREG1OUT power amplitude setting
 3939              		.loc 1 705 3
 3940 0512 D020     		movs	r0, #208
 3941 0514 FFF7FEFF 		bl	LCD_WR_REG
 706:hardware/src/lcd.c **** 		LCD_WR_DATA(0X07); 
 3942              		.loc 1 706 3
 3943 0518 0720     		movs	r0, #7
 3944 051a FFF7FEFF 		bl	LCD_WR_DATA
 707:hardware/src/lcd.c **** 		LCD_WR_DATA(0X42); 
 3945              		.loc 1 707 3
ARM GAS  /tmp/ccRHtd69.s 			page 92


 3946 051e 4220     		movs	r0, #66
 3947 0520 FFF7FEFF 		bl	LCD_WR_DATA
 708:hardware/src/lcd.c **** 		LCD_WR_DATA(0X1D); 
 3948              		.loc 1 708 3
 3949 0524 1D20     		movs	r0, #29
 3950 0526 FFF7FEFF 		bl	LCD_WR_DATA
 709:hardware/src/lcd.c **** 		LCD_WR_REG(0XD1);//VCOMH VCOM_AC amplitude setting
 3951              		.loc 1 709 3
 3952 052a D120     		movs	r0, #209
 3953 052c FFF7FEFF 		bl	LCD_WR_REG
 710:hardware/src/lcd.c **** 		LCD_WR_DATA(0X00);
 3954              		.loc 1 710 3
 3955 0530 0020     		movs	r0, #0
 3956 0532 FFF7FEFF 		bl	LCD_WR_DATA
 711:hardware/src/lcd.c **** 		LCD_WR_DATA(0X1a);
 3957              		.loc 1 711 3
 3958 0536 1A20     		movs	r0, #26
 3959 0538 FFF7FEFF 		bl	LCD_WR_DATA
 712:hardware/src/lcd.c **** 		LCD_WR_DATA(0X09); 
 3960              		.loc 1 712 3
 3961 053c 0920     		movs	r0, #9
 3962 053e FFF7FEFF 		bl	LCD_WR_DATA
 713:hardware/src/lcd.c **** 		LCD_WR_REG(0XD2);//Operational Amplifier Circuit Constant Current Adjust , charge pump frequency 
 3963              		.loc 1 713 3
 3964 0542 D220     		movs	r0, #210
 3965 0544 FFF7FEFF 		bl	LCD_WR_REG
 714:hardware/src/lcd.c **** 		LCD_WR_DATA(0X01);
 3966              		.loc 1 714 3
 3967 0548 0120     		movs	r0, #1
 3968 054a FFF7FEFF 		bl	LCD_WR_DATA
 715:hardware/src/lcd.c **** 		LCD_WR_DATA(0X22);
 3969              		.loc 1 715 3
 3970 054e 2220     		movs	r0, #34
 3971 0550 FFF7FEFF 		bl	LCD_WR_DATA
 716:hardware/src/lcd.c **** 		LCD_WR_REG(0XC0);//REV SM GS 
 3972              		.loc 1 716 3
 3973 0554 C020     		movs	r0, #192
 3974 0556 FFF7FEFF 		bl	LCD_WR_REG
 717:hardware/src/lcd.c **** 		LCD_WR_DATA(0X10);
 3975              		.loc 1 717 3
 3976 055a 1020     		movs	r0, #16
 3977 055c FFF7FEFF 		bl	LCD_WR_DATA
 718:hardware/src/lcd.c **** 		LCD_WR_DATA(0X3B);
 3978              		.loc 1 718 3
 3979 0560 3B20     		movs	r0, #59
 3980 0562 FFF7FEFF 		bl	LCD_WR_DATA
 719:hardware/src/lcd.c **** 		LCD_WR_DATA(0X00);
 3981              		.loc 1 719 3
 3982 0566 0020     		movs	r0, #0
 3983 0568 FFF7FEFF 		bl	LCD_WR_DATA
 720:hardware/src/lcd.c **** 		LCD_WR_DATA(0X02);
 3984              		.loc 1 720 3
 3985 056c 0220     		movs	r0, #2
 3986 056e FFF7FEFF 		bl	LCD_WR_DATA
 721:hardware/src/lcd.c **** 		LCD_WR_DATA(0X11);
 3987              		.loc 1 721 3
 3988 0572 1120     		movs	r0, #17
ARM GAS  /tmp/ccRHtd69.s 			page 93


 3989 0574 FFF7FEFF 		bl	LCD_WR_DATA
 722:hardware/src/lcd.c **** 		
 723:hardware/src/lcd.c **** 		LCD_WR_REG(0XC5);// Frame rate setting = 72HZ  when setting 0x03
 3990              		.loc 1 723 3
 3991 0578 C520     		movs	r0, #197
 3992 057a FFF7FEFF 		bl	LCD_WR_REG
 724:hardware/src/lcd.c **** 		LCD_WR_DATA(0X03);
 3993              		.loc 1 724 3
 3994 057e 0320     		movs	r0, #3
 3995 0580 FFF7FEFF 		bl	LCD_WR_DATA
 725:hardware/src/lcd.c **** 		
 726:hardware/src/lcd.c **** 		LCD_WR_REG(0XC8);//Gamma setting
 3996              		.loc 1 726 3
 3997 0584 C820     		movs	r0, #200
 3998 0586 FFF7FEFF 		bl	LCD_WR_REG
 727:hardware/src/lcd.c **** 		LCD_WR_DATA(0X00);
 3999              		.loc 1 727 3
 4000 058a 0020     		movs	r0, #0
 4001 058c FFF7FEFF 		bl	LCD_WR_DATA
 728:hardware/src/lcd.c **** 		LCD_WR_DATA(0X25);
 4002              		.loc 1 728 3
 4003 0590 2520     		movs	r0, #37
 4004 0592 FFF7FEFF 		bl	LCD_WR_DATA
 729:hardware/src/lcd.c **** 		LCD_WR_DATA(0X21);
 4005              		.loc 1 729 3
 4006 0596 2120     		movs	r0, #33
 4007 0598 FFF7FEFF 		bl	LCD_WR_DATA
 730:hardware/src/lcd.c **** 		LCD_WR_DATA(0X05);
 4008              		.loc 1 730 3
 4009 059c 0520     		movs	r0, #5
 4010 059e FFF7FEFF 		bl	LCD_WR_DATA
 731:hardware/src/lcd.c **** 		LCD_WR_DATA(0X00);
 4011              		.loc 1 731 3
 4012 05a2 0020     		movs	r0, #0
 4013 05a4 FFF7FEFF 		bl	LCD_WR_DATA
 732:hardware/src/lcd.c **** 		LCD_WR_DATA(0X0a);
 4014              		.loc 1 732 3
 4015 05a8 0A20     		movs	r0, #10
 4016 05aa FFF7FEFF 		bl	LCD_WR_DATA
 733:hardware/src/lcd.c **** 		LCD_WR_DATA(0X65);
 4017              		.loc 1 733 3
 4018 05ae 6520     		movs	r0, #101
 4019 05b0 FFF7FEFF 		bl	LCD_WR_DATA
 734:hardware/src/lcd.c **** 		LCD_WR_DATA(0X25);
 4020              		.loc 1 734 3
 4021 05b4 2520     		movs	r0, #37
 4022 05b6 FFF7FEFF 		bl	LCD_WR_DATA
 735:hardware/src/lcd.c **** 		LCD_WR_DATA(0X77);
 4023              		.loc 1 735 3
 4024 05ba 7720     		movs	r0, #119
 4025 05bc FFF7FEFF 		bl	LCD_WR_DATA
 736:hardware/src/lcd.c **** 		LCD_WR_DATA(0X50);
 4026              		.loc 1 736 3
 4027 05c0 5020     		movs	r0, #80
 4028 05c2 FFF7FEFF 		bl	LCD_WR_DATA
 737:hardware/src/lcd.c **** 		LCD_WR_DATA(0X0f);
 4029              		.loc 1 737 3
ARM GAS  /tmp/ccRHtd69.s 			page 94


 4030 05c6 0F20     		movs	r0, #15
 4031 05c8 FFF7FEFF 		bl	LCD_WR_DATA
 738:hardware/src/lcd.c **** 		LCD_WR_DATA(0X00);	  
 4032              		.loc 1 738 3
 4033 05cc 0020     		movs	r0, #0
 4034 05ce FFF7FEFF 		bl	LCD_WR_DATA
 739:hardware/src/lcd.c **** 						  
 740:hardware/src/lcd.c ****    		LCD_WR_REG(0XF8);
 4035              		.loc 1 740 6
 4036 05d2 F820     		movs	r0, #248
 4037 05d4 FFF7FEFF 		bl	LCD_WR_REG
 741:hardware/src/lcd.c **** 		LCD_WR_DATA(0X01);	  
 4038              		.loc 1 741 3
 4039 05d8 0120     		movs	r0, #1
 4040 05da FFF7FEFF 		bl	LCD_WR_DATA
 742:hardware/src/lcd.c **** 
 743:hardware/src/lcd.c ****  		LCD_WR_REG(0XFE);
 4041              		.loc 1 743 4
 4042 05de FE20     		movs	r0, #254
 4043 05e0 FFF7FEFF 		bl	LCD_WR_REG
 744:hardware/src/lcd.c ****  		LCD_WR_DATA(0X00);
 4044              		.loc 1 744 4
 4045 05e4 0020     		movs	r0, #0
 4046 05e6 FFF7FEFF 		bl	LCD_WR_DATA
 745:hardware/src/lcd.c ****  		LCD_WR_DATA(0X02);
 4047              		.loc 1 745 4
 4048 05ea 0220     		movs	r0, #2
 4049 05ec FFF7FEFF 		bl	LCD_WR_DATA
 746:hardware/src/lcd.c **** 		
 747:hardware/src/lcd.c **** 		LCD_WR_REG(0X20);//Exit invert mode
 4050              		.loc 1 747 3
 4051 05f0 2020     		movs	r0, #32
 4052 05f2 FFF7FEFF 		bl	LCD_WR_REG
 748:hardware/src/lcd.c **** 
 749:hardware/src/lcd.c **** 		LCD_WR_REG(0X36);
 4053              		.loc 1 749 3
 4054 05f6 3620     		movs	r0, #54
 4055 05f8 FFF7FEFF 		bl	LCD_WR_REG
 750:hardware/src/lcd.c **** 		LCD_WR_DATA(0X08);//原来是a
 4056              		.loc 1 750 3
 4057 05fc 0820     		movs	r0, #8
 4058 05fe FFF7FEFF 		bl	LCD_WR_DATA
 751:hardware/src/lcd.c **** 		
 752:hardware/src/lcd.c **** 		LCD_WR_REG(0X3A);
 4059              		.loc 1 752 3
 4060 0602 3A20     		movs	r0, #58
 4061 0604 FFF7FEFF 		bl	LCD_WR_REG
 753:hardware/src/lcd.c **** 		LCD_WR_DATA(0X55);//16位模式	  
 4062              		.loc 1 753 3
 4063 0608 5520     		movs	r0, #85
 4064 060a FFF7FEFF 		bl	LCD_WR_DATA
 754:hardware/src/lcd.c **** 		LCD_WR_REG(0X2B);
 4065              		.loc 1 754 3
 4066 060e 2B20     		movs	r0, #43
 4067 0610 FFF7FEFF 		bl	LCD_WR_REG
 755:hardware/src/lcd.c **** 		LCD_WR_DATA(0X00);
 4068              		.loc 1 755 3
ARM GAS  /tmp/ccRHtd69.s 			page 95


 4069 0614 0020     		movs	r0, #0
 4070 0616 FFF7FEFF 		bl	LCD_WR_DATA
 756:hardware/src/lcd.c **** 		LCD_WR_DATA(0X00);
 4071              		.loc 1 756 3
 4072 061a 0020     		movs	r0, #0
 4073 061c FFF7FEFF 		bl	LCD_WR_DATA
 757:hardware/src/lcd.c **** 		LCD_WR_DATA(0X01);
 4074              		.loc 1 757 3
 4075 0620 0120     		movs	r0, #1
 4076 0622 FFF7FEFF 		bl	LCD_WR_DATA
 758:hardware/src/lcd.c **** 		LCD_WR_DATA(0X3F);
 4077              		.loc 1 758 3
 4078 0626 3F20     		movs	r0, #63
 4079 0628 FFF7FEFF 		bl	LCD_WR_DATA
 759:hardware/src/lcd.c **** 		
 760:hardware/src/lcd.c **** 		LCD_WR_REG(0X2A);
 4080              		.loc 1 760 3
 4081 062c 2A20     		movs	r0, #42
 4082 062e FFF7FEFF 		bl	LCD_WR_REG
 761:hardware/src/lcd.c **** 		LCD_WR_DATA(0X00);
 4083              		.loc 1 761 3
 4084 0632 0020     		movs	r0, #0
 4085 0634 FFF7FEFF 		bl	LCD_WR_DATA
 762:hardware/src/lcd.c **** 		LCD_WR_DATA(0X00);
 4086              		.loc 1 762 3
 4087 0638 0020     		movs	r0, #0
 4088 063a FFF7FEFF 		bl	LCD_WR_DATA
 763:hardware/src/lcd.c **** 		LCD_WR_DATA(0X01);
 4089              		.loc 1 763 3
 4090 063e 0120     		movs	r0, #1
 4091 0640 FFF7FEFF 		bl	LCD_WR_DATA
 764:hardware/src/lcd.c **** 		LCD_WR_DATA(0XDF);
 4092              		.loc 1 764 3
 4093 0644 DF20     		movs	r0, #223
 4094 0646 FFF7FEFF 		bl	LCD_WR_DATA
 765:hardware/src/lcd.c **** 		delay_ms(120);
 4095              		.loc 1 765 3
 4096 064a 7820     		movs	r0, #120
 4097 064c FFF7FEFF 		bl	delay_ms
 766:hardware/src/lcd.c **** 		LCD_WR_REG(0X29); 	 
 4098              		.loc 1 766 3
 4099 0650 2920     		movs	r0, #41
 4100 0652 FFF7FEFF 		bl	LCD_WR_REG
 4101 0656 03F071B8 		b	.L172
 4102              	.L190:
 4103 065a 00BF     		.align	2
 4104              	.L189:
 4105 065c 00000000 		.word	lcddev
 4106              	.L173:
 767:hardware/src/lcd.c ****  	}else if(lcddev.id==0x5310)
 4107              		.loc 1 767 18
 4108 0660 034B     		ldr	r3, .L191
 4109 0662 9B88     		ldrh	r3, [r3, #4]
 4110              		.loc 1 767 11
 4111 0664 45F21032 		movw	r2, #21264
 4112 0668 9342     		cmp	r3, r2
 4113 066a 40F07C87 		bne	.L174
ARM GAS  /tmp/ccRHtd69.s 			page 96


 4114 066e 01E0     		b	.L192
 4115              	.L193:
 4116              		.align	2
 4117              	.L191:
 4118 0670 00000000 		.word	lcddev
 4119              	.L192:
 768:hardware/src/lcd.c **** 	{ 
 769:hardware/src/lcd.c **** 		LCD_WR_REG(0xED);
 4120              		.loc 1 769 3
 4121 0674 ED20     		movs	r0, #237
 4122 0676 FFF7FEFF 		bl	LCD_WR_REG
 770:hardware/src/lcd.c **** 		LCD_WR_DATA(0x01);
 4123              		.loc 1 770 3
 4124 067a 0120     		movs	r0, #1
 4125 067c FFF7FEFF 		bl	LCD_WR_DATA
 771:hardware/src/lcd.c **** 		LCD_WR_DATA(0xFE);
 4126              		.loc 1 771 3
 4127 0680 FE20     		movs	r0, #254
 4128 0682 FFF7FEFF 		bl	LCD_WR_DATA
 772:hardware/src/lcd.c **** 
 773:hardware/src/lcd.c **** 		LCD_WR_REG(0xEE);
 4129              		.loc 1 773 3
 4130 0686 EE20     		movs	r0, #238
 4131 0688 FFF7FEFF 		bl	LCD_WR_REG
 774:hardware/src/lcd.c **** 		LCD_WR_DATA(0xDE);
 4132              		.loc 1 774 3
 4133 068c DE20     		movs	r0, #222
 4134 068e FFF7FEFF 		bl	LCD_WR_DATA
 775:hardware/src/lcd.c **** 		LCD_WR_DATA(0x21);
 4135              		.loc 1 775 3
 4136 0692 2120     		movs	r0, #33
 4137 0694 FFF7FEFF 		bl	LCD_WR_DATA
 776:hardware/src/lcd.c **** 
 777:hardware/src/lcd.c **** 		LCD_WR_REG(0xF1);
 4138              		.loc 1 777 3
 4139 0698 F120     		movs	r0, #241
 4140 069a FFF7FEFF 		bl	LCD_WR_REG
 778:hardware/src/lcd.c **** 		LCD_WR_DATA(0x01);
 4141              		.loc 1 778 3
 4142 069e 0120     		movs	r0, #1
 4143 06a0 FFF7FEFF 		bl	LCD_WR_DATA
 779:hardware/src/lcd.c **** 		LCD_WR_REG(0xDF);
 4144              		.loc 1 779 3
 4145 06a4 DF20     		movs	r0, #223
 4146 06a6 FFF7FEFF 		bl	LCD_WR_REG
 780:hardware/src/lcd.c **** 		LCD_WR_DATA(0x10);
 4147              		.loc 1 780 3
 4148 06aa 1020     		movs	r0, #16
 4149 06ac FFF7FEFF 		bl	LCD_WR_DATA
 781:hardware/src/lcd.c **** 
 782:hardware/src/lcd.c **** 		//VCOMvoltage//
 783:hardware/src/lcd.c **** 		LCD_WR_REG(0xC4);
 4150              		.loc 1 783 3
 4151 06b0 C420     		movs	r0, #196
 4152 06b2 FFF7FEFF 		bl	LCD_WR_REG
 784:hardware/src/lcd.c **** 		LCD_WR_DATA(0x8F);	  //5f
 4153              		.loc 1 784 3
ARM GAS  /tmp/ccRHtd69.s 			page 97


 4154 06b6 8F20     		movs	r0, #143
 4155 06b8 FFF7FEFF 		bl	LCD_WR_DATA
 785:hardware/src/lcd.c **** 
 786:hardware/src/lcd.c **** 		LCD_WR_REG(0xC6);
 4156              		.loc 1 786 3
 4157 06bc C620     		movs	r0, #198
 4158 06be FFF7FEFF 		bl	LCD_WR_REG
 787:hardware/src/lcd.c **** 		LCD_WR_DATA(0x00);
 4159              		.loc 1 787 3
 4160 06c2 0020     		movs	r0, #0
 4161 06c4 FFF7FEFF 		bl	LCD_WR_DATA
 788:hardware/src/lcd.c **** 		LCD_WR_DATA(0xE2);
 4162              		.loc 1 788 3
 4163 06c8 E220     		movs	r0, #226
 4164 06ca FFF7FEFF 		bl	LCD_WR_DATA
 789:hardware/src/lcd.c **** 		LCD_WR_DATA(0xE2);
 4165              		.loc 1 789 3
 4166 06ce E220     		movs	r0, #226
 4167 06d0 FFF7FEFF 		bl	LCD_WR_DATA
 790:hardware/src/lcd.c **** 		LCD_WR_DATA(0xE2);
 4168              		.loc 1 790 3
 4169 06d4 E220     		movs	r0, #226
 4170 06d6 FFF7FEFF 		bl	LCD_WR_DATA
 791:hardware/src/lcd.c **** 		LCD_WR_REG(0xBF);
 4171              		.loc 1 791 3
 4172 06da BF20     		movs	r0, #191
 4173 06dc FFF7FEFF 		bl	LCD_WR_REG
 792:hardware/src/lcd.c **** 		LCD_WR_DATA(0xAA);
 4174              		.loc 1 792 3
 4175 06e0 AA20     		movs	r0, #170
 4176 06e2 FFF7FEFF 		bl	LCD_WR_DATA
 793:hardware/src/lcd.c **** 
 794:hardware/src/lcd.c **** 		LCD_WR_REG(0xB0);
 4177              		.loc 1 794 3
 4178 06e6 B020     		movs	r0, #176
 4179 06e8 FFF7FEFF 		bl	LCD_WR_REG
 795:hardware/src/lcd.c **** 		LCD_WR_DATA(0x0D);
 4180              		.loc 1 795 3
 4181 06ec 0D20     		movs	r0, #13
 4182 06ee FFF7FEFF 		bl	LCD_WR_DATA
 796:hardware/src/lcd.c **** 		LCD_WR_DATA(0x00);
 4183              		.loc 1 796 3
 4184 06f2 0020     		movs	r0, #0
 4185 06f4 FFF7FEFF 		bl	LCD_WR_DATA
 797:hardware/src/lcd.c **** 		LCD_WR_DATA(0x0D);
 4186              		.loc 1 797 3
 4187 06f8 0D20     		movs	r0, #13
 4188 06fa FFF7FEFF 		bl	LCD_WR_DATA
 798:hardware/src/lcd.c **** 		LCD_WR_DATA(0x00);
 4189              		.loc 1 798 3
 4190 06fe 0020     		movs	r0, #0
 4191 0700 FFF7FEFF 		bl	LCD_WR_DATA
 799:hardware/src/lcd.c **** 		LCD_WR_DATA(0x11);
 4192              		.loc 1 799 3
 4193 0704 1120     		movs	r0, #17
 4194 0706 FFF7FEFF 		bl	LCD_WR_DATA
 800:hardware/src/lcd.c **** 		LCD_WR_DATA(0x00);
ARM GAS  /tmp/ccRHtd69.s 			page 98


 4195              		.loc 1 800 3
 4196 070a 0020     		movs	r0, #0
 4197 070c FFF7FEFF 		bl	LCD_WR_DATA
 801:hardware/src/lcd.c **** 		LCD_WR_DATA(0x19);
 4198              		.loc 1 801 3
 4199 0710 1920     		movs	r0, #25
 4200 0712 FFF7FEFF 		bl	LCD_WR_DATA
 802:hardware/src/lcd.c **** 		LCD_WR_DATA(0x00);
 4201              		.loc 1 802 3
 4202 0716 0020     		movs	r0, #0
 4203 0718 FFF7FEFF 		bl	LCD_WR_DATA
 803:hardware/src/lcd.c **** 		LCD_WR_DATA(0x21);
 4204              		.loc 1 803 3
 4205 071c 2120     		movs	r0, #33
 4206 071e FFF7FEFF 		bl	LCD_WR_DATA
 804:hardware/src/lcd.c **** 		LCD_WR_DATA(0x00);
 4207              		.loc 1 804 3
 4208 0722 0020     		movs	r0, #0
 4209 0724 FFF7FEFF 		bl	LCD_WR_DATA
 805:hardware/src/lcd.c **** 		LCD_WR_DATA(0x2D);
 4210              		.loc 1 805 3
 4211 0728 2D20     		movs	r0, #45
 4212 072a FFF7FEFF 		bl	LCD_WR_DATA
 806:hardware/src/lcd.c **** 		LCD_WR_DATA(0x00);
 4213              		.loc 1 806 3
 4214 072e 0020     		movs	r0, #0
 4215 0730 FFF7FEFF 		bl	LCD_WR_DATA
 807:hardware/src/lcd.c **** 		LCD_WR_DATA(0x3D);
 4216              		.loc 1 807 3
 4217 0734 3D20     		movs	r0, #61
 4218 0736 FFF7FEFF 		bl	LCD_WR_DATA
 808:hardware/src/lcd.c **** 		LCD_WR_DATA(0x00);
 4219              		.loc 1 808 3
 4220 073a 0020     		movs	r0, #0
 4221 073c FFF7FEFF 		bl	LCD_WR_DATA
 809:hardware/src/lcd.c **** 		LCD_WR_DATA(0x5D);
 4222              		.loc 1 809 3
 4223 0740 5D20     		movs	r0, #93
 4224 0742 FFF7FEFF 		bl	LCD_WR_DATA
 810:hardware/src/lcd.c **** 		LCD_WR_DATA(0x00);
 4225              		.loc 1 810 3
 4226 0746 0020     		movs	r0, #0
 4227 0748 FFF7FEFF 		bl	LCD_WR_DATA
 811:hardware/src/lcd.c **** 		LCD_WR_DATA(0x5D);
 4228              		.loc 1 811 3
 4229 074c 5D20     		movs	r0, #93
 4230 074e FFF7FEFF 		bl	LCD_WR_DATA
 812:hardware/src/lcd.c **** 		LCD_WR_DATA(0x00);
 4231              		.loc 1 812 3
 4232 0752 0020     		movs	r0, #0
 4233 0754 FFF7FEFF 		bl	LCD_WR_DATA
 813:hardware/src/lcd.c **** 
 814:hardware/src/lcd.c **** 		LCD_WR_REG(0xB1);
 4234              		.loc 1 814 3
 4235 0758 B120     		movs	r0, #177
 4236 075a FFF7FEFF 		bl	LCD_WR_REG
 815:hardware/src/lcd.c **** 		LCD_WR_DATA(0x80);
ARM GAS  /tmp/ccRHtd69.s 			page 99


 4237              		.loc 1 815 3
 4238 075e 8020     		movs	r0, #128
 4239 0760 FFF7FEFF 		bl	LCD_WR_DATA
 816:hardware/src/lcd.c **** 		LCD_WR_DATA(0x00);
 4240              		.loc 1 816 3
 4241 0764 0020     		movs	r0, #0
 4242 0766 FFF7FEFF 		bl	LCD_WR_DATA
 817:hardware/src/lcd.c **** 		LCD_WR_DATA(0x8B);
 4243              		.loc 1 817 3
 4244 076a 8B20     		movs	r0, #139
 4245 076c FFF7FEFF 		bl	LCD_WR_DATA
 818:hardware/src/lcd.c **** 		LCD_WR_DATA(0x00);
 4246              		.loc 1 818 3
 4247 0770 0020     		movs	r0, #0
 4248 0772 FFF7FEFF 		bl	LCD_WR_DATA
 819:hardware/src/lcd.c **** 		LCD_WR_DATA(0x96);
 4249              		.loc 1 819 3
 4250 0776 9620     		movs	r0, #150
 4251 0778 FFF7FEFF 		bl	LCD_WR_DATA
 820:hardware/src/lcd.c **** 		LCD_WR_DATA(0x00);
 4252              		.loc 1 820 3
 4253 077c 0020     		movs	r0, #0
 4254 077e FFF7FEFF 		bl	LCD_WR_DATA
 821:hardware/src/lcd.c **** 
 822:hardware/src/lcd.c **** 		LCD_WR_REG(0xB2);
 4255              		.loc 1 822 3
 4256 0782 B220     		movs	r0, #178
 4257 0784 FFF7FEFF 		bl	LCD_WR_REG
 823:hardware/src/lcd.c **** 		LCD_WR_DATA(0x00);
 4258              		.loc 1 823 3
 4259 0788 0020     		movs	r0, #0
 4260 078a FFF7FEFF 		bl	LCD_WR_DATA
 824:hardware/src/lcd.c **** 		LCD_WR_DATA(0x00);
 4261              		.loc 1 824 3
 4262 078e 0020     		movs	r0, #0
 4263 0790 FFF7FEFF 		bl	LCD_WR_DATA
 825:hardware/src/lcd.c **** 		LCD_WR_DATA(0x02);
 4264              		.loc 1 825 3
 4265 0794 0220     		movs	r0, #2
 4266 0796 FFF7FEFF 		bl	LCD_WR_DATA
 826:hardware/src/lcd.c **** 		LCD_WR_DATA(0x00);
 4267              		.loc 1 826 3
 4268 079a 0020     		movs	r0, #0
 4269 079c FFF7FEFF 		bl	LCD_WR_DATA
 827:hardware/src/lcd.c **** 		LCD_WR_DATA(0x03);
 4270              		.loc 1 827 3
 4271 07a0 0320     		movs	r0, #3
 4272 07a2 FFF7FEFF 		bl	LCD_WR_DATA
 828:hardware/src/lcd.c **** 		LCD_WR_DATA(0x00);
 4273              		.loc 1 828 3
 4274 07a6 0020     		movs	r0, #0
 4275 07a8 FFF7FEFF 		bl	LCD_WR_DATA
 829:hardware/src/lcd.c **** 
 830:hardware/src/lcd.c **** 		LCD_WR_REG(0xB3);
 4276              		.loc 1 830 3
 4277 07ac B320     		movs	r0, #179
 4278 07ae FFF7FEFF 		bl	LCD_WR_REG
ARM GAS  /tmp/ccRHtd69.s 			page 100


 831:hardware/src/lcd.c **** 		LCD_WR_DATA(0x00);
 4279              		.loc 1 831 3
 4280 07b2 0020     		movs	r0, #0
 4281 07b4 FFF7FEFF 		bl	LCD_WR_DATA
 832:hardware/src/lcd.c **** 		LCD_WR_DATA(0x00);
 4282              		.loc 1 832 3
 4283 07b8 0020     		movs	r0, #0
 4284 07ba FFF7FEFF 		bl	LCD_WR_DATA
 833:hardware/src/lcd.c **** 		LCD_WR_DATA(0x00);
 4285              		.loc 1 833 3
 4286 07be 0020     		movs	r0, #0
 4287 07c0 FFF7FEFF 		bl	LCD_WR_DATA
 834:hardware/src/lcd.c **** 		LCD_WR_DATA(0x00);
 4288              		.loc 1 834 3
 4289 07c4 0020     		movs	r0, #0
 4290 07c6 FFF7FEFF 		bl	LCD_WR_DATA
 835:hardware/src/lcd.c **** 		LCD_WR_DATA(0x00);
 4291              		.loc 1 835 3
 4292 07ca 0020     		movs	r0, #0
 4293 07cc FFF7FEFF 		bl	LCD_WR_DATA
 836:hardware/src/lcd.c **** 		LCD_WR_DATA(0x00);
 4294              		.loc 1 836 3
 4295 07d0 0020     		movs	r0, #0
 4296 07d2 FFF7FEFF 		bl	LCD_WR_DATA
 837:hardware/src/lcd.c **** 		LCD_WR_DATA(0x00);
 4297              		.loc 1 837 3
 4298 07d6 0020     		movs	r0, #0
 4299 07d8 FFF7FEFF 		bl	LCD_WR_DATA
 838:hardware/src/lcd.c **** 		LCD_WR_DATA(0x00);
 4300              		.loc 1 838 3
 4301 07dc 0020     		movs	r0, #0
 4302 07de FFF7FEFF 		bl	LCD_WR_DATA
 839:hardware/src/lcd.c **** 		LCD_WR_DATA(0x00);
 4303              		.loc 1 839 3
 4304 07e2 0020     		movs	r0, #0
 4305 07e4 FFF7FEFF 		bl	LCD_WR_DATA
 840:hardware/src/lcd.c **** 		LCD_WR_DATA(0x00);
 4306              		.loc 1 840 3
 4307 07e8 0020     		movs	r0, #0
 4308 07ea FFF7FEFF 		bl	LCD_WR_DATA
 841:hardware/src/lcd.c **** 		LCD_WR_DATA(0x00);
 4309              		.loc 1 841 3
 4310 07ee 0020     		movs	r0, #0
 4311 07f0 FFF7FEFF 		bl	LCD_WR_DATA
 842:hardware/src/lcd.c **** 		LCD_WR_DATA(0x00);
 4312              		.loc 1 842 3
 4313 07f4 0020     		movs	r0, #0
 4314 07f6 FFF7FEFF 		bl	LCD_WR_DATA
 843:hardware/src/lcd.c **** 		LCD_WR_DATA(0x00);
 4315              		.loc 1 843 3
 4316 07fa 0020     		movs	r0, #0
 4317 07fc FFF7FEFF 		bl	LCD_WR_DATA
 844:hardware/src/lcd.c **** 		LCD_WR_DATA(0x00);
 4318              		.loc 1 844 3
 4319 0800 0020     		movs	r0, #0
 4320 0802 FFF7FEFF 		bl	LCD_WR_DATA
 845:hardware/src/lcd.c **** 		LCD_WR_DATA(0x00);
ARM GAS  /tmp/ccRHtd69.s 			page 101


 4321              		.loc 1 845 3
 4322 0806 0020     		movs	r0, #0
 4323 0808 FFF7FEFF 		bl	LCD_WR_DATA
 846:hardware/src/lcd.c **** 		LCD_WR_DATA(0x00);
 4324              		.loc 1 846 3
 4325 080c 0020     		movs	r0, #0
 4326 080e FFF7FEFF 		bl	LCD_WR_DATA
 847:hardware/src/lcd.c **** 		LCD_WR_DATA(0x00);
 4327              		.loc 1 847 3
 4328 0812 0020     		movs	r0, #0
 4329 0814 FFF7FEFF 		bl	LCD_WR_DATA
 848:hardware/src/lcd.c **** 		LCD_WR_DATA(0x00);
 4330              		.loc 1 848 3
 4331 0818 0020     		movs	r0, #0
 4332 081a FFF7FEFF 		bl	LCD_WR_DATA
 849:hardware/src/lcd.c **** 		LCD_WR_DATA(0x00);
 4333              		.loc 1 849 3
 4334 081e 0020     		movs	r0, #0
 4335 0820 FFF7FEFF 		bl	LCD_WR_DATA
 850:hardware/src/lcd.c **** 		LCD_WR_DATA(0x00);
 4336              		.loc 1 850 3
 4337 0824 0020     		movs	r0, #0
 4338 0826 FFF7FEFF 		bl	LCD_WR_DATA
 851:hardware/src/lcd.c **** 		LCD_WR_DATA(0x00);
 4339              		.loc 1 851 3
 4340 082a 0020     		movs	r0, #0
 4341 082c FFF7FEFF 		bl	LCD_WR_DATA
 852:hardware/src/lcd.c **** 		LCD_WR_DATA(0x00);
 4342              		.loc 1 852 3
 4343 0830 0020     		movs	r0, #0
 4344 0832 FFF7FEFF 		bl	LCD_WR_DATA
 853:hardware/src/lcd.c **** 		LCD_WR_DATA(0x00);
 4345              		.loc 1 853 3
 4346 0836 0020     		movs	r0, #0
 4347 0838 FFF7FEFF 		bl	LCD_WR_DATA
 854:hardware/src/lcd.c **** 		LCD_WR_DATA(0x00);
 4348              		.loc 1 854 3
 4349 083c 0020     		movs	r0, #0
 4350 083e FFF7FEFF 		bl	LCD_WR_DATA
 855:hardware/src/lcd.c **** 
 856:hardware/src/lcd.c **** 		LCD_WR_REG(0xB4);
 4351              		.loc 1 856 3
 4352 0842 B420     		movs	r0, #180
 4353 0844 FFF7FEFF 		bl	LCD_WR_REG
 857:hardware/src/lcd.c **** 		LCD_WR_DATA(0x8B);
 4354              		.loc 1 857 3
 4355 0848 8B20     		movs	r0, #139
 4356 084a FFF7FEFF 		bl	LCD_WR_DATA
 858:hardware/src/lcd.c **** 		LCD_WR_DATA(0x00);
 4357              		.loc 1 858 3
 4358 084e 0020     		movs	r0, #0
 4359 0850 FFF7FEFF 		bl	LCD_WR_DATA
 859:hardware/src/lcd.c **** 		LCD_WR_DATA(0x96);
 4360              		.loc 1 859 3
 4361 0854 9620     		movs	r0, #150
 4362 0856 FFF7FEFF 		bl	LCD_WR_DATA
 860:hardware/src/lcd.c **** 		LCD_WR_DATA(0x00);
ARM GAS  /tmp/ccRHtd69.s 			page 102


 4363              		.loc 1 860 3
 4364 085a 0020     		movs	r0, #0
 4365 085c FFF7FEFF 		bl	LCD_WR_DATA
 861:hardware/src/lcd.c **** 		LCD_WR_DATA(0xA1);
 4366              		.loc 1 861 3
 4367 0860 A120     		movs	r0, #161
 4368 0862 FFF7FEFF 		bl	LCD_WR_DATA
 862:hardware/src/lcd.c **** 		LCD_WR_DATA(0x00);
 4369              		.loc 1 862 3
 4370 0866 0020     		movs	r0, #0
 4371 0868 FFF7FEFF 		bl	LCD_WR_DATA
 863:hardware/src/lcd.c **** 
 864:hardware/src/lcd.c **** 		LCD_WR_REG(0xB5);
 4372              		.loc 1 864 3
 4373 086c B520     		movs	r0, #181
 4374 086e FFF7FEFF 		bl	LCD_WR_REG
 865:hardware/src/lcd.c **** 		LCD_WR_DATA(0x02);
 4375              		.loc 1 865 3
 4376 0872 0220     		movs	r0, #2
 4377 0874 FFF7FEFF 		bl	LCD_WR_DATA
 866:hardware/src/lcd.c **** 		LCD_WR_DATA(0x00);
 4378              		.loc 1 866 3
 4379 0878 0020     		movs	r0, #0
 4380 087a FFF7FEFF 		bl	LCD_WR_DATA
 867:hardware/src/lcd.c **** 		LCD_WR_DATA(0x03);
 4381              		.loc 1 867 3
 4382 087e 0320     		movs	r0, #3
 4383 0880 FFF7FEFF 		bl	LCD_WR_DATA
 868:hardware/src/lcd.c **** 		LCD_WR_DATA(0x00);
 4384              		.loc 1 868 3
 4385 0884 0020     		movs	r0, #0
 4386 0886 FFF7FEFF 		bl	LCD_WR_DATA
 869:hardware/src/lcd.c **** 		LCD_WR_DATA(0x04);
 4387              		.loc 1 869 3
 4388 088a 0420     		movs	r0, #4
 4389 088c FFF7FEFF 		bl	LCD_WR_DATA
 870:hardware/src/lcd.c **** 		LCD_WR_DATA(0x00);
 4390              		.loc 1 870 3
 4391 0890 0020     		movs	r0, #0
 4392 0892 FFF7FEFF 		bl	LCD_WR_DATA
 871:hardware/src/lcd.c **** 
 872:hardware/src/lcd.c **** 		LCD_WR_REG(0xB6);
 4393              		.loc 1 872 3
 4394 0896 B620     		movs	r0, #182
 4395 0898 FFF7FEFF 		bl	LCD_WR_REG
 873:hardware/src/lcd.c **** 		LCD_WR_DATA(0x00);
 4396              		.loc 1 873 3
 4397 089c 0020     		movs	r0, #0
 4398 089e FFF7FEFF 		bl	LCD_WR_DATA
 874:hardware/src/lcd.c **** 		LCD_WR_DATA(0x00);
 4399              		.loc 1 874 3
 4400 08a2 0020     		movs	r0, #0
 4401 08a4 FFF7FEFF 		bl	LCD_WR_DATA
 875:hardware/src/lcd.c **** 
 876:hardware/src/lcd.c **** 		LCD_WR_REG(0xB7);
 4402              		.loc 1 876 3
 4403 08a8 B720     		movs	r0, #183
ARM GAS  /tmp/ccRHtd69.s 			page 103


 4404 08aa FFF7FEFF 		bl	LCD_WR_REG
 877:hardware/src/lcd.c **** 		LCD_WR_DATA(0x00);
 4405              		.loc 1 877 3
 4406 08ae 0020     		movs	r0, #0
 4407 08b0 FFF7FEFF 		bl	LCD_WR_DATA
 878:hardware/src/lcd.c **** 		LCD_WR_DATA(0x00);
 4408              		.loc 1 878 3
 4409 08b4 0020     		movs	r0, #0
 4410 08b6 FFF7FEFF 		bl	LCD_WR_DATA
 879:hardware/src/lcd.c **** 		LCD_WR_DATA(0x3F);
 4411              		.loc 1 879 3
 4412 08ba 3F20     		movs	r0, #63
 4413 08bc FFF7FEFF 		bl	LCD_WR_DATA
 880:hardware/src/lcd.c **** 		LCD_WR_DATA(0x00);
 4414              		.loc 1 880 3
 4415 08c0 0020     		movs	r0, #0
 4416 08c2 FFF7FEFF 		bl	LCD_WR_DATA
 881:hardware/src/lcd.c **** 		LCD_WR_DATA(0x5E);
 4417              		.loc 1 881 3
 4418 08c6 5E20     		movs	r0, #94
 4419 08c8 FFF7FEFF 		bl	LCD_WR_DATA
 882:hardware/src/lcd.c **** 		LCD_WR_DATA(0x00);
 4420              		.loc 1 882 3
 4421 08cc 0020     		movs	r0, #0
 4422 08ce FFF7FEFF 		bl	LCD_WR_DATA
 883:hardware/src/lcd.c **** 		LCD_WR_DATA(0x64);
 4423              		.loc 1 883 3
 4424 08d2 6420     		movs	r0, #100
 4425 08d4 FFF7FEFF 		bl	LCD_WR_DATA
 884:hardware/src/lcd.c **** 		LCD_WR_DATA(0x00);
 4426              		.loc 1 884 3
 4427 08d8 0020     		movs	r0, #0
 4428 08da FFF7FEFF 		bl	LCD_WR_DATA
 885:hardware/src/lcd.c **** 		LCD_WR_DATA(0x8C);
 4429              		.loc 1 885 3
 4430 08de 8C20     		movs	r0, #140
 4431 08e0 FFF7FEFF 		bl	LCD_WR_DATA
 886:hardware/src/lcd.c **** 		LCD_WR_DATA(0x00);
 4432              		.loc 1 886 3
 4433 08e4 0020     		movs	r0, #0
 4434 08e6 FFF7FEFF 		bl	LCD_WR_DATA
 887:hardware/src/lcd.c **** 		LCD_WR_DATA(0xAC);
 4435              		.loc 1 887 3
 4436 08ea AC20     		movs	r0, #172
 4437 08ec FFF7FEFF 		bl	LCD_WR_DATA
 888:hardware/src/lcd.c **** 		LCD_WR_DATA(0x00);
 4438              		.loc 1 888 3
 4439 08f0 0020     		movs	r0, #0
 4440 08f2 FFF7FEFF 		bl	LCD_WR_DATA
 889:hardware/src/lcd.c **** 		LCD_WR_DATA(0xDC);
 4441              		.loc 1 889 3
 4442 08f6 DC20     		movs	r0, #220
 4443 08f8 FFF7FEFF 		bl	LCD_WR_DATA
 890:hardware/src/lcd.c **** 		LCD_WR_DATA(0x00);
 4444              		.loc 1 890 3
 4445 08fc 0020     		movs	r0, #0
 4446 08fe FFF7FEFF 		bl	LCD_WR_DATA
ARM GAS  /tmp/ccRHtd69.s 			page 104


 891:hardware/src/lcd.c **** 		LCD_WR_DATA(0x70);
 4447              		.loc 1 891 3
 4448 0902 7020     		movs	r0, #112
 4449 0904 FFF7FEFF 		bl	LCD_WR_DATA
 892:hardware/src/lcd.c **** 		LCD_WR_DATA(0x00);
 4450              		.loc 1 892 3
 4451 0908 0020     		movs	r0, #0
 4452 090a FFF7FEFF 		bl	LCD_WR_DATA
 893:hardware/src/lcd.c **** 		LCD_WR_DATA(0x90);
 4453              		.loc 1 893 3
 4454 090e 9020     		movs	r0, #144
 4455 0910 FFF7FEFF 		bl	LCD_WR_DATA
 894:hardware/src/lcd.c **** 		LCD_WR_DATA(0x00);
 4456              		.loc 1 894 3
 4457 0914 0020     		movs	r0, #0
 4458 0916 FFF7FEFF 		bl	LCD_WR_DATA
 895:hardware/src/lcd.c **** 		LCD_WR_DATA(0xEB);
 4459              		.loc 1 895 3
 4460 091a EB20     		movs	r0, #235
 4461 091c FFF7FEFF 		bl	LCD_WR_DATA
 896:hardware/src/lcd.c **** 		LCD_WR_DATA(0x00);
 4462              		.loc 1 896 3
 4463 0920 0020     		movs	r0, #0
 4464 0922 FFF7FEFF 		bl	LCD_WR_DATA
 897:hardware/src/lcd.c **** 		LCD_WR_DATA(0xDC);
 4465              		.loc 1 897 3
 4466 0926 DC20     		movs	r0, #220
 4467 0928 FFF7FEFF 		bl	LCD_WR_DATA
 898:hardware/src/lcd.c **** 		LCD_WR_DATA(0x00);
 4468              		.loc 1 898 3
 4469 092c 0020     		movs	r0, #0
 4470 092e FFF7FEFF 		bl	LCD_WR_DATA
 899:hardware/src/lcd.c **** 
 900:hardware/src/lcd.c **** 		LCD_WR_REG(0xB8);
 4471              		.loc 1 900 3
 4472 0932 B820     		movs	r0, #184
 4473 0934 FFF7FEFF 		bl	LCD_WR_REG
 901:hardware/src/lcd.c **** 		LCD_WR_DATA(0x00);
 4474              		.loc 1 901 3
 4475 0938 0020     		movs	r0, #0
 4476 093a FFF7FEFF 		bl	LCD_WR_DATA
 902:hardware/src/lcd.c **** 		LCD_WR_DATA(0x00);
 4477              		.loc 1 902 3
 4478 093e 0020     		movs	r0, #0
 4479 0940 FFF7FEFF 		bl	LCD_WR_DATA
 903:hardware/src/lcd.c **** 		LCD_WR_DATA(0x00);
 4480              		.loc 1 903 3
 4481 0944 0020     		movs	r0, #0
 4482 0946 FFF7FEFF 		bl	LCD_WR_DATA
 904:hardware/src/lcd.c **** 		LCD_WR_DATA(0x00);
 4483              		.loc 1 904 3
 4484 094a 0020     		movs	r0, #0
 4485 094c FFF7FEFF 		bl	LCD_WR_DATA
 905:hardware/src/lcd.c **** 		LCD_WR_DATA(0x00);
 4486              		.loc 1 905 3
 4487 0950 0020     		movs	r0, #0
 4488 0952 FFF7FEFF 		bl	LCD_WR_DATA
ARM GAS  /tmp/ccRHtd69.s 			page 105


 906:hardware/src/lcd.c **** 		LCD_WR_DATA(0x00);
 4489              		.loc 1 906 3
 4490 0956 0020     		movs	r0, #0
 4491 0958 FFF7FEFF 		bl	LCD_WR_DATA
 907:hardware/src/lcd.c **** 		LCD_WR_DATA(0x00);
 4492              		.loc 1 907 3
 4493 095c 0020     		movs	r0, #0
 4494 095e FFF7FEFF 		bl	LCD_WR_DATA
 908:hardware/src/lcd.c **** 		LCD_WR_DATA(0x00);
 4495              		.loc 1 908 3
 4496 0962 0020     		movs	r0, #0
 4497 0964 FFF7FEFF 		bl	LCD_WR_DATA
 909:hardware/src/lcd.c **** 
 910:hardware/src/lcd.c **** 		LCD_WR_REG(0xBA);
 4498              		.loc 1 910 3
 4499 0968 BA20     		movs	r0, #186
 4500 096a FFF7FEFF 		bl	LCD_WR_REG
 911:hardware/src/lcd.c **** 		LCD_WR_DATA(0x24);
 4501              		.loc 1 911 3
 4502 096e 2420     		movs	r0, #36
 4503 0970 FFF7FEFF 		bl	LCD_WR_DATA
 912:hardware/src/lcd.c **** 		LCD_WR_DATA(0x00);
 4504              		.loc 1 912 3
 4505 0974 0020     		movs	r0, #0
 4506 0976 FFF7FEFF 		bl	LCD_WR_DATA
 913:hardware/src/lcd.c **** 		LCD_WR_DATA(0x00);
 4507              		.loc 1 913 3
 4508 097a 0020     		movs	r0, #0
 4509 097c FFF7FEFF 		bl	LCD_WR_DATA
 914:hardware/src/lcd.c **** 		LCD_WR_DATA(0x00);
 4510              		.loc 1 914 3
 4511 0980 0020     		movs	r0, #0
 4512 0982 FFF7FEFF 		bl	LCD_WR_DATA
 915:hardware/src/lcd.c **** 
 916:hardware/src/lcd.c **** 		LCD_WR_REG(0xC1);
 4513              		.loc 1 916 3
 4514 0986 C120     		movs	r0, #193
 4515 0988 FFF7FEFF 		bl	LCD_WR_REG
 917:hardware/src/lcd.c **** 		LCD_WR_DATA(0x20);
 4516              		.loc 1 917 3
 4517 098c 2020     		movs	r0, #32
 4518 098e FFF7FEFF 		bl	LCD_WR_DATA
 918:hardware/src/lcd.c **** 		LCD_WR_DATA(0x00);
 4519              		.loc 1 918 3
 4520 0992 0020     		movs	r0, #0
 4521 0994 FFF7FEFF 		bl	LCD_WR_DATA
 919:hardware/src/lcd.c **** 		LCD_WR_DATA(0x54);
 4522              		.loc 1 919 3
 4523 0998 5420     		movs	r0, #84
 4524 099a FFF7FEFF 		bl	LCD_WR_DATA
 920:hardware/src/lcd.c **** 		LCD_WR_DATA(0x00);
 4525              		.loc 1 920 3
 4526 099e 0020     		movs	r0, #0
 4527 09a0 FFF7FEFF 		bl	LCD_WR_DATA
 921:hardware/src/lcd.c **** 		LCD_WR_DATA(0xFF);
 4528              		.loc 1 921 3
 4529 09a4 FF20     		movs	r0, #255
ARM GAS  /tmp/ccRHtd69.s 			page 106


 4530 09a6 FFF7FEFF 		bl	LCD_WR_DATA
 922:hardware/src/lcd.c **** 		LCD_WR_DATA(0x00);
 4531              		.loc 1 922 3
 4532 09aa 0020     		movs	r0, #0
 4533 09ac FFF7FEFF 		bl	LCD_WR_DATA
 923:hardware/src/lcd.c **** 
 924:hardware/src/lcd.c **** 		LCD_WR_REG(0xC2);
 4534              		.loc 1 924 3
 4535 09b0 C220     		movs	r0, #194
 4536 09b2 FFF7FEFF 		bl	LCD_WR_REG
 925:hardware/src/lcd.c **** 		LCD_WR_DATA(0x0A);
 4537              		.loc 1 925 3
 4538 09b6 0A20     		movs	r0, #10
 4539 09b8 FFF7FEFF 		bl	LCD_WR_DATA
 926:hardware/src/lcd.c **** 		LCD_WR_DATA(0x00);
 4540              		.loc 1 926 3
 4541 09bc 0020     		movs	r0, #0
 4542 09be FFF7FEFF 		bl	LCD_WR_DATA
 927:hardware/src/lcd.c **** 		LCD_WR_DATA(0x04);
 4543              		.loc 1 927 3
 4544 09c2 0420     		movs	r0, #4
 4545 09c4 FFF7FEFF 		bl	LCD_WR_DATA
 928:hardware/src/lcd.c **** 		LCD_WR_DATA(0x00);
 4546              		.loc 1 928 3
 4547 09c8 0020     		movs	r0, #0
 4548 09ca FFF7FEFF 		bl	LCD_WR_DATA
 929:hardware/src/lcd.c **** 
 930:hardware/src/lcd.c **** 		LCD_WR_REG(0xC3);
 4549              		.loc 1 930 3
 4550 09ce C320     		movs	r0, #195
 4551 09d0 FFF7FEFF 		bl	LCD_WR_REG
 931:hardware/src/lcd.c **** 		LCD_WR_DATA(0x3C);
 4552              		.loc 1 931 3
 4553 09d4 3C20     		movs	r0, #60
 4554 09d6 FFF7FEFF 		bl	LCD_WR_DATA
 932:hardware/src/lcd.c **** 		LCD_WR_DATA(0x00);
 4555              		.loc 1 932 3
 4556 09da 0020     		movs	r0, #0
 4557 09dc FFF7FEFF 		bl	LCD_WR_DATA
 933:hardware/src/lcd.c **** 		LCD_WR_DATA(0x3A);
 4558              		.loc 1 933 3
 4559 09e0 3A20     		movs	r0, #58
 4560 09e2 FFF7FEFF 		bl	LCD_WR_DATA
 934:hardware/src/lcd.c **** 		LCD_WR_DATA(0x00);
 4561              		.loc 1 934 3
 4562 09e6 0020     		movs	r0, #0
 4563 09e8 FFF7FEFF 		bl	LCD_WR_DATA
 935:hardware/src/lcd.c **** 		LCD_WR_DATA(0x39);
 4564              		.loc 1 935 3
 4565 09ec 3920     		movs	r0, #57
 4566 09ee FFF7FEFF 		bl	LCD_WR_DATA
 936:hardware/src/lcd.c **** 		LCD_WR_DATA(0x00);
 4567              		.loc 1 936 3
 4568 09f2 0020     		movs	r0, #0
 4569 09f4 FFF7FEFF 		bl	LCD_WR_DATA
 937:hardware/src/lcd.c **** 		LCD_WR_DATA(0x37);
 4570              		.loc 1 937 3
ARM GAS  /tmp/ccRHtd69.s 			page 107


 4571 09f8 3720     		movs	r0, #55
 4572 09fa FFF7FEFF 		bl	LCD_WR_DATA
 938:hardware/src/lcd.c **** 		LCD_WR_DATA(0x00);
 4573              		.loc 1 938 3
 4574 09fe 0020     		movs	r0, #0
 4575 0a00 FFF7FEFF 		bl	LCD_WR_DATA
 939:hardware/src/lcd.c **** 		LCD_WR_DATA(0x3C);
 4576              		.loc 1 939 3
 4577 0a04 3C20     		movs	r0, #60
 4578 0a06 FFF7FEFF 		bl	LCD_WR_DATA
 940:hardware/src/lcd.c **** 		LCD_WR_DATA(0x00);
 4579              		.loc 1 940 3
 4580 0a0a 0020     		movs	r0, #0
 4581 0a0c FFF7FEFF 		bl	LCD_WR_DATA
 941:hardware/src/lcd.c **** 		LCD_WR_DATA(0x36);
 4582              		.loc 1 941 3
 4583 0a10 3620     		movs	r0, #54
 4584 0a12 FFF7FEFF 		bl	LCD_WR_DATA
 942:hardware/src/lcd.c **** 		LCD_WR_DATA(0x00);
 4585              		.loc 1 942 3
 4586 0a16 0020     		movs	r0, #0
 4587 0a18 FFF7FEFF 		bl	LCD_WR_DATA
 943:hardware/src/lcd.c **** 		LCD_WR_DATA(0x32);
 4588              		.loc 1 943 3
 4589 0a1c 3220     		movs	r0, #50
 4590 0a1e FFF7FEFF 		bl	LCD_WR_DATA
 944:hardware/src/lcd.c **** 		LCD_WR_DATA(0x00);
 4591              		.loc 1 944 3
 4592 0a22 0020     		movs	r0, #0
 4593 0a24 FFF7FEFF 		bl	LCD_WR_DATA
 945:hardware/src/lcd.c **** 		LCD_WR_DATA(0x2F);
 4594              		.loc 1 945 3
 4595 0a28 2F20     		movs	r0, #47
 4596 0a2a FFF7FEFF 		bl	LCD_WR_DATA
 946:hardware/src/lcd.c **** 		LCD_WR_DATA(0x00);
 4597              		.loc 1 946 3
 4598 0a2e 0020     		movs	r0, #0
 4599 0a30 FFF7FEFF 		bl	LCD_WR_DATA
 947:hardware/src/lcd.c **** 		LCD_WR_DATA(0x2C);
 4600              		.loc 1 947 3
 4601 0a34 2C20     		movs	r0, #44
 4602 0a36 FFF7FEFF 		bl	LCD_WR_DATA
 948:hardware/src/lcd.c **** 		LCD_WR_DATA(0x00);
 4603              		.loc 1 948 3
 4604 0a3a 0020     		movs	r0, #0
 4605 0a3c FFF7FEFF 		bl	LCD_WR_DATA
 949:hardware/src/lcd.c **** 		LCD_WR_DATA(0x29);
 4606              		.loc 1 949 3
 4607 0a40 2920     		movs	r0, #41
 4608 0a42 FFF7FEFF 		bl	LCD_WR_DATA
 950:hardware/src/lcd.c **** 		LCD_WR_DATA(0x00);
 4609              		.loc 1 950 3
 4610 0a46 0020     		movs	r0, #0
 4611 0a48 FFF7FEFF 		bl	LCD_WR_DATA
 951:hardware/src/lcd.c **** 		LCD_WR_DATA(0x26);
 4612              		.loc 1 951 3
 4613 0a4c 2620     		movs	r0, #38
ARM GAS  /tmp/ccRHtd69.s 			page 108


 4614 0a4e FFF7FEFF 		bl	LCD_WR_DATA
 952:hardware/src/lcd.c **** 		LCD_WR_DATA(0x00);
 4615              		.loc 1 952 3
 4616 0a52 0020     		movs	r0, #0
 4617 0a54 FFF7FEFF 		bl	LCD_WR_DATA
 953:hardware/src/lcd.c **** 		LCD_WR_DATA(0x24);
 4618              		.loc 1 953 3
 4619 0a58 2420     		movs	r0, #36
 4620 0a5a FFF7FEFF 		bl	LCD_WR_DATA
 954:hardware/src/lcd.c **** 		LCD_WR_DATA(0x00);
 4621              		.loc 1 954 3
 4622 0a5e 0020     		movs	r0, #0
 4623 0a60 FFF7FEFF 		bl	LCD_WR_DATA
 955:hardware/src/lcd.c **** 		LCD_WR_DATA(0x24);
 4624              		.loc 1 955 3
 4625 0a64 2420     		movs	r0, #36
 4626 0a66 FFF7FEFF 		bl	LCD_WR_DATA
 956:hardware/src/lcd.c **** 		LCD_WR_DATA(0x00);
 4627              		.loc 1 956 3
 4628 0a6a 0020     		movs	r0, #0
 4629 0a6c FFF7FEFF 		bl	LCD_WR_DATA
 957:hardware/src/lcd.c **** 		LCD_WR_DATA(0x23);
 4630              		.loc 1 957 3
 4631 0a70 2320     		movs	r0, #35
 4632 0a72 FFF7FEFF 		bl	LCD_WR_DATA
 958:hardware/src/lcd.c **** 		LCD_WR_DATA(0x00);
 4633              		.loc 1 958 3
 4634 0a76 0020     		movs	r0, #0
 4635 0a78 FFF7FEFF 		bl	LCD_WR_DATA
 959:hardware/src/lcd.c **** 		LCD_WR_DATA(0x3C);
 4636              		.loc 1 959 3
 4637 0a7c 3C20     		movs	r0, #60
 4638 0a7e FFF7FEFF 		bl	LCD_WR_DATA
 960:hardware/src/lcd.c **** 		LCD_WR_DATA(0x00);
 4639              		.loc 1 960 3
 4640 0a82 0020     		movs	r0, #0
 4641 0a84 FFF7FEFF 		bl	LCD_WR_DATA
 961:hardware/src/lcd.c **** 		LCD_WR_DATA(0x36);
 4642              		.loc 1 961 3
 4643 0a88 3620     		movs	r0, #54
 4644 0a8a FFF7FEFF 		bl	LCD_WR_DATA
 962:hardware/src/lcd.c **** 		LCD_WR_DATA(0x00);
 4645              		.loc 1 962 3
 4646 0a8e 0020     		movs	r0, #0
 4647 0a90 FFF7FEFF 		bl	LCD_WR_DATA
 963:hardware/src/lcd.c **** 		LCD_WR_DATA(0x32);
 4648              		.loc 1 963 3
 4649 0a94 3220     		movs	r0, #50
 4650 0a96 FFF7FEFF 		bl	LCD_WR_DATA
 964:hardware/src/lcd.c **** 		LCD_WR_DATA(0x00);
 4651              		.loc 1 964 3
 4652 0a9a 0020     		movs	r0, #0
 4653 0a9c FFF7FEFF 		bl	LCD_WR_DATA
 965:hardware/src/lcd.c **** 		LCD_WR_DATA(0x2F);
 4654              		.loc 1 965 3
 4655 0aa0 2F20     		movs	r0, #47
 4656 0aa2 FFF7FEFF 		bl	LCD_WR_DATA
ARM GAS  /tmp/ccRHtd69.s 			page 109


 966:hardware/src/lcd.c **** 		LCD_WR_DATA(0x00);
 4657              		.loc 1 966 3
 4658 0aa6 0020     		movs	r0, #0
 4659 0aa8 FFF7FEFF 		bl	LCD_WR_DATA
 967:hardware/src/lcd.c **** 		LCD_WR_DATA(0x2C);
 4660              		.loc 1 967 3
 4661 0aac 2C20     		movs	r0, #44
 4662 0aae FFF7FEFF 		bl	LCD_WR_DATA
 968:hardware/src/lcd.c **** 		LCD_WR_DATA(0x00);
 4663              		.loc 1 968 3
 4664 0ab2 0020     		movs	r0, #0
 4665 0ab4 FFF7FEFF 		bl	LCD_WR_DATA
 969:hardware/src/lcd.c **** 		LCD_WR_DATA(0x29);
 4666              		.loc 1 969 3
 4667 0ab8 2920     		movs	r0, #41
 4668 0aba FFF7FEFF 		bl	LCD_WR_DATA
 970:hardware/src/lcd.c **** 		LCD_WR_DATA(0x00);
 4669              		.loc 1 970 3
 4670 0abe 0020     		movs	r0, #0
 4671 0ac0 FFF7FEFF 		bl	LCD_WR_DATA
 971:hardware/src/lcd.c **** 		LCD_WR_DATA(0x26);
 4672              		.loc 1 971 3
 4673 0ac4 2620     		movs	r0, #38
 4674 0ac6 FFF7FEFF 		bl	LCD_WR_DATA
 972:hardware/src/lcd.c **** 		LCD_WR_DATA(0x00);
 4675              		.loc 1 972 3
 4676 0aca 0020     		movs	r0, #0
 4677 0acc FFF7FEFF 		bl	LCD_WR_DATA
 973:hardware/src/lcd.c **** 		LCD_WR_DATA(0x24);
 4678              		.loc 1 973 3
 4679 0ad0 2420     		movs	r0, #36
 4680 0ad2 FFF7FEFF 		bl	LCD_WR_DATA
 974:hardware/src/lcd.c **** 		LCD_WR_DATA(0x00);
 4681              		.loc 1 974 3
 4682 0ad6 0020     		movs	r0, #0
 4683 0ad8 FFF7FEFF 		bl	LCD_WR_DATA
 975:hardware/src/lcd.c **** 		LCD_WR_DATA(0x24);
 4684              		.loc 1 975 3
 4685 0adc 2420     		movs	r0, #36
 4686 0ade FFF7FEFF 		bl	LCD_WR_DATA
 976:hardware/src/lcd.c **** 		LCD_WR_DATA(0x00);
 4687              		.loc 1 976 3
 4688 0ae2 0020     		movs	r0, #0
 4689 0ae4 FFF7FEFF 		bl	LCD_WR_DATA
 977:hardware/src/lcd.c **** 		LCD_WR_DATA(0x23);
 4690              		.loc 1 977 3
 4691 0ae8 2320     		movs	r0, #35
 4692 0aea FFF7FEFF 		bl	LCD_WR_DATA
 978:hardware/src/lcd.c **** 		LCD_WR_DATA(0x00);
 4693              		.loc 1 978 3
 4694 0aee 0020     		movs	r0, #0
 4695 0af0 FFF7FEFF 		bl	LCD_WR_DATA
 979:hardware/src/lcd.c **** 
 980:hardware/src/lcd.c **** 		LCD_WR_REG(0xC4);
 4696              		.loc 1 980 3
 4697 0af4 C420     		movs	r0, #196
 4698 0af6 FFF7FEFF 		bl	LCD_WR_REG
ARM GAS  /tmp/ccRHtd69.s 			page 110


 981:hardware/src/lcd.c **** 		LCD_WR_DATA(0x62);
 4699              		.loc 1 981 3
 4700 0afa 6220     		movs	r0, #98
 4701 0afc FFF7FEFF 		bl	LCD_WR_DATA
 982:hardware/src/lcd.c **** 		LCD_WR_DATA(0x00);
 4702              		.loc 1 982 3
 4703 0b00 0020     		movs	r0, #0
 4704 0b02 FFF7FEFF 		bl	LCD_WR_DATA
 983:hardware/src/lcd.c **** 		LCD_WR_DATA(0x05);
 4705              		.loc 1 983 3
 4706 0b06 0520     		movs	r0, #5
 4707 0b08 FFF7FEFF 		bl	LCD_WR_DATA
 984:hardware/src/lcd.c **** 		LCD_WR_DATA(0x00);
